 gamex86

 Timestamp is 66215542 (Thu Apr 18 12:15:46 2024)

 Preferred load address is 10000000

 Start         Length     Name                   Class
 0001:00000000 00041330H .text$di                CODE
 0001:00041330 0022bd30H .text$mn                CODE
 0001:0026d060 00014c10H .text$x                 CODE
 0001:00281c70 0000474dH .text$yd                CODE
 0002:00000000 0000014cH .idata$5                DATA
 0002:0000014c 00000008H .00cfg                  DATA
 0002:00000154 00000004H .CRT$XCA                DATA
 0002:00000158 0000000cH .CRT$XCC                DATA
 0002:00000164 00000008H .CRT$XCL                DATA
 0002:0000016c 00001948H .CRT$XCU                DATA
 0002:00001ab4 00000004H .CRT$XCZ                DATA
 0002:00001ab8 00000004H .CRT$XIA                DATA
 0002:00001abc 00000014H .CRT$XIC                DATA
 0002:00001ad0 00000004H .CRT$XIZ                DATA
 0002:00001ad4 00000004H .CRT$XLA                DATA
 0002:00001ad8 00000004H .CRT$XLZ                DATA
 0002:00001adc 00000004H .CRT$XPA                DATA
 0002:00001ae0 00000008H .CRT$XPX                DATA
 0002:00001ae8 00000004H .CRT$XPXA               DATA
 0002:00001aec 00000004H .CRT$XPZ                DATA
 0002:00001af0 00000004H .CRT$XTA                DATA
 0002:00001af4 0000000cH .CRT$XTZ                DATA
 0002:00001af8 00000000H .gfids$y                DATA
 0002:00001b00 00047d80H .rdata                  DATA
 0002:00049880 00000000H .rdata$CastGuardVftablesA DATA
 0002:00049880 00000000H .rdata$CastGuardVftablesC DATA
 0002:00049880 00000018H .rdata$T                DATA
 0002:00049898 000054b8H .rdata$r                DATA
 0002:0004ed50 00000e74H .rdata$sxdata           DATA
 0002:0004fbc4 00000238H .rdata$voltmd           DATA
 0002:0004fdfc 00000398H .rdata$zzzdbg           DATA
 0002:00050194 00000004H .rtc$IAA                DATA
 0002:00050198 00000004H .rtc$IZZ                DATA
 0002:0005019c 00000004H .rtc$TAA                DATA
 0002:000501a0 00000004H .rtc$TZZ                DATA
 0002:000501a4 00000004H .tls                    DATA
 0002:000501a8 00000004H .tls$                   DATA
 0002:000501ac 00000004H .tls$ZZZ                DATA
 0002:000501b0 0001c160H .xdata$x                DATA
 0002:0006c310 0000004cH .edata                  DATA
 0002:0006c35c 00000028H .idata$2                DATA
 0002:0006c384 00000014H .idata$3                DATA
 0002:0006c398 0000014cH .idata$4                DATA
 0002:0006c4e4 00000638H .idata$6                DATA
 0003:00000000 00020aa0H .data                   DATA
 0003:00020aa0 00000350H .data$r                 DATA
 0003:00020df0 00001f60H .data$rs                DATA
 0003:00022d50 00715b58H .bss                    DATA
 0004:00000000 00000060H .rsrc$01                DATA
 0004:00000060 00000180H .rsrc$02                DATA

  Address         Publics by Value              Rva+Base       Lib:Object

 0000:00000000       ___AbsoluteZero            00000000     <absolute>
 0000:00000000       ___arm64x_extra_rfe_table  00000000     <absolute>
 0000:00000000       ___arm64x_extra_rfe_table_size 00000000     <absolute>
 0000:00000000       ___arm64x_native_entrypoint 00000000     <absolute>
 0000:00000000       ___arm64x_redirection_metadata 00000000     <absolute>
 0000:00000000       ___arm64x_redirection_metadata_count 00000000     <absolute>
 0000:00000000       ___dynamic_value_reloc_table 00000000     <absolute>
 0000:00000000       ___enclave_config          00000000     <absolute>
 0000:00000000       ___guard_check_icall_a64n_fptr 00000000     <absolute>
 0000:00000000       ___guard_eh_cont_count     00000000     <absolute>
 0000:00000000       ___guard_eh_cont_table     00000000     <absolute>
 0000:00000000       ___guard_fids_count        00000000     <absolute>
 0000:00000000       ___guard_fids_table        00000000     <absolute>
 0000:00000000       ___guard_iat_count         00000000     <absolute>
 0000:00000000       ___guard_iat_table         00000000     <absolute>
 0000:00000000       ___guard_longjmp_count     00000000     <absolute>
 0000:00000000       ___guard_longjmp_table     00000000     <absolute>
 0000:00000000       ___hybrid_auxiliary_delayload_iat 00000000     <absolute>
 0000:00000000       ___hybrid_auxiliary_delayload_iat_copy 00000000     <absolute>
 0000:00000000       ___hybrid_auxiliary_iat    00000000     <absolute>
 0000:00000000       ___hybrid_auxiliary_iat_copy 00000000     <absolute>
 0000:00000000       ___hybrid_code_map         00000000     <absolute>
 0000:00000000       ___hybrid_code_map_count   00000000     <absolute>
 0000:00000000       ___hybrid_image_info_bitfield 00000000     <absolute>
 0000:00000000       ___x64_code_ranges_to_entry_points 00000000     <absolute>
 0000:00000000       ___x64_code_ranges_to_entry_points_count 00000000     <absolute>
 0000:00000000       __except_list              00000000     <absolute>
 0000:0000002c       __tls_array                0000002c     <absolute>
 0000:00000100       ___guard_flags             00000100     <absolute>
 0000:0000039d       ___safe_se_handler_count   0000039d     <absolute>
 0000:00000000       ___ImageBase               10000000     <linker-defined>
 0001:00041330       ??0idStr@@QAE@XZ           10042330 f i AAS.obj
 0001:00041350       ??1idStr@@QAE@XZ           10042350 f i AAS.obj
 0001:00041380       ??_EidAASLocal@@UAEPAXI@Z  10042380 f i AAS.obj
 0001:00041380       ??_GidAASLocal@@UAEPAXI@Z  10042380 f i AAS.obj
 0001:00041430       ?Alloc@idAAS@@SAPAV1@XZ    10042430 f   AAS.obj
 0001:00041490       ?AreaCenter@idAASLocal@@UBE?AVidVec3@@H@Z 10042490 f   AAS.obj
 0001:000414e0       ?AreaFlags@idAASLocal@@UBEHH@Z 100424e0 f   AAS.obj
 0001:00041510       ?AreaTravelFlags@idAASLocal@@UBEHH@Z 10042510 f   AAS.obj
 0001:00041540       ?BoundsReachableAreaNum@idAASLocal@@UBEHABVidBounds@@H@Z 10042540 f   AAS.obj
 0001:00041560       ?GetEdge@idAASLocal@@UBEXHAAVidVec3@@0@Z 10042560 f   AAS.obj
 0001:00041610       ?GetEdgeVertexNumbers@idAASLocal@@UBEXHQAH@Z 10042610 f   AAS.obj
 0001:00041660       ?GetPlane@idAASLocal@@UBEABVidPlane@@H@Z 10042660 f   AAS.obj
 0001:00041680       ?GetSettings@idAASLocal@@UBEPBVidAASSettings@@XZ 10042680 f   AAS.obj
 0001:00041690       ?Init@idAASLocal@@UAE_NABVidStr@@I@Z 10042690 f   AAS.obj
 0001:00041730       ?PointAreaNum@idAASLocal@@UBEHABVidVec3@@@Z 10042730 f   AAS.obj
 0001:00041750       ?PointReachableAreaNum@idAASLocal@@UBEHABVidVec3@@ABVidBounds@@H@Z 10042750 f   AAS.obj
 0001:00041780       ?PushPointIntoAreaNum@idAASLocal@@UBEXHAAVidVec3@@@Z 10042780 f   AAS.obj
 0001:00041790       ?Shutdown@idAASLocal@@UAEXXZ 10042790 f   AAS.obj
 0001:000417c0       ?Stats@idAASLocal@@UBEXXZ  100427c0 f   AAS.obj
 0001:00041800       ?Trace@idAASLocal@@UBE_NAAUaasTrace_s@@ABVidVec3@@1@Z 10042800 f   AAS.obj
 0001:00041820       ?DrawArea@idAASLocal@@ABEXH@Z 10042820 f   AAS_debug.obj
 0001:000418a0       ?DrawCone@idAASLocal@@ABEXABVidVec3@@0MABVidVec4@@@Z 100428a0 f   AAS_debug.obj
 0001:00041be0       ?DrawEdge@idAASLocal@@ABEXH_N@Z 10042be0 f   AAS_debug.obj
 0001:00041d30       ?DrawFace@idAASLocal@@ABEXH_N@Z 10042d30 f   AAS_debug.obj
 0001:00041f50       ?DrawReachability@idAASLocal@@ABEXPBVidReachability@@@Z 10042f50 f   AAS_debug.obj
 0001:00042030       ?Normalize@idVec3@@QAEMXZ  10043030 f i AAS_debug.obj
 0001:00042120       ?PullPlayer@idAASLocal@@ABE_NABVidVec3@@H@Z 10043120 f   AAS_debug.obj
 0001:00042470       ?ShowArea@idAASLocal@@ABEXABVidVec3@@@Z 10043470 f   AAS_debug.obj
 0001:000426a0       ?ShowFlyPath@idAASLocal@@UBEXABVidVec3@@H0@Z 100436a0 f   AAS_debug.obj
 0001:00042800       ?ShowWalkPath@idAASLocal@@UBEXABVidVec3@@H0@Z 10043800 f   AAS_debug.obj
 0001:00042960       ?Test@idAASLocal@@UAEXABVidVec3@@@Z 10043960 f   AAS_debug.obj
 0001:00042eb0       ?FixDegenerateNormal@idPlane@@QAE_NXZ 10043eb0 f i AAS_pathing.obj
 0001:00042eb0       ?FixDegenerateNormal@idVec3@@QAE_NXZ 10043eb0 f i Push.obj
 0001:00043090       ?FloorEdgeSplitPoint@idAASLocal@@ABE_NAAVidVec3@@HABVidPlane@@1_N@Z 10044090 f   AAS_pathing.obj
 0001:00043320       ?FlyPathToGoal@idAASLocal@@UBE_NAAUaasPath_s@@HABVidVec3@@H1H@Z 10044320 f   AAS_pathing.obj
 0001:00043620       ?FlyPathValid@idAASLocal@@UBE_NHABVidVec3@@H0HAAV2@AAH@Z 10044620 f   AAS_pathing.obj
 0001:000436e0       ?GetWallEdges@idAASLocal@@UBEHHABVidBounds@@HPAHH@Z 100446e0 f   AAS_pathing.obj
 0001:00043a20       ?SortWallEdges@idAASLocal@@UBEXPAHH@Z 10044a20 f   AAS_pathing.obj
 0001:00043bc0       ?SubSampleWalkPath@idAASLocal@@ABE?AVidVec3@@HABV2@00HAAH@Z 10044bc0 f   AAS_pathing.obj
 0001:00043e10       ?WalkPathToGoal@idAASLocal@@UBE_NAAUaasPath_s@@HABVidVec3@@H1H@Z 10044e10 f   AAS_pathing.obj
 0001:000441b0       ?WalkPathValid@idAASLocal@@UBE_NHABVidVec3@@H0HAAV2@AAH@Z 100451b0 f   AAS_pathing.obj
 0001:00044810       ??0idRoutingCache@@QAE@H@Z 10045810 f   AAS_routing.obj
 0001:000448a0       ?AddObstacle@idAASLocal@@UAEHABVidBounds@@@Z 100458a0 f   AAS_routing.obj
 0001:000449d0       ?Append@?$idList@H@@QAEHABH@Z 100459d0 f i AAS_routing.obj
 0001:000449d0       ?Append@?$idList@PAUshard_s@@@@QAEHABQAUshard_s@@@Z 100459d0 f i BrittleFracture.obj
 0001:000449d0       ?Append@?$idList@PAVidAFBody@@@@QAEHABQAVidAFBody@@@Z 100459d0 f i Physics_AF.obj
 0001:000449d0       ?Append@?$idList@PAVidAFConstraint@@@@QAEHABQAVidAFConstraint@@@Z 100459d0 f i Physics_AF.obj
 0001:000449d0       ?Append@?$idList@PAVidDict@@@@QAEHABQAVidDict@@@Z 100459d0 f i Player.obj
 0001:000449d0       ?Append@?$idList@PAVidMapBrushSide@@@@QAEHABQAVidMapBrushSide@@@Z 100459d0 f i idLib:MapFile.obj
 0001:000449d0       ?Append@?$idList@PAVidMapEntity@@@@QAEHABQAVidMapEntity@@@Z 100459d0 f i idLib:MapFile.obj
 0001:000449d0       ?Append@?$idList@PAVidMapPrimitive@@@@QAEHABQAVidMapPrimitive@@@Z 100459d0 f i idLib:MapFile.obj
 0001:000449d0       ?Append@?$idList@PAVidTypeDef@@@@QAEHABQAVidTypeDef@@@Z 100459d0 f i Script_Program.obj
 0001:000449d0       ?Append@?$idList@PBVidClass@@@@QAEHABQBVidClass@@@Z 100459d0 f i SaveGame.obj
 0001:00044a40       ?AreaTravelTime@idAASLocal@@ABEGHABVidVec3@@0@Z 10045a40 f   AAS_routing.obj
 0001:00044b70       ?CalculateAreaTravelTimes@idAASLocal@@AAEXXZ 10045b70 f   AAS_routing.obj
 0001:00044d30       ?ClusterAreaNum@idAASLocal@@ABEHHH@Z 10045d30 f i AAS_routing.obj
 0001:00044d80       ?DeleteClusterCache@idAASLocal@@AAEXH@Z 10045d80 f   AAS_routing.obj
 0001:00044e50       ?DeletePortalCache@idAASLocal@@AAEXXZ 10045e50 f   AAS_routing.obj
 0001:00044ef0       ?FindNearestGoal@idAASLocal@@UBE_NAAUaasGoal_s@@HVidVec3@@ABV3@HPAUaasObstacle_s@@HAAVidAASCallback@@@Z 10045ef0 f   AAS_routing.obj
 0001:00045680       ?GetAreaReachability@idAASLocal@@ABEPAVidReachability@@HH@Z 10046680 f   AAS_routing.obj
 0001:000456c0       ?GetAreaRoutingCache@idAASLocal@@ABEPAVidRoutingCache@@HHH@Z 100466c0 f   AAS_routing.obj
 0001:00045810       ?GetBoundsAreas_r@idAASLocal@@ABEXHABVidBounds@@AAV?$idList@H@@@Z 10046810 f   AAS_routing.obj
 0001:000458a0       ?GetPortalRoutingCache@idAASLocal@@ABEPAVidRoutingCache@@HHH@Z 100468a0 f   AAS_routing.obj
 0001:00045980       ?LinkCache@idAASLocal@@ABEXPAVidRoutingCache@@@Z 10046980 f   AAS_routing.obj
 0001:00045a10       ?RemoveAllObstacles@idAASLocal@@UAEXXZ 10046a10 f   AAS_routing.obj
 0001:00045aa0       ?RemoveObstacle@idAASLocal@@UAEXH@Z 10046aa0 f   AAS_routing.obj
 0001:00045b30       ?RemoveRoutingCacheUsingArea@idAASLocal@@AAEXH@Z 10046b30 f   AAS_routing.obj
 0001:00045b90       ?Resize@?$idList@H@@QAEXH@Z 10046b90 f i AAS_routing.obj
 0001:00045b90       ?Resize@?$idList@M@@QAEXH@Z 10046b90 f i Anim.obj
 0001:00045b90       ?Resize@?$idList@PAUjointMod_t@@@@QAEXH@Z 10046b90 f i Anim_Blend.obj
 0001:00045b90       ?Resize@?$idList@PAUshard_s@@@@QAEXH@Z 10046b90 f i BrittleFracture.obj
 0001:00045b90       ?Resize@?$idList@PAUtrmCache_s@@@@QAEXH@Z 10046b90 f i Clip.obj
 0001:00045b90       ?Resize@?$idList@PAVFullscreenFX@@@@QAEXH@Z 10046b90 f i PlayerView.obj
 0001:00045b90       ?Resize@?$idList@PAVidAAS@@@@QAEXH@Z 10046b90 f i Game_local.obj
 0001:00045b90       ?Resize@?$idList@PAVidAFBody@@@@QAEXH@Z 10046b90 f i Physics_AF.obj
 0001:00045b90       ?Resize@?$idList@PAVidAFConstraint@@@@QAEXH@Z 10046b90 f i Physics_AF.obj
 0001:00045b90       ?Resize@?$idList@PAVidAFConstraint_Contact@@@@QAEXH@Z 10046b90 f i Physics_AF.obj
 0001:00045b90       ?Resize@?$idList@PAVidAFTree@@@@QAEXH@Z 10046b90 f i Physics_AF.obj
 0001:00045b90       ?Resize@?$idList@PAVidAnim@@@@QAEXH@Z 10046b90 f i Anim_Blend.obj
 0001:00045b90       ?Resize@?$idList@PAVidClipModel@@@@QAEXH@Z 10046b90 f i Physics_StaticMulti.obj
 0001:00045b90       ?Resize@?$idList@PAVidDict@@@@QAEXH@Z 10046b90 f i Player.obj
 0001:00045b90       ?Resize@?$idList@PAVidEntity@@@@QAEXH@Z 10046b90 f i AFEntity.obj
 0001:00045b90       ?Resize@?$idList@PAVidFixedWinding@@@@QAEXH@Z 10046b90 f i BrittleFracture.obj
 0001:00045b90       ?Resize@?$idList@PAVidForce@@@@QAEXH@Z 10046b90 f i Force.obj
 0001:00045b90       ?Resize@?$idList@PAVidMapBrushSide@@@@QAEXH@Z 10046b90 f i idLib:MapFile.obj
 0001:00045b90       ?Resize@?$idList@PAVidMapEntity@@@@QAEXH@Z 10046b90 f i idLib:MapFile.obj
 0001:00045b90       ?Resize@?$idList@PAVidMapPrimitive@@@@QAEXH@Z 10046b90 f i idLib:MapFile.obj
 0001:00045b90       ?Resize@?$idList@PAVidPoolStr@@@@QAEXH@Z 10046b90 f i idLib:Dict.obj
 0001:00045b90       ?Resize@?$idList@PAVidRoutingObstacle@@@@QAEXH@Z 10046b90 f i AAS_routing.obj
 0001:00045b90       ?Resize@?$idList@PAVidThread@@@@QAEXH@Z 10046b90 f i Script_Thread.obj
 0001:00045b90       ?Resize@?$idList@PAVidTypeDef@@@@QAEXH@Z 10046b90 f i Script_Program.obj
 0001:00045b90       ?Resize@?$idList@PAVidTypeInfo@@@@QAEXH@Z 10046b90 f i Class.obj
 0001:00045b90       ?Resize@?$idList@PAVidVarDef@@@@QAEXH@Z 10046b90 f i Script_Program.obj
 0001:00045b90       ?Resize@?$idList@PAVidVarDefName@@@@QAEXH@Z 10046b90 f i Script_Program.obj
 0001:00045b90       ?Resize@?$idList@PBVfunction_t@@@@QAEXH@Z 10046b90 f i Script_Program.obj
 0001:00045b90       ?Resize@?$idList@PBVidClass@@@@QAEXH@Z 10046b90 f i SaveGame.obj
 0001:00045b90       ?Resize@?$idList@W4jointHandle_t@@@@QAEXH@Z 10046b90 f i AI.obj
 0001:00045c20       ?RouteToGoalArea@idAASLocal@@UBE_NHVidVec3@@HHAAHPAPAVidReachability@@@Z 10046c20 f   AAS_routing.obj
 0001:00046110       ?RoutingStats@idAASLocal@@ABEXXZ 10047110 f   AAS_routing.obj
 0001:00046230       ?SetAreaState@idAASLocal@@UAE_NABVidBounds@@H_N@Z 10047230 f   AAS_routing.obj
 0001:000463b0       ?SetAreaState_r@idAASLocal@@AAE_NHABVidBounds@@H_N@Z 100473b0 f   AAS_routing.obj
 0001:00046490       ?SetObstacleState@idAASLocal@@AAEXPBVidRoutingObstacle@@_N@Z 10047490 f   AAS_routing.obj
 0001:000465f0       ?SetupRouting@idAASLocal@@AAE_NXZ 100475f0 f   AAS_routing.obj
 0001:000466f0       ?ShutdownRouting@idAASLocal@@AAEXXZ 100476f0 f   AAS_routing.obj
 0001:000467b0       ?TravelTimeToGoalArea@idAASLocal@@UBEHHABVidVec3@@HH@Z 100477b0 f   AAS_routing.obj
 0001:00046810       ?UpdateAreaRoutingCache@idAASLocal@@ABEXPAVidRoutingCache@@@Z 10047810 f   AAS_routing.obj
 0001:00046ab0       ?UpdatePortalRoutingCache@idAASLocal@@ABEXPAVidRoutingCache@@@Z 10047ab0 f   AAS_routing.obj
 0001:00046ca0       ?Event_Activate@idCombatNode@@AAEXPAVidEntity@@@Z 10047ca0 f   AI.obj
 0001:00046cc0       ?Event_MarkUsed@idCombatNode@@AAEXXZ 10047cc0 f   AI.obj
 0001:00046d00       ??0idAASFindAttackPosition@@QAE@PBVidAI@@ABVidMat3@@PAVidEntity@@ABVidVec3@@3@Z 10047d00 f   AI.obj
 0001:00046ee0       ??0idAASFindCover@@QAE@ABVidVec3@@@Z 10047ee0 f   AI.obj
 0001:00046fc0       ??0idAI@@QAE@XZ            10047fc0 f   AI.obj
 0001:00047960       ??0idDict@@QAE@XZ          10048960 f i AI.obj
 0001:00047a90       ??0idMoveState@@QAE@XZ     10048a90 f   AI.obj
 0001:00047b70       ??0idStr@@QAE@ABV0@@Z      10048b70 f i AI.obj
 0001:00047bc0       ??0idStr@@QAE@PBD@Z        10048bc0 f i AI.obj
 0001:00047c20       ??1?$basic_string@DU?$char_traits@D@std@@V?$allocator@D@2@@std@@QAE@XZ 10048c20 f i AI.obj
 0001:00047c70       ??1?$idHashTable@UfuncEmitter_s@@@@QAE@XZ 10048c70 f i AI.obj
 0001:00047cb0       ??1?$idList@H@@QAE@XZ      10048cb0 f i Anim_Blend.obj
 0001:00047cb0       ??1?$idList@M@@QAE@XZ      10048cb0 f i Actor.obj
 0001:00047cb0       ??1?$idList@PAUjointMod_t@@@@QAE@XZ 10048cb0 f i Anim_Blend.obj
 0001:00047cb0       ??1?$idList@PAUshard_s@@@@QAE@XZ 10048cb0 f i BrittleFracture.obj
 0001:00047cb0       ??1?$idList@PAVidAAS@@@@QAE@XZ 10048cb0 f i Game_local.obj
 0001:00047cb0       ??1?$idList@PAVidAFBody@@@@QAE@XZ 10048cb0 f i Physics_AF.obj
 0001:00047cb0       ??1?$idList@PAVidAFConstraint@@@@QAE@XZ 10048cb0 f i Physics_AF.obj
 0001:00047cb0       ??1?$idList@PAVidAFConstraint_Contact@@@@QAE@XZ 10048cb0 f i Physics_AF.obj
 0001:00047cb0       ??1?$idList@PAVidAFTree@@@@QAE@XZ 10048cb0 f i Physics_AF.obj
 0001:00047cb0       ??1?$idList@PAVidClipModel@@@@QAE@XZ 10048cb0 f i Physics_StaticMulti.obj
 0001:00047cb0       ??1?$idList@PAVidDict@@@@QAE@XZ 10048cb0 f i Player.obj
 0001:00047cb0       ??1?$idList@PAVidEntity@@@@QAE@XZ 10048cb0 f i AFEntity.obj
 0001:00047cb0       ??1?$idList@PAVidFixedWinding@@@@QAE@XZ 10048cb0 f i BrittleFracture.obj
 0001:00047cb0       ??1?$idList@PAVidMD5Anim@@@@QAE@XZ 10048cb0 f i Anim.obj
 0001:00047cb0       ??1?$idList@PAVidMapBrushSide@@@@QAE@XZ 10048cb0 f i idLib:MapFile.obj
 0001:00047cb0       ??1?$idList@PAVidMapEntity@@@@QAE@XZ 10048cb0 f i Game_local.obj
 0001:00047cb0       ??1?$idList@PAVidMapPrimitive@@@@QAE@XZ 10048cb0 f i SysCmds.obj
 0001:00047cb0       ??1?$idList@PAVidPoolStr@@@@QAE@XZ 10048cb0 f i idLib:Dict.obj
 0001:00047cb0       ??1?$idList@PAVidThread@@@@QAE@XZ 10048cb0 f i Game_local.obj
 0001:00047cb0       ??1?$idList@PAVidTypeDef@@@@QAE@XZ 10048cb0 f i Script_Program.obj
 0001:00047cb0       ??1?$idList@PAVidVarDef@@@@QAE@XZ 10048cb0 f i Script_Program.obj
 0001:00047cb0       ??1?$idList@PAVidVarDefName@@@@QAE@XZ 10048cb0 f i Script_Program.obj
 0001:00047cb0       ??1?$idList@PBVfunction_t@@@@QAE@XZ 10048cb0 f i Script_Program.obj
 0001:00047cb0       ??1?$idList@PBVidClass@@@@QAE@XZ 10048cb0 f i SaveGame.obj
 0001:00047cb0       ??1?$idList@UAFCollision_s@@@@QAE@XZ 10048cb0 f i Physics_AF.obj
 0001:00047cb0       ??1?$idList@UaasLocation_t@@@@QAE@XZ 10048cb0 f i Player.obj
 0001:00047cb0       ??1?$idList@UcontactInfo_t@@@@QAE@XZ 10048cb0 f i Physics_Base.obj
 0001:00047cb0       ??1?$idList@UcopyJoints_t@@@@QAE@XZ 10048cb0 f i Actor.obj
 0001:00047cb0       ??1?$idList@UframeCommand_t@@@@QAE@XZ 10048cb0 f i Anim_Blend.obj
 0001:00047cb0       ??1?$idList@UframeLookup_t@@@@QAE@XZ 10048cb0 f i Anim_Blend.obj
 0001:00047cb0       ??1?$idList@UjointInfo_t@@@@QAE@XZ 10048cb0 f i Anim_Blend.obj
 0001:00047cb0       ??1?$idList@UparticleEmitter_s@@@@QAE@XZ 10048cb0 f i AI.obj
 0001:00047cb0       ??1?$idList@Usignal_t@@@@QAE@XZ 10048cb0 f i Entity.obj
 0001:00047cb0       ??1?$idList@UstaticPState_s@@@@QAE@XZ 10048cb0 f i Physics_StaticMulti.obj
 0001:00047cb0       ??1?$idList@V?$idEntityPtr@VidEntity@@@@@@QAE@XZ 10048cb0 f i Physics_Base.obj
 0001:00047cb0       ??1?$idList@VidAFPoseJointMod@@@@QAE@XZ 10048cb0 f i Anim_Blend.obj
 0001:00047cb0       ??1?$idList@VidAngles@@@@QAE@XZ 10048cb0 f i AI.obj
 0001:00047cb0       ??1?$idList@VidAttachInfo@@@@QAE@XZ 10048cb0 f i Actor.obj
 0001:00047cb0       ??1?$idList@VidJointQuat@@@@QAE@XZ 10048cb0 f i Anim_Blend.obj
 0001:00047cb0       ??1?$idList@VidKeyValue@@@@QAE@XZ 10048cb0 f i AI.obj
 0001:00047cb0       ??1?$idList@VidVec3@@@@QAE@XZ 10048cb0 f i AI.obj
 0001:00047cb0       ??1?$idList@W4jointHandle_t@@@@QAE@XZ 10048cb0 f i AI.obj
 0001:00047cb0       ??1?$idList@_N@@QAE@XZ     10048cb0 f i BrittleFracture.obj
 0001:00047ce0       ??1idAASCallback@@UAE@XZ   10048ce0 f i AI.obj
 0001:00047ce0       ??1idAASFindAreaOutOfRange@@UAE@XZ 10048ce0 f i AI.obj
 0001:00047cf0       ??1idAASFindAttackPosition@@UAE@XZ 10048cf0 f   AI.obj
 0001:00047d40       ??1idAASFindCover@@UAE@XZ  10048d40 f   AI.obj
 0001:00047d90       ??1idAI@@UAE@XZ            10048d90 f   AI.obj
 0001:000481f0       ??1idDict@@QAE@XZ          100491f0 f i AI.obj
 0001:00048260       ??1idHashIndex@@QAE@XZ     10049260 f i AI.obj
 0001:00048290       ??1idPhysics_Monster@@UAE@XZ 10049290 f i AI.obj
 0001:00048290       ??1idPhysics_Player@@UAE@XZ 10049290 f i Player.obj
 0001:000482a0       ??4idMat3@@QAEAAV0@$$QAV0@@Z 100492a0 f i AI_events.obj
 0001:000482a0       ??4idMat3@@QAEAAV0@ABV0@@Z 100492a0 f i AI.obj
 0001:000482e0       ??H@YA?AVidStr@@ABV0@0@Z   100492e0 f i AI.obj
 0001:00048380       ??H@YA?AVidStr@@ABV0@PBD@Z 10049380 f i AI.obj
 0001:00048430       ??H@YA?AVidStr@@PBDABV0@@Z 10049430 f i AI.obj
 0001:00048520       ??_EidAASCallback@@UAEPAXI@Z 10049520 f i AI.obj
 0001:00048520       ??_GidAASCallback@@UAEPAXI@Z 10049520 f i AI.obj
 0001:00048550       ??_EidAASFindAreaOutOfRange@@UAEPAXI@Z 10049550 f i AI.obj
 0001:00048550       ??_GidAASFindAreaOutOfRange@@UAEPAXI@Z 10049550 f i AI.obj
 0001:00048580       ??_EidAASFindAttackPosition@@UAEPAXI@Z 10049580 f i AI.obj
 0001:00048580       ??_GidAASFindAttackPosition@@UAEPAXI@Z 10049580 f i AI.obj
 0001:000485f0       ??_EidAASFindCover@@UAEPAXI@Z 100495f0 f i AI.obj
 0001:000485f0       ??_GidAASFindCover@@UAEPAXI@Z 100495f0 f i AI.obj
 0001:00048660       ??_EidAI@@UAEPAXI@Z        10049660 f i AI.obj
 0001:00048660       ??_EidAI_Vagary@@UAEPAXI@Z 10049660 f i AI_Vagary.obj
 0001:00048660       ??_GidAI@@UAEPAXI@Z        10049660 f i AI.obj
 0001:00048660       ??_GidAI_Vagary@@UAEPAXI@Z 10049660 f i AI_Vagary.obj
 0001:000486a0       ??_EidCombatNode@@UAEPAXI@Z 100496a0 f i AI.obj
 0001:000486a0       ??_GidCombatNode@@UAEPAXI@Z 100496a0 f i AI.obj
 0001:000486e0       ?Activate@idAI@@QAEXPAVidEntity@@@Z 100496e0 f   AI.obj
 0001:00048830       ?AdjustFlyHeight@idAI@@IAEXAAVidVec3@@ABV2@@Z 10049830 f   AI.obj
 0001:00048ad0       ?AdjustFlyingAngles@idAI@@IAEXXZ 10049ad0 f   AI.obj
 0001:00048d60       ?AngleNormalize180@idMath@@SAMM@Z 10049d60 f i AI.obj
 0001:00048df0       ?AnimMove@idAI@@IAEXXZ     10049df0 f   AI.obj
 0001:000495a0       ?ApplyImpulse@idAI@@MAEXPAVidEntity@@HABVidVec3@@1@Z 1004a5a0 f   AI.obj
 0001:000495c0       ?AttackMelee@idAI@@IAE_NPBD@Z 1004a5c0 f   AI.obj
 0001:000499b0       ?BeginAttack@idAI@@IAEXPBD@Z 1004a9b0 f   AI.obj
 0001:000499e0       ?BlockedFailSafe@idAI@@IAEXXZ 1004a9e0 f   AI.obj
 0001:00049b50       ?CalculateAttackOffsets@idAI@@IAEXXZ 1004ab50 f   AI.obj
 0001:00049cd0       ?CanPlayChatterSounds@idAI@@MBE_NXZ 1004acd0 f   AI.obj
 0001:00049d40       ?CheckObstacleAvoidance@idAI@@IAEXABVidVec3@@AAV2@@Z 1004ad40 f   AI.obj
 0001:0004a220       ?Clear@?$idHashTable@UfuncEmitter_s@@@@QAEXXZ 1004b220 f i AI.obj
 0001:0004a2d0       ?ClearEnemy@idAI@@IAEXXZ   1004b2d0 f   AI.obj
 0001:0004a350       ?CloselyReachedPos@idAI@@IBE_NABVidVec3@@W4moveCommand_t@@@Z 1004b350 f   AI.obj
 0001:0004a430       ?CreateInstance@idCombatNode@@SAPAVidClass@@XZ 1004b430 f   AI.obj
 0001:0004a570       ?CreateProjectile@idAI@@IAEPAVidProjectile@@ABVidVec3@@0@Z 1004b570 f   AI.obj
 0001:0004a6b0       ?CreateProjectileClipModel@idAI@@IBEXXZ 1004b6b0 f   AI.obj
 0001:0004a7a0       ?DamageFeedback@idAI@@MAEXPAVidEntity@@0AAH@Z 1004b7a0 f   AI.obj
 0001:0004a820       ?DirectDamage@idAI@@IAEXPBDPAVidEntity@@@Z 1004b820 f   AI.obj
 0001:0004abf0       ?DirectMoveToPosition@idAI@@IAE_NABVidVec3@@@Z 1004bbf0 f   AI.obj
 0001:0004ad60       ?DistanceToEntity@idAI@@QAEMPAVidEntity@@@Z 1004bd60 f   AI.obj
 0001:0004ae80       ?DormantBegin@idAI@@MAEXXZ 1004be80 f   AI.obj
 0001:0004aee0       ?DormantEnd@idAI@@MAEXXZ   1004bee0 f   AI.obj
 0001:0004af90       ?DrawDebugInfo@idCombatNode@@SAXXZ 1004bf90 f   AI.obj
 0001:0004b670       ?DrawRoute@idAI@@IBEXXZ    1004c670 f   AI.obj
 0001:0004b6f0       ?EndAttack@idAI@@IAEXXZ    1004c6f0 f   AI.obj
 0001:0004b710       ?EnemyPositionValid@idAI@@IBE_NXZ 1004c710 f   AI.obj
 0001:0004b7f0       ?EntityCanSeePos@idAI@@IAE_NPAVidActor@@ABVidVec3@@1@Z 1004c7f0 f   AI.obj
 0001:0004b9d0       ?EntityInView@idCombatNode@@QAE_NPAVidActor@@ABVidVec3@@@Z 1004c9d0 f   AI.obj
 0001:0004bb80       ?FaceEnemy@idAI@@IAE_NXZ   1004cb80 f   AI.obj
 0001:0004bc70       ?FaceEntity@idAI@@IAE_NPAVidEntity@@@Z 1004cc70 f   AI.obj
 0001:0004bd70       ?FacingIdeal@idAI@@IAE_NXZ 1004cd70 f   AI.obj
 0001:0004be50       ?FlyMove@idAI@@IAEXXZ      1004ce50 f   AI.obj
 0001:0004c9d0       ?GetAimDir@idAI@@QBE_NABVidVec3@@PAVidEntity@@PBV3@AAV2@@Z 1004d9d0 f   AI.obj
 0001:0004ce80       ?GetBool@idDict@@QBE_NPBD0@Z 1004de80 f i AI.obj
 0001:0004cec0       ?GetEmitter@idAI@@IAEPAVidEntity@@PBD@Z 1004dec0 f   AI.obj
 0001:0004cf50       ?GetEnemy@idAI@@QBEPAVidActor@@XZ 1004df50 f   AI.obj
 0001:0004cf80       ?GetEntity@?$idEntityPtr@VidAFAttachment@@@@QBEPAVidAFAttachment@@XZ 1004df80 f i AI.obj
 0001:0004cf80       ?GetEntity@?$idEntityPtr@VidActor@@@@QBEPAVidActor@@XZ 1004df80 f i AI.obj
 0001:0004cf80       ?GetEntity@?$idEntityPtr@VidAnimatedEntity@@@@QBEPAVidAnimatedEntity@@XZ 1004df80 f i Weapon.obj
 0001:0004cf80       ?GetEntity@?$idEntityPtr@VidEntity@@@@QBEPAVidEntity@@XZ 1004df80 f i AI.obj
 0001:0004cf80       ?GetEntity@?$idEntityPtr@VidFuncEmitter@@@@QBEPAVidFuncEmitter@@XZ 1004df80 f i sbship.obj
 0001:0004cf80       ?GetEntity@?$idEntityPtr@VidLight@@@@QBEPAVidLight@@XZ 1004df80 f i Player.obj
 0001:0004cf80       ?GetEntity@?$idEntityPtr@VidPlayer@@@@QBEPAVidPlayer@@XZ 1004df80 f i AFEntity.obj
 0001:0004cf80       ?GetEntity@?$idEntityPtr@VidProjectile@@@@QBEPAVidProjectile@@XZ 1004df80 f i AI_events.obj
 0001:0004cf80       ?GetEntity@?$idEntityPtr@VidWeapon@@@@QBEPAVidWeapon@@XZ 1004df80 f i Grabber.obj
 0001:0004cfb0       ?GetFloat@idDict@@QBEMPBD0@Z 1004dfb0 f i AI.obj
 0001:0004cff0       ?GetMoveDelta@idAI@@IAEXABVidMat3@@0AAVidVec3@@@Z 1004dff0 f   AI.obj
 0001:0004d300       ?GetMovePos@idAI@@IAE_NAAVidVec3@@@Z 1004e300 f   AI.obj
 0001:0004d7b0       ?GetMuzzle@idAI@@IAEXPBDAAVidVec3@@AAVidMat3@@@Z 1004e7b0 f   AI.obj
 0001:0004d9f0       ?GetString@idDict@@QBE_NPBD0AAVidStr@@@Z 1004e9f0 f i AI.obj
 0001:0004da50       ?GetTalkState@idAI@@QBE?AW4talkState_t@@XZ 1004ea50 f   AI.obj
 0001:0004da90       ?GetType@idCombatNode@@UBEPAVidTypeInfo@@XZ 1004ea90 f   AI.obj
 0001:0004daa0       ?Gib@idAI@@UAEXABVidVec3@@PBD@Z 1004eaa0 f   AI.obj
 0001:0004dae0       ?HandleSpaceCommandLevel@idAI@@UAEXXZ 1004eae0 f   AI.obj
 0001:0004dd70       ?Hide@idAI@@MAEXXZ         1004ed70 f   AI.obj
 0001:0004ddf0       ?InitMuzzleFlash@idAI@@IAEXXZ 1004edf0 f   AI.obj
 0001:0004df50       ?InvSqrt@idMath@@SAMM@Z    1004ef50 f i AI.obj
 0001:0004dfe0       ?IsDisabled@idCombatNode@@QBE_NXZ 1004efe0 f   AI.obj
 0001:0004dff0       ?IsType@idClass@@QBE_NABVidTypeInfo@@@Z 1004eff0 f i AI.obj
 0001:0004e010       ?KickObstacles@idAI@@IAEXABVidVec3@@MPAVidEntity@@@Z 1004f010 f   AI.obj
 0001:0004e6d0       ?Killed@idAI@@MAEXPAVidEntity@@0HABVidVec3@@H@Z 1004f6d0 f   AI.obj
 0001:00050260       ?LaunchProjectile@idAI@@IAEPAVidProjectile@@PBDPAVidEntity@@_N@Z 10051260 f   AI.obj
 0001:000510b0       ?Length@idVec3@@QBEMXZ     100520b0 f i AI.obj
 0001:00051160       ?LinkScriptVariables@idAI@@IAEXXZ 10052160 f   AI.obj
 0001:00051500       ?List_f@idAI@@SAXABVidCmdArgs@@@Z 10052500 f   AI.obj
 0001:000515d0       ?MoveCloseToEntity@idAI@@QAE_NPAVidEntity@@@Z 100525d0 f   AI.obj
 0001:00051ab0       ?MoveDone@idAI@@IBE_NXZ    10052ab0 f   AI.obj
 0001:00051ac0       ?MoveOutOfRange@idAI@@IAE_NPAVidEntity@@M@Z 10052ac0 f   AI.obj
 0001:00051d80       ?MoveToAttackPosition@idAI@@IAE_NPAVidEntity@@H@Z 10052d80 f   AI.obj
 0001:00052060       ?MoveToCover@idAI@@IAE_NPAVidEntity@@ABVidVec3@@@Z 10053060 f   AI.obj
 0001:00052350       ?MoveToEnemy@idAI@@IAE_NXZ 10053350 f   AI.obj
 0001:00052660       ?MoveToEnemyHeight@idAI@@IAE_NXZ 10053660 f   AI.obj
 0001:00052760       ?MoveToEntity@idAI@@QAE_NPAVidEntity@@@Z 10053760 f   AI.obj
 0001:00052c80       ?MoveToPosition@idAI@@IAE_NABVidVec3@@@Z 10053c80 f   AI.obj
 0001:00052ed0       ?NewWanderDir@idAI@@IAE_NABVidVec3@@@Z 10053ed0 f   AI.obj
 0001:00053320       ?Pain@idAI@@MAE_NPAVidEntity@@0HABVidVec3@@H@Z 10054320 f   AI.obj
 0001:00053450       ?PathToGoal@idAI@@IBE_NAAUaasPath_s@@HABVidVec3@@H1@Z 10054450 f   AI.obj
 0001:00053530       ?PlayChatter@idAI@@IAEXXZ  10054530 f   AI.obj
 0001:000535d0       ?PlayCinematic@idAI@@IAEXXZ 100545d0 f   AI.obj
 0001:000538b0       ?PointReachableAreaNum@idAI@@IBEHABVidVec3@@M@Z 100548b0 f   AI.obj
 0001:00053970       ?PushWithAF@idAI@@IAEXXZ   10054970 f   AI.obj
 0001:00053bd0       ?ReachedPos@idAI@@IBE_NABVidVec3@@W4moveCommand_t@@@Z 10054bd0 f   AI.obj
 0001:00053d70       ?ReactionTo@idAI@@IAEHPBVidEntity@@@Z 10054d70 f   AI.obj
 0001:00053e10       ?Resize@?$idList@UparticleEmitter_s@@@@QAEXH@Z 10054e10 f i AI.obj
 0001:00053ef0       ?Resize@?$idList@VidAngles@@@@QAEXH@Z 10054ef0 f i AI.obj
 0001:00053ef0       ?Resize@?$idList@VidVec3@@@@QAEXH@Z 10054ef0 f i AI.obj
 0001:00053fa0       ?Restore@idAI@@QAEXPAVidRestoreGame@@@Z 10054fa0 f   AI.obj
 0001:00054b10       ?Restore@idCombatNode@@QAEXPAVidRestoreGame@@@Z 10055b10 f   AI.obj
 0001:00054ba0       ?Restore@idMoveState@@QAEXPAVidRestoreGame@@@Z 10055ba0 f   AI.obj
 0001:00054c80       ?ReturnNearestDamagedShipModule@idAI@@QAEPAVsbModule@@XZ 10055c80 f   AI.obj
 0001:00054d70       ?ReturnNearestRoomNode@idAI@@QAEPAVidEntity@@XZ 10055d70 f   AI.obj
 0001:00054ec0       ?ReturnNearestRoomNodeToThePlayer@idAI@@QAEPAVidEntity@@XZ 10055ec0 f   AI.obj
 0001:00055090       ?ReturnNearestShipModule@idAI@@QAEPAVsbModule@@XZ 10056090 f   AI.obj
 0001:00055170       ?ReturnNearestUnDisabledShipModule@idAI@@QAEPAVsbModule@@XZ 10056170 f   AI.obj
 0001:00055260       ?Save@idAI@@QBEXPAVidSaveGame@@@Z 10056260 f   AI.obj
 0001:00055c60       ?Save@idCombatNode@@QBEXPAVidSaveGame@@@Z 10056c60 f   AI.obj
 0001:00055d10       ?Save@idMoveState@@QBEXPAVidSaveGame@@@Z 10056d10 f   AI.obj
 0001:00055e00       ?Set@?$idHashTable@UfuncEmitter_s@@@@QAEXPBDAAUfuncEmitter_s@@@Z 10056e00 f i AI.obj
 0001:00055fe0       ?SetAAS@idAI@@IAEXXZ       10056fe0 f   AI.obj
 0001:00056150       ?SetChatSound@idAI@@IAEXXZ 10057150 f   AI.obj
 0001:00056380       ?SetEnemy@idAI@@QAEXPAVidActor@@@Z 10057380 f   AI.obj
 0001:00056510       ?SetEnemyPosition@idAI@@IAEXXZ 10057510 f   AI.obj
 0001:000568d0       ?SetEntityToMoveToByCommand@idAI@@QAEXPAVidEntity@@@Z 100578d0 f   AI.obj
 0001:00056940       ?Show@idAI@@MAEXXZ         10057940 f   AI.obj
 0001:00056a20       ?Sin16@idMath@@SAMM@Z      10057a20 f i AI.obj
 0001:00056b20       ?SlideMove@idAI@@IAEXXZ    10057b20 f   AI.obj
 0001:00057370       ?SlideToPosition@idAI@@IAE_NABVidVec3@@M@Z 10058370 f   AI.obj
 0001:00057540       ?Spawn@idAI@@QAEXXZ        10058540 f   AI.obj
 0001:000586c0       ?Spawn@idCombatNode@@QAEXXZ 100596c0 f   AI.obj
 0001:00058910       ?SpawnParticles@idAI@@IAEXPBD@Z 10059910 f   AI.obj
 0001:00058d80       ?StartEmitter@idAI@@IAEPAVidEntity@@PBD00@Z 10059d80 f   AI.obj
 0001:00059020       ?StaticMove@idAI@@IAEXXZ   1005a020 f   AI.obj
 0001:00059360       ?StepDirection@idAI@@IAE_NM@Z 1005a360 f   AI.obj
 0001:00059760       ?StopEmitter@idAI@@IAEXPBD@Z 1005a760 f   AI.obj
 0001:000598e0       ?StopMove@idAI@@IAEXW4moveStatus_t@@@Z 1005a8e0 f   AI.obj
 0001:00059a10       ?TalkTo@idAI@@QAEXPAVidActor@@@Z 1005aa10 f   AI.obj
 0001:00059a90       ?TestArea@idAASFindAreaOutOfRange@@UAE_NPBVidAAS@@H@Z 1005aa90 f   AI.obj
 0001:00059b60       ?TestArea@idAASFindAttackPosition@@UAE_NPBVidAAS@@H@Z 1005ab60 f   AI.obj
 0001:00059e40       ?TestArea@idAASFindCover@@UAE_NPBVidAAS@@H@Z 1005ae40 f   AI.obj
 0001:00059f00       ?TestMelee@idAI@@IBE_NXZ   1005af00 f   AI.obj
 0001:0005a1d0       ?Think@idAI@@MAEXXZ        1005b1d0 f   AI.obj
 0001:0005a730       ?TouchedByFlashlight@idAI@@QAEXPAVidActor@@@Z 1005b730 f   AI.obj
 0001:0005a880       ?TravelDistance@idAI@@IBEMABVidVec3@@0@Z 1005b880 f   AI.obj
 0001:0005ac20       ?TriggerFX@idAI@@IAEXPBD0@Z 1005bc20 f   AI.obj
 0001:0005acc0       ?TriggerParticles@idAI@@IAEXPBD@Z 1005bcc0 f   AI.obj
 0001:0005ad20       ?TriggerWeaponEffects@idAI@@IAEXABVidVec3@@@Z 1005bd20 f   AI.obj
 0001:0005ae40       ?Turn@idAI@@IAEXXZ         1005be40 f   AI.obj
 0001:0005b370       ?TurnToward@idAI@@IAE_NABVidVec3@@@Z 1005c370 f   AI.obj
 0001:0005b510       ?TurnToward@idAI@@IAE_NM@Z 1005c510 f   AI.obj
 0001:0005b5a0       ?UpdateAIScript@idAI@@IAEXXZ 1005c5a0 f   AI.obj
 0001:0005b600       ?UpdateAnimationControllers@idAI@@MAE_NXZ 1005c600 f   AI.obj
 0001:0005cc30       ?UpdateEnemyPosition@idAI@@IAEXXZ 1005dc30 f   AI.obj
 0001:0005cef0       ?UpdateMuzzleFlash@idAI@@IAEXXZ 1005def0 f   AI.obj
 0001:0005d170       ?UpdateParticles@idAI@@IAEXXZ 1005e170 f   AI.obj
 0001:0005d870       ?WanderAround@idAI@@IAE_NXZ 1005e870 f   AI.obj
 0001:0005da60       ?_Xran@?$bitset@$0EA@@std@@CAXXZ 1005ea60 f i Player.obj
 0001:0005da60       ?_Xran@?$bitset@$0IA@@std@@CAXXZ 1005ea60 f i AI.obj
 0001:0005da70       ??1element_s@?$idBlockAlloc@UentityState_s@@$0BAA@@@QAE@XZ 1005ea70 f i Game_local.obj
 0001:0005da70       ?Activate@idPhysics_Base@@UAEXXZ 1005ea70 f i Physics_Base.obj
 0001:0005da70       ?Activate@idPhysics_Static@@UAEXXZ 1005ea70 f i Physics_Static.obj
 0001:0005da70       ?Activate@idPhysics_StaticMulti@@UAEXXZ 1005ea70 f i Physics_StaticMulti.obj
 0001:0005da70       ?ClaimUnnoccupiedPlayerSkyPortalEntity@sbStationarySpaceEntity@@UAEXXZ 1005ea70 f i sbship.obj
 0001:0005da70       ?ClaimUnnoccupiedSkyPortalEntity@sbStationarySpaceEntity@@UAEXXZ 1005ea70 f i sbship.obj
 0001:0005da70       ?ClearContacts@idPhysics_Static@@UAEXXZ 1005ea70 f i Physics_Static.obj
 0001:0005da70       ?ClearContacts@idPhysics_StaticMulti@@UAEXXZ 1005ea70 f i Physics_StaticMulti.obj
 0001:0005da70       ?DebugDraw@idAFConstraint@@UAEXXZ 1005ea70 f i Physics_AF.obj
 0001:0005da70       ?DebugDraw@idAFConstraint_ContactFriction@@UAEXXZ 1005ea70 f i Physics_AF.obj
 0001:0005da70       ?DisableClip@idPhysics_Base@@UAEXXZ 1005ea70 f i Physics_Base.obj
 0001:0005da70       ?DoStuffAfterAllMapEntitiesHaveSpawned@idEntity@@UAEXXZ 1005ea70 f i Entity.obj
 0001:0005da70       ?DoStuffAfterAllMapEntitiesHaveSpawned@sbCaptainChair@@UAEXXZ 1005ea70 f i sbship.obj
 0001:0005da70       ?DoStuffAfterAllMapEntitiesHaveSpawned@sbModule@@UAEXXZ 1005ea70 f i sbModule.obj
 0001:0005da70       ?DoStuffAfterAllMapEntitiesHaveSpawned@sbTransporterPad@@UAEXXZ 1005ea70 f i sbship.obj
 0001:0005da70       ?DoStuffAfterPlayerHasSpawned@idEntity@@UAEXXZ 1005ea70 f i Entity.obj
 0001:0005da70       ?DormantBegin@idEntity@@UAEXXZ 1005ea70 f i Entity.obj
 0001:0005da70       ?DormantEnd@idEntity@@UAEXXZ 1005ea70 f i Entity.obj
 0001:0005da70       ?EnableClip@idPhysics_Base@@UAEXXZ 1005ea70 f i Physics_Base.obj
 0001:0005da70       ?Evaluate@idIK@@UAEXXZ     1005ea70 f i IK.obj
 0001:0005da70       ?Event_DropToFloor@idMoveableItem@@AAEXXZ 1005ea70 f i Item.obj
 0001:0005da70       ?Event_Gibbed@idPlayer@@AAEXXZ 1005ea70 f i Player.obj
 0001:0005da70       ?FindUninitializedMemory@idClass@@QAEXXZ 1005ea70 f i Class.obj
 0001:0005da70       ?FreeLightDef@idEntity@@UAEXXZ 1005ea70 f i Entity.obj
 0001:0005da70       ?HandleSpaceCommandLevel@idActor@@UAEXXZ 1005ea70 f i Actor.obj
 0001:0005da70       ?Initialize@FullscreenFX_InfluenceVision@@UAEXXZ 1005ea70 f i PlayerView.obj
 0001:0005da70       ?LinkClip@idPhysics_Base@@UAEXXZ 1005ea70 f i Physics_Base.obj
 0001:0005da70       ?LowQuality@FullscreenFX@@UAEXXZ 1005ea70 f i PlayerView.obj
 0001:0005da70       ?Mem_EnableLeakTest@@YAXPBD@Z 1005ea70 f i idLib:Heap.obj
 0001:0005da70       ?PostBind@idEntity@@UAEXXZ 1005ea70 f i Entity.obj
 0001:0005da70       ?PostUnbind@idEntity@@UAEXXZ 1005ea70 f i Entity.obj
 0001:0005da70       ?PreBind@idEntity@@UAEXXZ  1005ea70 f i Entity.obj
 0001:0005da70       ?PreUnbind@idEntity@@UAEXXZ 1005ea70 f i Entity.obj
 0001:0005da70       ?PutToRest@idPhysics_Base@@UAEXXZ 1005ea70 f i Physics_Base.obj
 0001:0005da70       ?PutToRest@idPhysics_Static@@UAEXXZ 1005ea70 f i Physics_Static.obj
 0001:0005da70       ?PutToRest@idPhysics_StaticMulti@@UAEXXZ 1005ea70 f i Physics_StaticMulti.obj
 0001:0005da70       ?RecieveVolley@idEntity@@UAEXXZ 1005ea70 f i Entity.obj
 0001:0005da70       ?RestoreState@idPhysics_Base@@UAEXXZ 1005ea70 f i Physics_Base.obj
 0001:0005da70       ?RestoreState@idPhysics_Static@@UAEXXZ 1005ea70 f i Physics_Static.obj
 0001:0005da70       ?RestoreState@idPhysics_StaticMulti@@UAEXXZ 1005ea70 f i Physics_StaticMulti.obj
 0001:0005da70       ?RevBitFieldNoSwap@@YAXPAXH@Z 1005ea70 f i idLib:Lib.obj
 0001:0005da70       ?RevBytesNoSwap@@YAXPAXHH@Z 1005ea70 f i idLib:Lib.obj
 0001:0005da70       ?SaveState@idPhysics_Base@@UAEXXZ 1005ea70 f i Physics_Base.obj
 0001:0005da70       ?SaveState@idPhysics_Static@@UAEXXZ 1005ea70 f i Physics_Static.obj
 0001:0005da70       ?SaveState@idPhysics_StaticMulti@@UAEXXZ 1005ea70 f i Physics_StaticMulti.obj
 0001:0005da70       ?ShowEditingDialog@idEntity@@UAEXXZ 1005ea70 f i Entity.obj
 0001:0005da70       ?Spawn@idCamera@@QAEXXZ    1005ea70 f i Camera.obj
 0001:0005da70       ?Spawn@idClass@@QAEXXZ     1005ea70 f i Class.obj
 0001:0005da70       ?Spawn@idCursor3D@@QAEXXZ  1005ea70 f i GameEdit.obj
 0001:0005da70       ?Spawn@idFuncSplat@@QAEXXZ 1005ea70 f i Misc.obj
 0001:0005da70       ?Spawn@idGuidedProjectile@@QAEXXZ 1005ea70 f i Projectile.obj
 0001:0005da70       ?Spawn@idItemRemover@@QAEXXZ 1005ea70 f i Item.obj
 0001:0005da70       ?Spawn@idLiquid@@QAEXXZ    1005ea70 f i Misc.obj
 0001:0005da70       ?Spawn@idPathCorner@@QAEXXZ 1005ea70 f i Misc.obj
 0001:0005da70       ?Spawn@idSpawnableEntity@@QAEXXZ 1005ea70 f i Misc.obj
 0001:0005da70       ?Spawn@idSplinePath@@QAEXXZ 1005ea70 f i Mover.obj
 0001:0005da70       ?Spawn@idTarget_GiveEmail@@QAEXXZ 1005ea70 f i Target.obj
 0001:0005da70       ?Spawn@idTarget_Tip@@QAEXXZ 1005ea70 f i Target.obj
 0001:0005da70       ?Spawn@idVideoCDItem@@QAEXXZ 1005ea70 f i Item.obj
 0001:0005da70       ?Spawn@sbTransporterPad@@UAEXXZ 1005ea70 f i sbship.obj
 0001:0005da70       ?Think@idWeapon@@UAEXXZ    1005ea70 f i Weapon.obj
 0001:0005da70       ?UnlinkClip@idPhysics_Base@@UAEXXZ 1005ea70 f i Physics_Base.obj
 0001:0005da70       ?_Lock@?$basic_streambuf@DU?$char_traits@D@std@@@std@@UAEXXZ 1005ea70 f i sbship.obj
 0001:0005da70       ?_Unlock@?$basic_streambuf@DU?$char_traits@D@std@@@std@@UAEXXZ 1005ea70 f i sbship.obj
 0001:0005da70       ?__empty_global_delete@@YAXPAXI@Z 1005ea70 f i AI.obj
 0001:0005da70       ?__global_delete@@YAXPAXI@Z 1005ea70 f i AI.obj
 0001:0005da70       @_guard_check_icall_nop@4  1005ea70 f i libcmt:guard_support.obj
 0001:0005da80       ?Event_Activate@idAI@@IAEXPAVidEntity@@@Z 1005ea80 f   AI_events.obj
 0001:0005da90       ?Event_Touch@idAI@@IAEXPAVidEntity@@PAUtrace_s@@@Z 1005ea90 f   AI_events.obj
 0001:0005daf0       ?Event_FindEnemy@idAI@@IAEXH@Z 1005eaf0 f   AI_events.obj
 0001:0005db80       ?Event_FindFoodProjectile@idAI@@IAEXH@Z 1005eb80 f   AI_events.obj
 0001:0005dc00       ?Event_FindEnemyAI@idAI@@IAEXH@Z 1005ec00 f   AI_events.obj
 0001:0005ddd0       ?Event_FindNearestShipConsole@idAI@@IAEXH@Z 1005edd0 f   AI_events.obj
 0001:0005e080       ?Event_FindNearestShipModule@idAI@@IAEXH@Z 1005f080 f   AI_events.obj
 0001:0005e350       ?Event_GetEntityHealth@idAI@@IAEXPAVidEntity@@@Z 1005f350 f   AI_events.obj
 0001:0005e390       ?Event_GetEntityMaxHealth@idAI@@IAEXPAVidEntity@@@Z 1005f390 f   AI_events.obj
 0001:0005e3d0       ?Event_IsFriendly@idAI@@IAEXPAVidEntity@@@Z 1005f3d0 f   AI_events.obj
 0001:0005e400       ?Event_ConsolesModuleIsBuffed@idAI@@IAEXPAVidEntity@@@Z 1005f400 f   AI_events.obj
 0001:0005e460       ?Event_BuffConsolesModule@idAI@@IAEXPAVidEntity@@@Z 1005f460 f   AI_events.obj
 0001:0005e4a0       ?Event_CreateBeamToEnt@idAI@@IAEXPAVidEntity@@@Z 1005f4a0 f   AI_events.obj
 0001:0005e800       ?Event_RemoveBeamToEnt@idAI@@IAEXXZ 1005f800 f   AI_events.obj
 0001:0005e850       ?Event_ReturnModuleConsoleDamageDefName@idAI@@IAEXXZ 1005f850 f   AI_events.obj
 0001:0005e860       ?Event_ReturnModuleConsoleRepairDefName@idAI@@IAEXXZ 1005f860 f   AI_events.obj
 0001:0005e870       ?Event_ReturnDoorDamageDefName@idAI@@IAEXXZ 1005f870 f   AI_events.obj
 0001:0005e880       ?Event_ShipOnBoardIsAtRedAlert@idAI@@IAEXXZ 1005f880 f   AI_events.obj
 0001:0005e8b0       ?Event_FindNearestCaptainChair@idAI@@IAEXH@Z 1005f8b0 f   AI_events.obj
 0001:0005eb50       ?Event_SitDownInCaptainChair@idAI@@IAEXPAVidEntity@@@Z 1005fb50 f   AI_events.obj
 0001:0005ed10       ?Event_StandUpFromCaptainChair@idAI@@IAEXPAVidEntity@@@Z 1005fd10 f   AI_events.obj
 0001:0005efa0       ?Event_IsSeatedInCaptainChair@idAI@@IAEXXZ 1005ffa0 f   AI_events.obj
 0001:0005efc0       ?Event_StartWorkingOnConsole@idAI@@IAEXPAVidEntity@@@Z 1005ffc0 f   AI_events.obj
 0001:0005f240       ?Event_StopWorkingOnConsole@idAI@@IAEXPAVidEntity@@@Z 10060240 f   AI_events.obj
 0001:0005f580       ?Event_IsWorkingOnConsole@idAI@@IAEXXZ 10060580 f   AI_events.obj
 0001:0005f5a0       ?Event_GetSittingAnimName@idAI@@IAEXXZ 100605a0 f   AI_events.obj
 0001:0005f5b0       ?Event_HideDefAttach@idAI@@IAEXXZ 100605b0 f   AI_events.obj
 0001:0005f660       ?Event_ShowDefAttach@idAI@@IAEXXZ 10060660 f   AI_events.obj
 0001:0005f760       ?Event_IsDefAttachHidden@idAI@@IAEXXZ 10060760 f   AI_events.obj
 0001:0005f7b0       ?Event_ActivateHideWeaponSkin@idAI@@IAEXXZ 100607b0 f   AI_events.obj
 0001:0005f7e0       ?Event_DeactivateHideWeaponSkin@idAI@@IAEXXZ 100607e0 f   AI_events.obj
 0001:0005f8d0       ?Event_IsHideWeaponSkinActive@idAI@@IAEXXZ 100608d0 f   AI_events.obj
 0001:0005f8f0       ?Event_UpdateCrewAutoModeBehavior@idAI@@IAEXXZ 100608f0 f   AI_events.obj
 0001:0005fae0       ?Event_IsMyCaptainChair@idAI@@IAEXPAVidEntity@@@Z 10060ae0 f   AI_events.obj
 0001:0005fb70       ?Event_FaceForwardOfEntity@idAI@@IAEXPAVidEntity@@@Z 10060b70 f   AI_events.obj
 0001:0005fc50       ?Event_FaceAbsoluteCenterOfEntity@idAI@@IAEXPAVidEntity@@@Z 10060c50 f   AI_events.obj
 0001:0005fcd0       ?Event_BeginAIDialogueWithPlayer@idAI@@IAEXXZ 10060cd0 f   AI_events.obj
 0001:0005fd10       ?Event_EndAIDialogueWithPlayer@idAI@@IAEXXZ 10060d10 f   AI_events.obj
 0001:0005fd60       ?Event_UsesSpaceCommandDialogueBehavior@idAI@@IAEXXZ 10060d60 f   AI_events.obj
 0001:0005fd80       ?Event_InAIDialogueWithPlayer@idAI@@IAEXXZ 10060d80 f   AI_events.obj
 0001:0005fda0       ?Event_ReturnAIDialogueAnimToPlay@idAI@@IAEXXZ 10060da0 f   AI_events.obj
 0001:0005fdc0       ?Event_ClearAIDialogueAnimToPlay@idAI@@IAEXXZ 10060dc0 f   AI_events.obj
 0001:0005fde0       ?Event_WaitingUntilPlayerTalksToMe@idAI@@IAEXXZ 10060de0 f   AI_events.obj
 0001:0005fdf0       ?Event_FindNearestFoodProjectile@idAI@@IAEXH@Z 10060df0 f   AI_events.obj
 0001:0005ff80       ?Event_FindEnemyInCombatNodes@idAI@@IAEXXZ 10060f80 f   AI_events.obj
 0001:000600c0       ?Event_ClosestReachableEnemyOfEntity@idAI@@IAEXPAVidEntity@@@Z 100610c0 f   AI_events.obj
 0001:00060250       ?Event_HeardSound@idAI@@IAEXH@Z 10061250 f   AI_events.obj
 0001:00060340       ?Event_SetEnemy@idAI@@IAEXPAVidEntity@@@Z 10061340 f   AI_events.obj
 0001:00060340       ?Event_SetFoodProjectile@idAI@@IAEXPAVidEntity@@@Z 10061340 f   AI_events.obj
 0001:000603a0       ?Event_ReturnEntityCommandedToMoveTo@idAI@@IAEXXZ 100613a0 f   AI_events.obj
 0001:000603b0       ?Event_ClearEntityToMoveToByCommand@idAI@@IAEXXZ 100613b0 f   AI_events.obj
 0001:000603c0       ?Event_ReturnEnemyDoorToAttack@idAI@@IAEXXZ 100613c0 f   AI_events.obj
 0001:000603d0       ?Event_ClearEnemyDoorToAttack@idAI@@IAEXXZ 100613d0 f   AI_events.obj
 0001:000603e0       ?Event_ClearEnemy@idAI@@IAEXXZ 100613e0 f   AI_events.obj
 0001:000603f0       ?Event_MuzzleFlash@idAI@@IAEXPBD@Z 100613f0 f   AI_events.obj
 0001:00060420       ?Event_CreateMissile@idAI@@IAEXPBD@Z 10061420 f   AI_events.obj
 0001:000605a0       ?Event_AttackMissile@idAI@@IAEXPBD@Z 100615a0 f   AI_events.obj
 0001:000605e0       ?Event_FireMissileAtTarget@idAI@@IAEXPBD0@Z 100615e0 f   AI_events.obj
 0001:00060630       ?Event_LaunchMissile@idAI@@IAEXABVidVec3@@ABVidAngles@@@Z 10061630 f   AI_events.obj
 0001:000609e0       ?Event_LaunchProjectile@idAI@@IAEXPBD@Z 100619e0 f   AI_events.obj
 0001:00060cf0       ?Event_AttackMelee@idAI@@IAEXPBD@Z 10061cf0 f   AI_events.obj
 0001:00060d10       ?Event_DirectDamage@idAI@@IAEXPAVidEntity@@PBD@Z 10061d10 f   AI_events.obj
 0001:00060d20       ?Event_RadiusDamageFromJoint@idAI@@IAEXPBD0@Z 10061d20 f   AI_events.obj
 0001:00060de0       ?Event_BeginAttack@idAI@@IAEXPBD@Z 10061de0 f   AI_events.obj
 0001:00060df0       ?Event_EndAttack@idAI@@IAEXXZ 10061df0 f   AI_events.obj
 0001:00060e00       ?Event_MeleeAttackToJoint@idAI@@IAEXPBD0@Z 10061e00 f   AI_events.obj
 0001:00061120       ?Event_RandomPath@idAI@@IAEXXZ 10062120 f   AI_events.obj
 0001:00061120       ?Event_RandomPath@idPathCorner@@AAEXXZ 10062120 f   Misc.obj
 0001:00061140       ?Event_CanBecomeSolid@idAI@@IAEXXZ 10062140 f   AI_events.obj
 0001:000613b0       ?Event_BecomeSolid@idAI@@IAEXXZ 100623b0 f   AI_events.obj
 0001:00061480       ?Event_BecomeNonSolid@idAI@@IAEXXZ 10062480 f   AI_events.obj
 0001:000614b0       ?Event_BecomeRagdoll@idAI@@IAEXXZ 100624b0 f   AI_events.obj
 0001:000614c0       ?Event_StopRagdoll@idAI@@IAEXXZ 100624c0 f   AI_events.obj
 0001:000614e0       ?Event_SetHealth@idAI@@IAEXM@Z 100624e0 f   AI_events.obj
 0001:00061510       ?Event_GetHealth@idAI@@IAEXXZ 10062510 f   AI_events.obj
 0001:00061530       ?Event_AllowDamage@idAI@@IAEXXZ 10062530 f   AI_events.obj
 0001:00061540       ?Event_IgnoreDamage@idAI@@IAEXXZ 10062540 f   AI_events.obj
 0001:00061550       ?Event_GetCurrentYaw@idAI@@IAEXXZ 10062550 f   AI_events.obj
 0001:00061570       ?Event_TurnTo@idAI@@IAEXM@Z 10062570 f   AI_events.obj
 0001:00061590       ?Event_TurnToPos@idAI@@IAEXABVidVec3@@@Z 10062590 f   AI_events.obj
 0001:000615a0       ?Event_TurnToEntity@idAI@@IAEXPAVidEntity@@@Z 100625a0 f   AI_events.obj
 0001:000615d0       ?Event_MoveStatus@idAI@@IAEXXZ 100625d0 f   AI_events.obj
 0001:000615e0       ?Event_StopMove@idAI@@IAEXXZ 100625e0 f   AI_events.obj
 0001:000615f0       ?Event_MoveToCover@idAI@@IAEXXZ 100625f0 f   AI_events.obj
 0001:00061640       ?Event_MoveToEnemy@idAI@@IAEXXZ 10062640 f   AI_events.obj
 0001:00061680       ?Event_MoveToEnemyHeight@idAI@@IAEXXZ 10062680 f   AI_events.obj
 0001:000616a0       ?Event_MoveOutOfRange@idAI@@IAEXPAVidEntity@@M@Z 100626a0 f   AI_events.obj
 0001:000616d0       ?Event_MoveToAttackPosition@idAI@@IAEXPAVidEntity@@PBD@Z 100626d0 f   AI_events.obj
 0001:00061720       ?Event_MoveToEntity@idAI@@IAEXPAVidEntity@@@Z 10062720 f   AI_events.obj
 0001:00061740       ?Event_MoveCloseToEntity@idAI@@IAEXPAVidEntity@@@Z 10062740 f   AI_events.obj
 0001:00061760       ?Event_MoveToPosition@idAI@@IAEXABVidVec3@@@Z 10062760 f   AI_events.obj
 0001:00061780       ?Event_SlideTo@idAI@@IAEXABVidVec3@@M@Z 10062780 f   AI_events.obj
 0001:000617a0       ?Event_Wander@idAI@@IAEXXZ 100627a0 f   AI_events.obj
 0001:000617b0       ?Event_FacingIdeal@idAI@@IAEXXZ 100627b0 f   AI_events.obj
 0001:000617c0       ?Event_FaceEnemy@idAI@@IAEXXZ 100627c0 f   AI_events.obj
 0001:000617d0       ?Event_FaceEntity@idAI@@IAEXPAVidEntity@@@Z 100627d0 f   AI_events.obj
 0001:000617e0       ?Event_WaitAction@idAI@@IAEXPBD@Z 100627e0 f   AI_events.obj
 0001:00061820       ?Event_GetCombatNode@idAI@@IAEXXZ 10062820 f   AI_events.obj
 0001:00061b70       ?Event_EnemyInCombatCone@idAI@@IAEXPAVidEntity@@H@Z 10062b70 f   AI_events.obj
 0001:00061c80       ?Event_WaitMove@idAI@@IAEXXZ 10062c80 f   AI_events.obj
 0001:00061cb0       ?Event_GetJumpVelocity@idAI@@IAEXABVidVec3@@MM@Z 10062cb0 f   AI_events.obj
 0001:00061eb0       ?Event_EntityInAttackCone@idAI@@IAEXPAVidEntity@@@Z 10062eb0 f   AI_events.obj
 0001:000620a0       ?Event_CanSeeEntity@idAI@@IAEXPAVidEntity@@@Z 100630a0 f   AI_events.obj
 0001:000620d0       ?Event_SetTalkTarget@idAI@@IAEXPAVidEntity@@@Z 100630d0 f   AI_events.obj
 0001:00062160       ?Event_GetTalkTarget@idAI@@IAEXXZ 10063160 f   AI_events.obj
 0001:000621a0       ?Event_SetTalkState@idAI@@IAEXH@Z 100631a0 f   AI_events.obj
 0001:000621d0       ?Event_EnemyRange@idAI@@IAEXXZ 100631d0 f   AI_events.obj
 0001:00062310       ?Event_EnemyRange2D@idAI@@IAEXXZ 10063310 f   AI_events.obj
 0001:00062440       ?Event_GetEnemy@idAI@@IAEXXZ 10063440 f   AI_events.obj
 0001:00062480       ?Event_GetEnemyPos@idAI@@IAEXXZ 10063480 f   AI_events.obj
 0001:00062490       ?Event_GetEnemyEyePos@idAI@@IAEXXZ 10063490 f   AI_events.obj
 0001:000624f0       ?Event_GetFoodProjectile@idAI@@IAEXXZ 100634f0 f   AI_events.obj
 0001:00062530       ?Event_PredictEnemyPos@idAI@@IAEXM@Z 10063530 f   AI_events.obj
 0001:00062630       ?Event_CanHitEnemy@idAI@@IAEXXZ 10063630 f   AI_events.obj
 0001:00062810       ?Event_CanHitEnemyFromAnim@idAI@@IAEXPBD@Z 10063810 f   AI_events.obj
 0001:00062fc0       ?Event_CanHitEnemyFromJoint@idAI@@IAEXPBD@Z 10063fc0 f   AI_events.obj
 0001:00063490       ?Event_EnemyPositionValid@idAI@@IAEXXZ 10064490 f   AI_events.obj
 0001:000634a0       ?Event_ChargeAttack@idAI@@IAEXPBD@Z 100644a0 f   AI_events.obj
 0001:000635f0       ?Event_TestChargeAttack@idAI@@IAEXXZ 100645f0 f   AI_events.obj
 0001:000638c0       ?Event_TestAnimMoveTowardEnemy@idAI@@IAEXPBD@Z 100648c0 f   AI_events.obj
 0001:00063c20       ?Event_TestAnimMove@idAI@@IAEXPBD@Z 10064c20 f   AI_events.obj
 0001:00063f10       ?Event_TestMoveToPosition@idAI@@IAEXABVidVec3@@@Z 10064f10 f   AI_events.obj
 0001:00064060       ?Event_TestMeleeAttack@idAI@@IAEXXZ 10065060 f   AI_events.obj
 0001:00064070       ?Event_TestAnimAttack@idAI@@IAEXPBD@Z 10065070 f   AI_events.obj
 0001:00064160       ?Event_Shrivel@idAI@@IAEXM@Z 10065160 f   AI_events.obj
 0001:00064230       ?Event_Burn@idAI@@IAEXXZ   10065230 f   AI_events.obj
 0001:00064260       ?Event_PreBurn@idAI@@IAEXXZ 10065260 f   AI_events.obj
 0001:00064270       ?Event_ClearBurn@idAI@@IAEXXZ 10065270 f   AI_events.obj
 0001:000642c0       ?Event_SetSmokeVisibility@idAI@@IAEXHH@Z 100652c0 f   AI_events.obj
 0001:00064360       ?Event_NumSmokeEmitters@idAI@@IAEXXZ 10065360 f   AI_events.obj
 0001:00064370       ?Event_StopThinking@idAI@@IAEXXZ 10065370 f   AI_events.obj
 0001:00064390       ?Event_GetTurnDelta@idAI@@IAEXXZ 10065390 f   AI_events.obj
 0001:00064450       ?Event_GetMoveType@idAI@@IAEXXZ 10065450 f   AI_events.obj
 0001:00064460       ?Event_SetMoveType@idAI@@IAEXH@Z 10065460 f   AI_events.obj
 0001:000644b0       ?Event_SaveMove@idAI@@IAEXXZ 100654b0 f   AI_events.obj
 0001:00064600       ?Event_RestoreMove@idAI@@IAEXXZ 10065600 f   AI_events.obj
 0001:00064770       ?Event_AllowMovement@idAI@@IAEXM@Z 10065770 f   AI_events.obj
 0001:000647a0       ?Event_JumpFrame@idAI@@IAEXXZ 100657a0 f   AI_events.obj
 0001:000647c0       ?Event_EnableClip@idAI@@IAEXXZ 100657c0 f   AI_events.obj
 0001:000647f0       ?Event_DisableClip@idAI@@IAEXXZ 100657f0 f   AI_events.obj
 0001:00064810       ?Event_EnableGravity@idAI@@IAEXXZ 10065810 f   AI_events.obj
 0001:00064820       ?Event_DisableGravity@idAI@@IAEXXZ 10065820 f   AI_events.obj
 0001:00064830       ?Event_EnableAFPush@idAI@@IAEXXZ 10065830 f   AI_events.obj
 0001:00064840       ?Event_DisableAFPush@idAI@@IAEXXZ 10065840 f   AI_events.obj
 0001:00064850       ?Event_SetFlySpeed@idAI@@IAEXM@Z 10065850 f   AI_events.obj
 0001:00064880       ?Event_SetFlyOffset@idAI@@IAEXH@Z 10065880 f   AI_events.obj
 0001:00064890       ?Event_ClearFlyOffset@idAI@@IAEXXZ 10065890 f   AI_events.obj
 0001:000648b0       ?Event_GetClosestHiddenTarget@idAI@@IAEXPBD@Z 100658b0 f   AI_events.obj
 0001:00064a70       ?Event_GetRandomTarget@idAI@@IAEXPBD@Z 10065a70 f   AI_events.obj
 0001:00064b30       ?Event_TravelDistanceToPoint@idAI@@IAEXABVidVec3@@@Z 10065b30 f   AI_events.obj
 0001:00064b70       ?Event_TravelDistanceToEntity@idAI@@IAEXPAVidEntity@@@Z 10065b70 f   AI_events.obj
 0001:00064bd0       ?Event_TravelDistanceBetweenPoints@idAI@@IAEXABVidVec3@@0@Z 10065bd0 f   AI_events.obj
 0001:00064c00       ?Event_TravelDistanceBetweenEntities@idAI@@IAEXPAVidEntity@@0@Z 10065c00 f   AI_events.obj
 0001:00064c60       ?Event_LookAtEntity@idAI@@IAEXPAVidEntity@@M@Z 10065c60 f   AI_events.obj
 0001:00064d20       ?Event_LookAtEnemy@idAI@@IAEXM@Z 10065d20 f   AI_events.obj
 0001:00064e10       ?Event_SetJointMod@idAI@@IAEXH@Z 10065e10 f   AI_events.obj
 0001:00064e30       ?Event_ThrowMoveable@idAI@@IAEXXZ 10065e30 f   AI_events.obj
 0001:00064eb0       ?Event_ThrowAF@idAI@@IAEXXZ 10065eb0 f   AI_events.obj
 0001:00064f30       ?Event_SetAngles@idAI@@IAEXABVidAngles@@@Z 10065f30 f   AI_events.obj
 0001:00064fd0       ?Event_GetAngles@idAI@@IAEXXZ 10065fd0 f   AI_events.obj
 0001:00065000       ?Event_RealKill@idAI@@IAEXXZ 10066000 f   AI_events.obj
 0001:00065050       ?Event_Kill@idAI@@IAEXXZ   10066050 f   AI_events.obj
 0001:00065060       ?Event_WakeOnFlashlight@idAI@@IAEXH@Z 10066060 f   AI_events.obj
 0001:00065080       ?Event_LocateEnemy@idAI@@IAEXXZ 10066080 f   AI_events.obj
 0001:00065080       ?Event_LocateFoodProjectile@idAI@@IAEXXZ 10066080 f   AI_events.obj
 0001:000650e0       ?Event_KickObstacles@idAI@@IAEXPAVidEntity@@M@Z 100660e0 f   AI_events.obj
 0001:000651d0       ?Event_GetObstacle@idAI@@IAEXXZ 100661d0 f   AI_events.obj
 0001:00065210       ?Event_PushPointIntoAAS@idAI@@IAEXABVidVec3@@@Z 10066210 f   AI_events.obj
 0001:00065280       ?Event_GetTurnRate@idAI@@IAEXXZ 10066280 f   AI_events.obj
 0001:000652a0       ?Event_SetTurnRate@idAI@@IAEXM@Z 100662a0 f   AI_events.obj
 0001:000652c0       ?Event_AnimTurn@idAI@@IAEXM@Z 100662c0 f   AI_events.obj
 0001:00065430       ?Event_AllowHiddenMovement@idAI@@IAEXH@Z 10066430 f   AI_events.obj
 0001:00065450       ?Event_TriggerParticles@idAI@@IAEXPBD@Z 10066450 f   AI_events.obj
 0001:00065460       ?Event_FindActorsInBounds@idAI@@IAEXABVidVec3@@0@Z 10066460 f   AI_events.obj
 0001:00065540       ?Event_CanReachPosition@idAI@@IAEXABVidVec3@@@Z 10066540 f   AI_events.obj
 0001:000655e0       ?Event_CanReachEntity@idAI@@IAEXPAVidEntity@@@Z 100665e0 f   AI_events.obj
 0001:00065710       ?Event_CanReachEnemy@idAI@@IAEXXZ 10066710 f   AI_events.obj
 0001:00065840       ?Event_GetReachableEntityPosition@idAI@@IAEXPAVidEntity@@@Z 10066840 f   AI_events.obj
 0001:00065930       ?Event_MoveToPositionDirect@idAI@@IAEXABVidVec3@@@Z 10066930 f   AI_events.obj
 0001:00065950       ?Event_AvoidObstacles@idAI@@IAEXH@Z 10066950 f   AI_events.obj
 0001:00065970       ?Event_TriggerFX@idAI@@IAEXPBD0@Z 10066970 f   AI_events.obj
 0001:00065980       ?Event_StartEmitter@idAI@@IAEXPBD00@Z 10066980 f   AI_events.obj
 0001:000659a0       ?Event_GetEmitter@idAI@@IAEXPBD@Z 100669a0 f   AI_events.obj
 0001:000659c0       ?Event_StopEmitter@idAI@@IAEXPBD@Z 100669c0 f   AI_events.obj
 0001:000659d0       ?Event_DistanceToEntity@idAI@@IAEXPAVidEntity@@@Z 100669d0 f   AI_events.obj
 0001:00065af0       ?Event_DistanceToEntity2D@idAI@@IAEXPAVidEntity@@@Z 10066af0 f   AI_events.obj
 0001:00065c00       ?CreateInstance@idAI@@SAPAVidClass@@XZ 10066c00 f   AI_events.obj
 0001:00065ca0       ?GetString@idDict@@QBEPBDPBD0@Z 10066ca0 f i AI_events.obj
 0001:00065cc0       ?GetType@idAI@@UBEPAVidTypeInfo@@XZ 10066cc0 f   AI_events.obj
 0001:00065cd0       ?Alloc@?$idBlockAlloc@UpathNode_s@@$0IA@@@QAEPAUpathNode_s@@XZ 10066cd0 f i AI_pathing.obj
 0001:000660c0       ?BuildPathTree@@YAPAUpathNode_s@@PBUobstacle_s@@HABVidBounds@@ABVidVec2@@2AAUobstaclePath_s@@@Z 100670c0 f   AI_pathing.obj
 0001:00066620       ?FindOptimalPath@@YA_NPBUpathNode_s@@PBUobstacle_s@@HMABVidVec3@@AAV3@@Z 10067620 f   AI_pathing.obj
 0001:000668b0       ?FindPathAroundObstacles@idAI@@SA_NPBVidPhysics@@PBVidAAS@@PBVidEntity@@ABVidVec3@@3AAUobstaclePath_s@@@Z 100678b0 f   AI_pathing.obj
 0001:00066e50       ?FreeObstacleAvoidanceNodes@idAI@@SAXXZ 10067e50 f   AI_pathing.obj
 0001:00066e60       ?FreePathTree_r@@YAXPAUpathNode_s@@@Z 10067e60 f   AI_pathing.obj
 0001:00066ea0       ?GetFirstBlockingObstacle@@YA_NPBUobstacle_s@@HHABVidVec2@@1AAMAAH3@Z 10067ea0 f   AI_pathing.obj
 0001:000670c0       ?GetObstacles@@YAHPBVidPhysics@@PBVidAAS@@PBVidEntity@@HABVidVec3@@3PAUobstacle_s@@HAAVidBounds@@@Z 100680c0 f   AI_pathing.obj
 0001:000682a0       ?GetPathNodeDelta@@YA_NPAUpathNode_s@@PBUobstacle_s@@ABVidVec2@@_N@Z 100692a0 f   AI_pathing.obj
 0001:00068620       ?GetPointOutsideObstacles@@YAXPBUobstacle_s@@HAAVidVec2@@PAH2@Z 10069620 f   AI_pathing.obj
 0001:00068b40       ?Normalize@idVec2@@QAEMXZ  10069b40 f i AI_pathing.obj
 0001:00068c10       ?OptimizePath@@YAHPBUpathNode_s@@0PBUobstacle_s@@HQAVidVec2@@@Z 10069c10 f   AI_pathing.obj
 0001:00068f10       ?PathLength@@YAMQAVidVec2@@HABV1@@Z 10069f10 f   AI_pathing.obj
 0001:00069000       ?PathTrace@@YA_NPBVidEntity@@PBVidAAS@@ABVidVec3@@2HAAUpathTrace_s@@AAUpredictedPath_s@@@Z 1006a000 f   AI_pathing.obj
 0001:00069380       ?PointInsideObstacle@@YAHPBUobstacle_s@@HABVidVec2@@@Z 1006a380 f   AI_pathing.obj
 0001:00069400       ?PredictPath@idAI@@SA_NPBVidEntity@@PBVidAAS@@ABVidVec3@@2HHHAAUpredictedPath_s@@@Z 1006a400 f   AI_pathing.obj
 0001:00069f80       ?PredictTrajectory@idAI@@SA_NABVidVec3@@0M0PBVidClipModel@@HMPBVidEntity@@2HAAV2@@Z 1006af80 f   AI_pathing.obj
 0001:0006a650       ?Shutdown@?$idBlockAlloc@UpathNode_s@@$0IA@@@QAEXXZ 1006b650 f i AI_pathing.obj
 0001:0006a6a0       ?Sqrt@idMath@@SAMM@Z       1006b6a0 f i AI_pathing.obj
 0001:0006a740       ?TestTrajectory@idAI@@SA_NABVidVec3@@0MMMMPBVidClipModel@@HPBVidEntity@@2H@Z 1006b740 f   AI_pathing.obj
 0001:0006aca0       ?Event_ChooseObjectToThrow@idAI_Vagary@@AAEXABVidVec3@@0MMM@Z 1006bca0 f   AI_Vagary.obj
 0001:0006b0b0       ?Event_ThrowObjectAtEnemy@idAI_Vagary@@AAEXPAVidEntity@@M@Z 1006c0b0 f   AI_Vagary.obj
 0001:0006b2c0       ?CreateInstance@idAI_Vagary@@SAPAVidClass@@XZ 1006c2c0 f   AI_Vagary.obj
 0001:0006b370       ?GetType@idAI_Vagary@@UBEPAVidTypeInfo@@XZ 1006c370 f   AI_Vagary.obj
 0001:0006b380       ??0idAnimManager@@QAE@XZ   1006c380 f   Anim.obj
 0001:0006b420       ??1?$idHashTable@PAVidMD5Anim@@@@QAE@XZ 1006c420 f i Anim.obj
 0001:0006b4c0       ??1?$idList@VidStr@@@@QAE@XZ 1006c4c0 f i Anim.obj
 0001:0006b540       ??1idAnimManager@@QAE@XZ   1006c540 f   Anim.obj
 0001:0006b5e0       ??1idToken@@QAE@XZ         1006c5e0 f i Anim.obj
 0001:0006b5e0       ??1mpChatLine_s@@QAE@XZ    1006c5e0 f i Game_local.obj
 0001:0006b620       ??_GidMD5Anim@@QAEPAXI@Z   1006c620 f i Anim.obj
 0001:0006b720       ?CheckModelHierarchy@idMD5Anim@@QBEXPBVidRenderModel@@@Z 1006c720 f   Anim.obj
 0001:0006b840       ?ConvertTimeToFrame@idMD5Anim@@QBEXHHAAUframeBlend_t@@@Z 1006c840 f   Anim.obj
 0001:0006b930       ?DecreaseRefs@idMD5Anim@@QBEXXZ 1006c930 f   Anim.obj
 0001:0006b940       ?FlushUnusedAnims@idAnimManager@@QAEXXZ 1006c940 f   Anim.obj
 0001:0006bce0       ?Free@idMD5Anim@@QAEXXZ    1006cce0 f   Anim.obj
 0001:0006bda0       ?GetAnim@idAnimManager@@QAEPAVidMD5Anim@@PBD@Z 1006cda0 f   Anim.obj
 0001:0006c150       ?GetBounds@idMD5Anim@@QBEXAAVidBounds@@HH@Z 1006d150 f   Anim.obj
 0001:0006c320       ?GetInterpolatedFrame@idMD5Anim@@QBEXAAUframeBlend_t@@PAVidJointQuat@@PBHH@Z 1006d320 f   Anim.obj
 0001:0006c8f0       ?GetOrigin@idMD5Anim@@QBEXAAVidVec3@@HH@Z 1006d8f0 f   Anim.obj
 0001:0006ca40       ?GetOriginRotation@idMD5Anim@@QBEXAAVidQuat@@HH@Z 1006da40 f   Anim.obj
 0001:0006d0d0       ?GetSingleFrame@idMD5Anim@@QBEXHPAVidJointQuat@@PBHH@Z 1006e0d0 f   Anim.obj
 0001:0006d240       ?IncreaseRefs@idMD5Anim@@QBEXXZ 1006e240 f   Anim.obj
 0001:0006d250       ?JointIndex@idAnimManager@@QAEHPBD@Z 1006e250 f   Anim.obj
 0001:0006d440       ?Length@idMD5Anim@@QBEHXZ  1006e440 f   Anim.obj
 0001:0006d440       ?Name@idTypeDef@@QBEPBDXZ  1006e440 f   Script_Program.obj
 0001:0006d450       ?ListAnims@idAnimManager@@QBEXXZ 1006e450 f   Anim.obj
 0001:0006d5c0       ?LoadAnim@idMD5Anim@@QAE_NPBD@Z 1006e5c0 f   Anim.obj
 0001:0006ddd0       ?Name@idMD5Anim@@QBEPBDXZ  1006edd0 f   Anim.obj
 0001:0006dde0       ?GetTypeDef@idScriptObject@@QBEPAVidTypeDef@@XZ 1006ede0 f   Script_Program.obj
 0001:0006dde0       ?ModelDef@idAnimator@@QBEPBVidDeclModelDef@@XZ 1006ede0 f   Anim_Blend.obj
 0001:0006dde0       ?NumFrames@idMD5Anim@@QBEHXZ 1006ede0 f   Anim.obj
 0001:0006dde0       ?Type@idTypeDef@@QBE?AW4etype_t@@XZ 1006ede0 f   Script_Program.obj
 0001:0006ddf0       ?NumJoints@idMD5Anim@@QBEHXZ 1006edf0 f   Anim.obj
 0001:0006de00       ?ReloadAnims@idAnimManager@@QAEXXZ 1006ee00 f   Anim.obj
 0001:0006df20       ?Resize@?$idList@UjointAnimInfo_t@@@@QAEXH@Z 1006ef20 f i Anim.obj
 0001:0006dfc0       ?Resize@?$idList@VidBounds@@@@QAEXH@Z 1006efc0 f i Anim.obj
 0001:0006e0a0       ?Resize@?$idList@VidJointQuat@@@@QAEXH@Z 1006f0a0 f i Anim.obj
 0001:0006e170       ?Resize@?$idList@VidStr@@@@QAEXH@Z 1006f170 f i Anim.obj
 0001:0006e320       ?Shutdown@idAnimManager@@QAEXXZ 1006f320 f   Anim.obj
 0001:0006e4f0       ?TotalMovementDelta@idMD5Anim@@QBEABVidVec3@@XZ 1006f4f0 f   Anim.obj
 0001:0006e500       ??$ArgCompletion_Integer@$0A@$01@idCmdSystem@@SAXABVidCmdArgs@@P6AXPBD@Z@Z 1006f500 f i Anim_Blend.obj
 0001:0006e540       ??0idAnim@@QAE@PBVidDeclModelDef@@PBV0@@Z 1006f540 f   Anim_Blend.obj
 0001:0006e7b0       ??0idAnim@@QAE@XZ          1006f7b0 f   Anim_Blend.obj
 0001:0006e840       ??0idAnimator@@QAE@XZ      1006f840 f   Anim_Blend.obj
 0001:0006eaa0       ??0idDeclModelDef@@QAE@XZ  1006faa0 f   Anim_Blend.obj
 0001:0006ebc0       ??1idAnim@@QAE@XZ          1006fbc0 f   Anim_Blend.obj
 0001:0006ecc0       ??1idAnimator@@QAE@XZ      1006fcc0 f   Anim_Blend.obj
 0001:0006edc0       ??1idDecl@@UAE@XZ          1006fdc0 f i Anim_Blend.obj
 0001:0006edd0       ??4idStr@@QAEXABV0@@Z      1006fdd0 f i Anim_Blend.obj
 0001:0006ee10       ??DidMat3@@QBE?AV0@ABV0@@Z 1006fe10 f i Anim_Blend.obj
 0001:0006efa0       ??XidJointMat@@QAEAAV0@ABV0@@Z 1006ffa0 f i Anim_Blend.obj
 0001:0006f1a0       ??_0idJointMat@@QAEAAV0@ABV0@@Z 100701a0 f i Anim_Blend.obj
 0001:0006f3b0       ??_F?$idList@H@@QAEXXZ     100703b0 f i Anim_Blend.obj
 0001:0006f3b0       ??_F?$idList@Usignal_t@@@@QAEXXZ 100703b0 f i Entity.obj
 0001:0006f3d0       ??_GidAnim@@QAEPAXI@Z      100703d0 f i Anim_Blend.obj
 0001:0006f4e0       ??_EidCVar@@UAEPAXI@Z      100704e0 f i Anim_Blend.obj
 0001:0006f4e0       ??_GidCVar@@UAEPAXI@Z      100704e0 f i Anim_Blend.obj
 0001:0006f510       ??_EidDecl@@UAEPAXI@Z      10070510 f i Anim_Blend.obj
 0001:0006f510       ??_GidDecl@@UAEPAXI@Z      10070510 f i Anim_Blend.obj
 0001:0006f540       ??_EidDeclModelDef@@UAEPAXI@Z 10070540 f i Anim_Blend.obj
 0001:0006f540       ??_GidDeclModelDef@@UAEPAXI@Z 10070540 f i Anim_Blend.obj
 0001:0006f6e0       ?ANIM_CreateAnimFrame@idGameEdit@@UAEXPBVidRenderModel@@PBVidMD5Anim@@HPAVidJointMat@@HABVidVec3@@_N@Z 100706e0 f   Anim_Blend.obj
 0001:0006fa00       ?ANIM_CreateMeshForAnim@idGameEdit@@UAEPAVidRenderModel@@PAV2@PBD1H_N@Z 10070a00 f   Anim_Blend.obj
 0001:0006fca0       ?ANIM_GetAnim@idGameEdit@@UAEPBVidMD5Anim@@PBD@Z 10070ca0 f   Anim_Blend.obj
 0001:0006fcb0       ?ANIM_GetAnimFromEntityDef@idGameEdit@@UAEPBVidMD5Anim@@PBD0@Z 10070cb0 f   Anim_Blend.obj
 0001:0006fd40       ?ANIM_GetAnimNameFromEntityDef@idGameEdit@@UAEPBDPBVidDict@@H@Z 10070d40 f   Anim_Blend.obj
 0001:0006fda0       ?ANIM_GetLength@idGameEdit@@UAEHPBVidMD5Anim@@@Z 10070da0 f   Anim_Blend.obj
 0001:0006fdc0       ?ANIM_GetModelDefFromEntityDef@@YAPBVidDeclModelDef@@PBVidDict@@@Z 10070dc0 f   Anim_Blend.obj
 0001:0006feb0       ?ANIM_GetModelFromEntityDef@idGameEdit@@UAEPAVidRenderModel@@PBD@Z 10070eb0 f   Anim_Blend.obj
 0001:0006fee0       ?ANIM_GetModelFromEntityDef@idGameEdit@@UAEPAVidRenderModel@@PBVidDict@@@Z 10070ee0 f   Anim_Blend.obj
 0001:0006fff0       ?ANIM_GetModelFromName@idGameEdit@@UAEPAVidRenderModel@@PBD@Z 10070ff0 f   Anim_Blend.obj
 0001:00070020       ?ANIM_GetModelOffsetFromEntityDef@idGameEdit@@UAEABVidVec3@@PBD@Z 10071020 f   Anim_Blend.obj
 0001:00070060       ?ANIM_GetNumAnimsFromEntityDef@idGameEdit@@UAEHPBVidDict@@@Z 10071060 f   Anim_Blend.obj
 0001:000700b0       ?ANIM_GetNumFrames@idGameEdit@@UAEHPBVidMD5Anim@@@Z 100710b0 f   Anim_Blend.obj
 0001:000700d0       ?AddBounds@idAnimBlend@@ABE_NHAAVidBounds@@_N@Z 100710d0 f   Anim_Blend.obj
 0001:00070320       ?AddFrameCommand@idAnim@@QAEPBDPBVidDeclModelDef@@HAAVidLexer@@PBVidDict@@@Z 10071320 f   Anim_Blend.obj
 0001:00071480       ?Allocated@idAnimator@@QBEIXZ 10072480 f   Anim_Blend.obj
 0001:000714c0       ?Anim@idAnimBlend@@QBEPBVidAnim@@XZ 100724c0 f   Anim_Blend.obj
 0001:000714f0       ?AnimFullName@idAnimBlend@@QBEPBDXZ 100724f0 f   Anim_Blend.obj
 0001:00071520       ?AnimFullName@idAnimator@@QBEPBDH@Z 10072520 f   Anim_Blend.obj
 0001:00071560       ?AnimLength@idAnimator@@QBEHH@Z 10072560 f   Anim_Blend.obj
 0001:000715a0       ?AnimName@idAnimBlend@@QBEPBDXZ 100725a0 f   Anim_Blend.obj
 0001:000715d0       ?AnimNum@idAnimBlend@@QBEHXZ 100725d0 f   Anim_Blend.obj
 0001:000715e0       ?AnimTime@idAnimBlend@@QBEHH@Z 100725e0 f   Anim_Blend.obj
 0001:000716b0       ?Argv@idCmdArgs@@QBEPBDH@Z 100726b0 f i Anim_Blend.obj
 0001:000716d0       ?BlendAnim@idAnimBlend@@ABE_NHHHPAVidJointQuat@@AAM_N22@Z 100726d0 f   Anim_Blend.obj
 0001:00071d80       ?BlendDelta@idAnimBlend@@ABEXHHAAVidVec3@@AAM@Z 10072d80 f   Anim_Blend.obj
 0001:00072070       ?BlendDeltaRotation@idAnimBlend@@ABEXHHAAVidQuat@@AAM@Z 10073070 f   Anim_Blend.obj
 0001:000724f0       ?CallFrameCommands@idAnim@@QBEXPAVidEntity@@HH@Z 100734f0 f   Anim_Blend.obj
 0001:00072ff0       ?Clear@idAnimator@@QAEXHHH@Z 10073ff0 f   Anim_Blend.obj
 0001:000730d0       ?ClearAFPose@idAnimator@@QAEXXZ 100740d0 f   Anim_Blend.obj
 0001:000731a0       ?ClearAllAnims@idAnimator@@QAEXHH@Z 100741a0 f   Anim_Blend.obj
 0001:000732a0       ?ClearAllJoints@idAnimator@@QAEXXZ 100742a0 f   Anim_Blend.obj
 0001:000732d0       ?ClearForceUpdate@idAnimator@@QAEXXZ 100742d0 f   Anim_Blend.obj
 0001:000732e0       ?ClearJoint@idAnimator@@QAEXW4jointHandle_t@@@Z 100742e0 f   Anim_Blend.obj
 0001:00073390       ?CopyDecl@idDeclModelDef@@AAEXPBV1@@Z 10074390 f   Anim_Blend.obj
 0001:00073560       ?CreateFrame@idAnimator@@QAE_NH_N@Z 10074560 f   Anim_Blend.obj
 0001:00074c10       ?CurrentAnim@idAnimator@@QAEPAVidAnimBlend@@H@Z 10075c10 f   Anim_Blend.obj
 0001:00074c50       ?CycleAnim@idAnimBlend@@AAEXPBVidDeclModelDef@@HHH@Z 10075c50 f   Anim_Blend.obj
 0001:00074df0       ?CycleAnim@idAnimator@@QAEXHHHH@Z 10075df0 f   Anim_Blend.obj
 0001:00074e80       ?DefaultDefinition@idDecl@@UBEPBDXZ 10075e80 f i Anim_Blend.obj
 0001:00074e90       ?DefaultDefinition@idDeclModelDef@@UBEPBDXZ 10075e90 f   Anim_Blend.obj
 0001:00074ea0       ?DeleteContents@?$idList@PAUjointMod_t@@@@QAEX_N@Z 10075ea0 f i Anim_Blend.obj
 0001:00074f20       ?DeleteContents@?$idList@PAVidAnim@@@@QAEX_N@Z 10075f20 f i Anim_Blend.obj
 0001:000750d0       ?FindFrameForFrameCommand@idAnim@@QBEHW4frameCommandType_t@@PAPBUframeCommand_t@@@Z 100760d0 f   Anim_Blend.obj
 0001:00075160       ?FindJoint@idDeclModelDef@@QBEPBUjointInfo_t@@PBD@Z 10076160 f   Anim_Blend.obj
 0001:000751c0       ?FinishAFPose@idAnimator@@QAEXHABVidBounds@@H@Z 100761c0 f   Anim_Blend.obj
 0001:000758e0       ?ForceUpdate@idAnimator@@QAEXXZ 100768e0 f   Anim_Blend.obj
 0001:00075900       ?FrameHasChanged@idAnimator@@QBE_NH@Z 10076900 f   Anim_Blend.obj
 0001:000759f0       ?FreeData@idAnimator@@AAEXXZ 100769f0 f   Anim_Blend.obj
 0001:00075ad0       ?FreeData@idDecl@@UAEXXZ   10076ad0 f i Anim_Blend.obj
 0001:00075ad0       ?ReadBool@idRestoreGame@@QAEXAA_N@Z 10076ad0 f i SaveGame.obj
 0001:00075ae0       ?FreeData@idDeclModelDef@@UAEXXZ 10076ae0 f   Anim_Blend.obj
 0001:00075ba0       ?GetAnim@idAnimator@@QBEHPBD@Z 10076ba0 f   Anim_Blend.obj
 0001:00075bb0       ?GetAnim@idAnimator@@QBEPBVidAnim@@H@Z 10076bb0 f   Anim_Blend.obj
 0001:00075be0       ?GetAnim@idDeclModelDef@@QBEHPBD@Z 10076be0 f   Anim_Blend.obj
 0001:00075cd0       ?GetAnim@idDeclModelDef@@QBEPBVidAnim@@H@Z 10076cd0 f   Anim_Blend.obj
 0001:00075d00       ?GetAnimFlags@idAnimator@@QBE?BUanimFlags_t@@H@Z 10076d00 f   Anim_Blend.obj
 0001:00075d40       ?GetBounds@idAnimator@@QAE_NHAAVidBounds@@@Z 10076d40 f   Anim_Blend.obj
 0001:00076010       ?GetChannelForJoint@idAnimator@@QBEHW4jointHandle_t@@@Z 10077010 f   Anim_Blend.obj
 0001:00076080       ?GetChannelJoints@idDeclModelDef@@QBEPBHH@Z 10077080 f   Anim_Blend.obj
 0001:000760b0       ?GetCycleCount@idAnimBlend@@QBEHXZ 100770b0 f   Anim_Blend.obj
 0001:000760c0       ?GetDefaultSkin@idDeclModelDef@@QBEPBVidDeclSkin@@XZ 100770c0 f   Anim_Blend.obj
 0001:000760c0       ?GetSkin@idDeclModelDef@@QBEPBVidDeclSkin@@XZ 100770c0 f   Anim_Blend.obj
 0001:000760d0       ?GetDelta@idAnimator@@QBEXHHAAVidVec3@@@Z 100770d0 f   Anim_Blend.obj
 0001:000761b0       ?GetDeltaRotation@idAnimator@@QBE_NHHAAVidMat3@@@Z 100771b0 f   Anim_Blend.obj
 0001:00076340       ?GetEndTime@idAnimBlend@@QBEHXZ 10077340 f   Anim_Blend.obj
 0001:00076350       ??BidStr@@QAEPBDXZ         10077350 f   Script_Compiler.obj
 0001:00076350       ?GetEntity@idAnimator@@QBEPAVidEntity@@XZ 10077350 f   Anim_Blend.obj
 0001:00076350       ?GetMaxIterations@idLCP@@UAEHXZ 10077350 f   idLib:Lcp.obj
 0001:00076350       ?Name@function_t@@QBEPBDXZ 10077350 f   Script_Program.obj
 0001:00076350       ?c_str@idStr@@QBEPBDXZ     10077350 f   Script_Compiler.obj
 0001:00076360       ?GetFirstChild@idAnimator@@QBE?AW4jointHandle_t@@PBD@Z 10077360 f   Anim_Blend.obj
 0001:000763e0       ?GetFrameNumber@idAnimBlend@@QBEHH@Z 100773e0 f   Anim_Blend.obj
 0001:00076470       ?GetJointHandle@idAnimator@@QBE?AW4jointHandle_t@@PBD@Z 10077470 f   Anim_Blend.obj
 0001:00076490       ?GetJointList@idAnimator@@QBEXPBDAAV?$idList@W4jointHandle_t@@@@@Z 10077490 f   Anim_Blend.obj
 0001:000764a0       ?GetJointList@idDeclModelDef@@QBEXPBDAAV?$idList@W4jointHandle_t@@@@@Z 100774a0 f   Anim_Blend.obj
 0001:000769b0       ?GetJointLocalTransform@idAnimator@@QAE_NW4jointHandle_t@@HAAVidVec3@@AAVidMat3@@@Z 100779b0 f   Anim_Blend.obj
 0001:00076b80       ?GetJointName@idAnimator@@QBEPBDW4jointHandle_t@@@Z 10077b80 f   Anim_Blend.obj
 0001:00076ba0       ?GetJointTransform@idAnimator@@QAE_NW4jointHandle_t@@HAAVidVec3@@AAVidMat3@@@Z 10077ba0 f   Anim_Blend.obj
 0001:00076c90       ?GetJoints@idAnimator@@QAEXPAHPAPAVidJointMat@@@Z 10077c90 f   Anim_Blend.obj
 0001:00076cb0       ?GetStartTime@idAnimBlend@@QBEHXZ 10077cb0 f   Anim_Blend.obj
 0001:00076cc0       ?GetVisualOffset@idDeclModelDef@@QBEABVidVec3@@XZ 10077cc0 f   Anim_Blend.obj
 0001:00076cd0       ?GetWeight@idAnimBlend@@QBEMH@Z 10077cd0 f   Anim_Blend.obj
 0001:00076d40       ?HasAnim@idAnimator@@QBE_NPBD@Z 10077d40 f   Anim_Blend.obj
 0001:00076da0       ?InitAFPose@idAnimator@@QAEXXZ 10077da0 f   Anim_Blend.obj
 0001:00076e40       ?Insert@?$idList@PAUjointMod_t@@@@QAEHABQAUjointMod_t@@H@Z 10077e40 f i Anim_Blend.obj
 0001:00076ee0       ?AccumPass@FullscreenFX@@UAEXPBUrenderView_s@@@Z 10077ee0 f i PlayerView.obj
 0001:00076ee0       ?AddContactEntity@idPhysics_Static@@UAEXPAVidEntity@@@Z 10077ee0 f i Physics_Static.obj
 0001:00076ee0       ?AddContactEntity@idPhysics_StaticMulti@@UAEXPAVidEntity@@@Z 10077ee0 f i Physics_StaticMulti.obj
 0001:00076ee0       ?ApplyFriction@idAFConstraint@@MAEXM@Z 10077ee0 f i Physics_AF.obj
 0001:00076ee0       ?ApplyFriction@idAFConstraint_BallAndSocketJointFriction@@MAEXM@Z 10077ee0 f i Physics_AF.obj
 0001:00076ee0       ?ApplyFriction@idAFConstraint_ConeLimit@@MAEXM@Z 10077ee0 f i Physics_AF.obj
 0001:00076ee0       ?ApplyFriction@idAFConstraint_ContactFriction@@MAEXM@Z 10077ee0 f i Physics_AF.obj
 0001:00076ee0       ?ApplyFriction@idAFConstraint_Fixed@@MAEXM@Z 10077ee0 f i Physics_AF.obj
 0001:00076ee0       ?ApplyFriction@idAFConstraint_HingeFriction@@MAEXM@Z 10077ee0 f i Physics_AF.obj
 0001:00076ee0       ?ApplyFriction@idAFConstraint_HingeSteering@@MAEXM@Z 10077ee0 f i Physics_AF.obj
 0001:00076ee0       ?ApplyFriction@idAFConstraint_PyramidLimit@@MAEXM@Z 10077ee0 f i Physics_AF.obj
 0001:00076ee0       ?ApplyFriction@idAFConstraint_Slider@@MAEXM@Z 10077ee0 f i Physics_AF.obj
 0001:00076ee0       ?ApplyFriction@idAFConstraint_Spring@@MAEXM@Z 10077ee0 f i Physics_AF.obj
 0001:00076ee0       ?ApplyFriction@idAFConstraint_Suspension@@MAEXM@Z 10077ee0 f i Physics_AF.obj
 0001:00076ee0       ?ApplyFriction@idAFConstraint_UniversalJointFriction@@MAEXM@Z 10077ee0 f i Physics_AF.obj
 0001:00076ee0       ?Evaluate@idAFConstraint@@MAEXM@Z 10077ee0 f i Physics_AF.obj
 0001:00076ee0       ?Evaluate@idAFConstraint_BallAndSocketJointFriction@@MAEXM@Z 10077ee0 f i Physics_AF.obj
 0001:00076ee0       ?Evaluate@idAFConstraint_ConeLimit@@MAEXM@Z 10077ee0 f i Physics_AF.obj
 0001:00076ee0       ?Evaluate@idAFConstraint_Contact@@MAEXM@Z 10077ee0 f i Physics_AF.obj
 0001:00076ee0       ?Evaluate@idAFConstraint_ContactFriction@@MAEXM@Z 10077ee0 f i Physics_AF.obj
 0001:00076ee0       ?Evaluate@idAFConstraint_HingeFriction@@MAEXM@Z 10077ee0 f i Physics_AF.obj
 0001:00076ee0       ?Evaluate@idAFConstraint_HingeSteering@@MAEXM@Z 10077ee0 f i Physics_AF.obj
 0001:00076ee0       ?Evaluate@idAFConstraint_PyramidLimit@@MAEXM@Z 10077ee0 f i Physics_AF.obj
 0001:00076ee0       ?Evaluate@idAFConstraint_UniversalJointFriction@@MAEXM@Z 10077ee0 f i Physics_AF.obj
 0001:00076ee0       ?Evaluate@idForce@@UAEXH@Z 10077ee0 f i Force.obj
 0001:00076ee0       ?Event_Assert@idThread@@AAEXM@Z 10077ee0 f i Script_Thread.obj
 0001:00076ee0       ?Event_IncreaseSteamAchievementStat@idPlayer@@QAEXH@Z 10077ee0 f i Player.obj
 0001:00076ee0       ?Event_SetAccelSound@idMover@@AAEXPBD@Z 10077ee0 f i Mover.obj
 0001:00076ee0       ?Event_SetDecelSound@idMover@@AAEXPBD@Z 10077ee0 f i Mover.obj
 0001:00076ee0       ?Event_SetMoveSound@idMover@@AAEXPBD@Z 10077ee0 f i Mover.obj
 0001:00076ee0       ?GetMapLoadingGUI@idGameLocal@@UAEXQAD@Z 10077ee0 f i Game_local.obj
 0001:00076ee0       ?InternalSetBool@idCVar@@EAEX_N@Z 10077ee0 f i Anim_Blend.obj
 0001:00076ee0       ?InternalSetFloat@idCVar@@EAEXM@Z 10077ee0 f i Anim_Blend.obj
 0001:00076ee0       ?InternalSetInteger@idCVar@@EAEXH@Z 10077ee0 f i Anim_Blend.obj
 0001:00076ee0       ?InternalSetString@idCVar@@EAEXPBD@Z 10077ee0 f i Anim_Blend.obj
 0001:00076ee0       ?ReadFromSnapshot@idEntity@@UAEXABVidBitMsgDelta@@@Z 10077ee0 f i Entity.obj
 0001:00076ee0       ?ReadFromSnapshot@idPhysics_Base@@UAEXABVidBitMsgDelta@@@Z 10077ee0 f i Physics_Base.obj
 0001:00076ee0       ?RemoveContactEntity@idPhysics_Static@@UAEXPAVidEntity@@@Z 10077ee0 f i Physics_Static.obj
 0001:00076ee0       ?RemoveContactEntity@idPhysics_StaticMulti@@UAEXPAVidEntity@@@Z 10077ee0 f i Physics_StaticMulti.obj
 0001:00076ee0       ?RemovePhysics@idForce@@UAEXPBVidPhysics@@@Z 10077ee0 f i Force.obj
 0001:00076ee0       ?Restore@idClass@@QAEXPAVidRestoreGame@@@Z 10077ee0 f i Class.obj
 0001:00076ee0       ?Restore@idLiquid@@QAEXPAVidRestoreGame@@@Z 10077ee0 f i Misc.obj
 0001:00076ee0       ?Restore@idPhysics@@QAEXPAVidRestoreGame@@@Z 10077ee0 f i Physics.obj
 0001:00076ee0       ?Rotate@idAFConstraint@@UAEXABVidRotation@@@Z 10077ee0 f i Physics_AF.obj
 0001:00076ee0       ?Rotate@idAFConstraint_BallAndSocketJointFriction@@UAEXABVidRotation@@@Z 10077ee0 f i Physics_AF.obj
 0001:00076ee0       ?Rotate@idAFConstraint_Contact@@UAEXABVidRotation@@@Z 10077ee0 f i Physics_AF.obj
 0001:00076ee0       ?Rotate@idAFConstraint_ContactFriction@@UAEXABVidRotation@@@Z 10077ee0 f i Physics_AF.obj
 0001:00076ee0       ?Rotate@idAFConstraint_HingeFriction@@UAEXABVidRotation@@@Z 10077ee0 f i Physics_AF.obj
 0001:00076ee0       ?Rotate@idAFConstraint_HingeSteering@@UAEXABVidRotation@@@Z 10077ee0 f i Physics_AF.obj
 0001:00076ee0       ?Rotate@idAFConstraint_Suspension@@UAEXABVidRotation@@@Z 10077ee0 f i Physics_AF.obj
 0001:00076ee0       ?Rotate@idAFConstraint_UniversalJointFriction@@UAEXABVidRotation@@@Z 10077ee0 f i Physics_AF.obj
 0001:00076ee0       ?Save@idAFEntity_SteamPipe@@QBEXPAVidSaveGame@@@Z 10077ee0 f i AFEntity.obj
 0001:00076ee0       ?Save@idClass@@QBEXPAVidSaveGame@@@Z 10077ee0 f i Class.obj
 0001:00076ee0       ?Save@idLiquid@@QBEXPAVidSaveGame@@@Z 10077ee0 f i Misc.obj
 0001:00076ee0       ?Save@idPhysics@@QBEXPAVidSaveGame@@@Z 10077ee0 f i Physics.obj
 0001:00076ee0       ?Save@idTestModel@@QAEXPAVidSaveGame@@@Z 10077ee0 f i Anim_Testmodel.obj
 0001:00076ee0       ?Save@idWorldspawn@@QAEXPAVidRestoreGame@@@Z 10077ee0 f i WorldSpawn.obj
 0001:00076ee0       ?SelectTimeGroup@idGameLocal@@UAEXH@Z 10077ee0 f i Game_local.obj
 0001:00076ee0       ?SetGravity@idPhysics_Static@@UAEXABVidVec3@@@Z 10077ee0 f i Physics_Static.obj
 0001:00076ee0       ?SetGravity@idPhysics_StaticMulti@@UAEXABVidVec3@@@Z 10077ee0 f i Physics_StaticMulti.obj
 0001:00076ee0       ?SetPushed@idPhysics_Base@@UAEXH@Z 10077ee0 f i Physics_Base.obj
 0001:00076ee0       ?SetPushed@idPhysics_Static@@UAEXH@Z 10077ee0 f i Physics_Static.obj
 0001:00076ee0       ?SetPushed@idPhysics_StaticMulti@@UAEXH@Z 10077ee0 f i Physics_StaticMulti.obj
 0001:00076ee0       ?Translate@idAFConstraint@@UAEXABVidVec3@@@Z 10077ee0 f i Physics_AF.obj
 0001:00076ee0       ?Translate@idAFConstraint_BallAndSocketJointFriction@@UAEXABVidVec3@@@Z 10077ee0 f i Physics_AF.obj
 0001:00076ee0       ?Translate@idAFConstraint_Contact@@UAEXABVidVec3@@@Z 10077ee0 f i Physics_AF.obj
 0001:00076ee0       ?Translate@idAFConstraint_ContactFriction@@UAEXABVidVec3@@@Z 10077ee0 f i Physics_AF.obj
 0001:00076ee0       ?Translate@idAFConstraint_HingeFriction@@UAEXABVidVec3@@@Z 10077ee0 f i Physics_AF.obj
 0001:00076ee0       ?Translate@idAFConstraint_HingeSteering@@UAEXABVidVec3@@@Z 10077ee0 f i Physics_AF.obj
 0001:00076ee0       ?Translate@idAFConstraint_Suspension@@UAEXABVidVec3@@@Z 10077ee0 f i Physics_AF.obj
 0001:00076ee0       ?Translate@idAFConstraint_UniversalJointFriction@@UAEXABVidVec3@@@Z 10077ee0 f i Physics_AF.obj
 0001:00076ee0       ?UpdateTime@idPhysics_AF@@UAEXH@Z 10077ee0 f i Physics_AF.obj
 0001:00076ee0       ?UpdateTime@idPhysics_Base@@UAEXH@Z 10077ee0 f i Physics_Base.obj
 0001:00076ee0       ?UpdateTime@idPhysics_Monster@@UAEXH@Z 10077ee0 f i Physics_Monster.obj
 0001:00076ee0       ?UpdateTime@idPhysics_Player@@UAEXH@Z 10077ee0 f i Physics_Player.obj
 0001:00076ee0       ?UpdateTime@idPhysics_RigidBody@@UAEXH@Z 10077ee0 f i Physics_RigidBody.obj
 0001:00076ee0       ?UpdateTime@idPhysics_Static@@UAEXH@Z 10077ee0 f i Physics_Static.obj
 0001:00076ee0       ?UpdateTime@idPhysics_StaticMulti@@UAEXH@Z 10077ee0 f i Physics_StaticMulti.obj
 0001:00076ee0       ?WriteToSnapshot@idEntity@@UBEXAAVidBitMsgDelta@@@Z 10077ee0 f i Entity.obj
 0001:00076ee0       ?WriteToSnapshot@idPhysics_Base@@UBEXAAVidBitMsgDelta@@@Z 10077ee0 f i Physics_Base.obj
 0001:00076ee0       ?imbue@?$basic_streambuf@DU?$char_traits@D@std@@@std@@MAEXABVlocale@2@@Z 10077ee0 f i sbship.obj
 0001:00076ef0       ?IsAnimating@idAnimator@@QBE_NH@Z 10077ef0 f   Anim_Blend.obj
 0001:00076f70       ?List@idDecl@@UBEXXZ       10077f70 f i Anim_Blend.obj
 0001:00076f70       ?ReadVec2@idRestoreGame@@QAEXAAVidVec2@@@Z 10077f70 f i SaveGame.obj
 0001:00076f80       ?MD5Anim@idAnim@@QBEPBVidMD5Anim@@H@Z 10077f80 f   Anim_Blend.obj
 0001:00076fa0       ?ModelHandle@idAnimator@@QBEPAVidRenderModel@@XZ 10077fa0 f   Anim_Blend.obj
 0001:00076fb0       ?GetRestStartTime@idPhysics_Monster@@UBEHXZ 10077fb0 f   Physics_Monster.obj
 0001:00076fb0       ?ModelHandle@idDeclModelDef@@QBEPAVidRenderModel@@XZ 10077fb0 f   Anim_Blend.obj
 0001:00076fc0       ?GetNumClipModels@idPhysics_StaticMulti@@UBEHXZ 10077fc0 f   Physics_StaticMulti.obj
 0001:00076fc0       ?Name@idAnim@@QBEPBDXZ     10077fc0 f   Anim_Blend.obj
 0001:00076fd0       ?NumAnims@idAnimator@@QBEHXZ 10077fd0 f   Anim_Blend.obj
 0001:00076fe0       ?NumAnims@idDeclModelDef@@QBEHXZ 10077fe0 f   Anim_Blend.obj
 0001:00076ff0       ?NumFrames@idAnimBlend@@QBEHXZ 10077ff0 f   Anim_Blend.obj
 0001:00077030       ?NumFrames@idAnimator@@QBEHH@Z 10078030 f   Anim_Blend.obj
 0001:00077070       ?GetBindJoint@idEntity@@QBE?AW4jointHandle_t@@XZ 10078070 f   Entity.obj
 0001:00077070       ?NumJoints@idAnimator@@QBEHXZ 10078070 f   Anim_Blend.obj
 0001:00077080       ?Parse@idDecl@@UAE_NPBDH@Z 10078080 f i Anim_Blend.obj
 0001:00077090       ?Parse@idDeclModelDef@@UAE_NPBDH@Z 10078090 f   Anim_Blend.obj
 0001:00077a20       ?ParseAnim@idDeclModelDef@@AAE_NAAVidLexer@@H@Z 10078a20 f   Anim_Blend.obj
 0001:00078100       ?PlayAnim@idAnimator@@QAEXHHHH@Z 10079100 f   Anim_Blend.obj
 0001:000782d0       ?PlayLength@idAnimBlend@@QBEHXZ 100792d0 f   Anim_Blend.obj
 0001:000782f0       ?Print@idDecl@@UBEXXZ      100792f0 f i Anim_Blend.obj
 0001:000782f0       ?ReadVec3@idRestoreGame@@QAEXAAVidVec3@@@Z 100792f0 f i SaveGame.obj
 0001:00078300       ?PushAnims@idAnimator@@AAEXHHH@Z 10079300 f   Anim_Blend.obj
 0001:000784c0       ?RemoveOrigin@idAnimator@@QBE_NXZ 100794c0 f   Anim_Blend.obj
 0001:000784d0       ?RemoveOriginOffset@idAnimator@@QAEX_N@Z 100794d0 f   Anim_Blend.obj
 0001:000784e0       ?Reset@idAnimBlend@@AAEXPBVidDeclModelDef@@@Z 100794e0 f   Anim_Blend.obj
 0001:00078540       ?Resize@?$idList@UcopyJoints_t@@@@QAEXH@Z 10079540 f i Anim_Testmodel.obj
 0001:00078540       ?Resize@?$idList@UframeCommand_t@@@@QAEXH@Z 10079540 f i Anim_Blend.obj
 0001:00078540       ?Resize@?$idList@UjointInfo_t@@@@QAEXH@Z 10079540 f i Anim_Blend.obj
 0001:000785f0       ?Resize@?$idList@UactiveSmokeStage_t@@@@QAEXH@Z 100795f0 f i SmokeParticles.obj
 0001:000785f0       ?Resize@?$idList@UframeLookup_t@@@@QAEXH@Z 100795f0 f i Anim_Blend.obj
 0001:000785f0       ?Resize@?$idList@Usignal_t@@@@QAEXH@Z 100795f0 f i Entity.obj
 0001:000785f0       ?Resize@?$idList@VidKeyValue@@@@QAEXH@Z 100795f0 f i idLib:Dict.obj
 0001:00078690       ?Resize@?$idList@VidAFPoseJointMod@@@@QAEXH@Z 10079690 f i Anim_Blend.obj
 0001:00078830       ?Restore@idAnimator@@QAEXPAVidRestoreGame@@@Z 10079830 f   Anim_Blend.obj
 0001:00078d00       ?Save@idAnimator@@QBEXPAVidSaveGame@@@Z 10079d00 f   Anim_Blend.obj
 0001:000790d0       ?ServiceAnims@idAnimator@@QAEXHH@Z 1007a0d0 f   Anim_Blend.obj
 0001:00079260       ?SetAFPoseBlendWeight@idAnimator@@QAEXM@Z 1007a260 f   Anim_Blend.obj
 0001:00079280       ?SetAFPoseJointMod@idAnimator@@QAEXW4jointHandle_t@@W4AFJointModType_t@@ABVidMat3@@ABVidVec3@@@Z 1007a280 f   Anim_Blend.obj
 0001:000793f0       ?SetCycleCount@idAnimBlend@@QAEXH@Z 1007a3f0 f   Anim_Blend.obj
 0001:000795b0       ?SetDefaultText@idDecl@@UAE_NXZ 1007a5b0 f i Anim_Blend.obj
 0001:000795c0       ?SetEntity@idAnimator@@QAEXPAVidEntity@@@Z 1007a5c0 f   Anim_Blend.obj
 0001:000795c0       ?SetMaxIterations@idLCP@@UAEXH@Z 1007a5c0 f   idLib:Lcp.obj
 0001:000795c0       ?SetSelf@idPhysics_Base@@UAEXPAVidEntity@@@Z 1007a5c0 f   Physics_Base.obj
 0001:000795c0       ?SetSelf@idPhysics_Static@@UAEXPAVidEntity@@@Z 1007a5c0 f   Physics_Static.obj
 0001:000795c0       ?SetSelf@idPhysics_StaticMulti@@UAEXPAVidEntity@@@Z 1007a5c0 f   Physics_StaticMulti.obj
 0001:000795d0       ?SetFrame@idAnimBlend@@AAEXPBVidDeclModelDef@@HHHH@Z 1007a5d0 f   Anim_Blend.obj
 0001:00079750       ?SetFrame@idAnimator@@QAEXHHHHH@Z 1007a750 f   Anim_Blend.obj
 0001:000797f0       ?SetJointAxis@idAnimator@@QAEXW4jointHandle_t@@W4jointModTransform_t@@ABVidMat3@@@Z 1007a7f0 f   Anim_Blend.obj
 0001:00079900       ?SetJointPos@idAnimator@@QAEXW4jointHandle_t@@W4jointModTransform_t@@ABVidVec3@@@Z 1007a900 f   Anim_Blend.obj
 0001:00079a50       ?SetModel@idAnimator@@QAEPAVidRenderModel@@PBD@Z 1007aa50 f   Anim_Blend.obj
 0001:00079b60       ?SetRotation@idJointMat@@QAEXABVidMat3@@@Z 1007ab60 f i Anim_Blend.obj
 0001:00079ba0       ?SetStartTime@idAnimBlend@@QAEXH@Z 1007aba0 f   Anim_Blend.obj
 0001:00079bc0       ?SetSyncedAnimWeight@idAnimBlend@@QAE_NHM@Z 1007abc0 f   Anim_Blend.obj
 0001:00079c10       ?SetupJoints@idDeclModelDef@@QBEXPAHPAPAVidJointMat@@AAVidBounds@@_N@Z 1007ac10 f   Anim_Blend.obj
 0001:00079de0       ?Size@idDecl@@UBEIXZ       1007ade0 f i Anim_Blend.obj
 0001:00079df0       ?Size@idDeclModelDef@@UBEIXZ 1007adf0 f   Anim_Blend.obj
 0001:00079e00       ?SyncAnimChannels@idAnimator@@QAEXHHHH@Z 1007ae00 f   Anim_Blend.obj
 0001:00079fd0       ?TotalMovementDelta@idAnimator@@QBEABVidVec3@@H@Z 1007afd0 f   Anim_Blend.obj
 0001:0007a010       ??0idModelExport@@QAE@XZ   1007b010 f   Anim_Import.obj
 0001:0007a0c0       ?ConvertMayaToMD5@idModelExport@@AAE_NXZ 1007b0c0 f   Anim_Import.obj
 0001:0007a4e0       ?ExportDefFile@idModelExport@@QAEHPBD@Z 1007b4e0 f   Anim_Import.obj
 0001:0007a5f0       ?ExportModel@idModelExport@@QAE_NPBD@Z 1007b5f0 f   Anim_Import.obj
 0001:0007a6d0       ?ExportModels@idModelExport@@QAEHPBD0@Z 1007b6d0 f   Anim_Import.obj
 0001:0007a900       ?ParseExportSection@idModelExport@@AAEHAAVidParser@@@Z 1007b900 f   Anim_Import.obj
 0001:0007aea0       ?ParseOptions@idModelExport@@AAE_NAAVidLexer@@@Z 1007bea0 f   Anim_Import.obj
 0001:0007b2c0       ?Shutdown@idModelExport@@SAXXZ 1007c2c0 f   Anim_Import.obj
 0001:0007b340       ?Event_Footstep@idAnimated@@AAEXXZ 1007c340 f   Misc.obj
 0001:0007b340       ?Event_Footstep@idTestModel@@AAEXXZ 1007c340 f   Anim_Testmodel.obj
 0001:0007b360       ??1idModelExport@@QAE@XZ   1007c360 f i Anim_Testmodel.obj
 0001:0007b360       ??1idObjectiveInfo@@QAE@XZ 1007c360 f i Player.obj
 0001:0007b3c0       ??_EidTestModel@@UAEPAXI@Z 1007c3c0 f i Anim_Testmodel.obj
 0001:0007b3c0       ??_GidTestModel@@UAEPAXI@Z 1007c3c0 f i Anim_Testmodel.obj
 0001:0007b550       ?ArgCompletion_TestAnim@idTestModel@@SAXABVidCmdArgs@@P6AXPBD@Z@Z 1007c550 f   Anim_Testmodel.obj
 0001:0007b5c0       ?ArgCompletion_TestModel@idTestModel@@SAXABVidCmdArgs@@P6AXPBD@Z@Z 1007c5c0 f   Anim_Testmodel.obj
 0001:0007b9b0       ?CreateInstance@idTestModel@@SAPAVidClass@@XZ 1007c9b0 f   Anim_Testmodel.obj
 0001:0007bb20       ?GetType@idTestModel@@UBEPAVidTypeInfo@@XZ 1007cb20 f   Anim_Testmodel.obj
 0001:0007bb30       ?KeepTestModel_f@idTestModel@@SAXABVidCmdArgs@@@Z 1007cb30 f   Anim_Testmodel.obj
 0001:0007bb70       ?NextAnim@idTestModel@@QAEXABVidCmdArgs@@@Z 1007cb70 f   Anim_Testmodel.obj
 0001:0007bd60       ?PrevAnim@idTestModel@@QAEXABVidCmdArgs@@@Z 1007cd60 f   Anim_Testmodel.obj
 0001:0007bf50       ?Restore@idTestModel@@QAEXPAVidRestoreGame@@@Z 1007cf50 f   Anim_Testmodel.obj
 0001:0007bf70       ?EvaluateContacts@idPhysics_Base@@UAE_NXZ 1007cf70 f   Physics_Base.obj
 0001:0007bf70       ?EvaluateContacts@idPhysics_Static@@UAE_NXZ 1007cf70 f   Physics_Static.obj
 0001:0007bf70       ?EvaluateContacts@idPhysics_StaticMulti@@UAE_NXZ 1007cf70 f   Physics_StaticMulti.obj
 0001:0007bf70       ?HasAccum@FullscreenFX@@UAE_NXZ 1007cf70 f   PlayerView.obj
 0001:0007bf70       ?HasGroundContacts@idPhysics_Static@@UBE_NXZ 1007cf70 f   Physics_Static.obj
 0001:0007bf70       ?HasGroundContacts@idPhysics_StaticMulti@@UBE_NXZ 1007cf70 f   Physics_StaticMulti.obj
 0001:0007bf70       ?IsAtRest@idPhysics_Player@@UBE_NXZ 1007cf70 f   Physics_Player.obj
 0001:0007bf70       ?IsGametypeFlagBased@idMultiplayerGame@@QAE_NXZ 1007cf70 f   MultiplayerGame.obj
 0001:0007bf70       ?IsPushable@idPhysics_Parametric@@UBE_NXZ 1007cf70 f   Physics_Parametric.obj
 0001:0007bf70       ?IsPushable@idPhysics_Static@@UBE_NXZ 1007cf70 f   Physics_Static.obj
 0001:0007bf70       ?IsPushable@idPhysics_StaticMulti@@UBE_NXZ 1007cf70 f   Physics_StaticMulti.obj
 0001:0007bf70       ?OnLadder@idActor@@UBE_NXZ 1007cf70 f   Actor.obj
 0001:0007bf70       ?ShouldConstructScriptObjectAtSpawn@idActor@@UBE_NXZ 1007cf70 f   Actor.obj
 0001:0007bf70       ?ShouldConstructScriptObjectAtSpawn@idTestModel@@UBE_NXZ 1007cf70 f   Anim_Testmodel.obj
 0001:0007bf70       ?ShouldConstructScriptObjectAtSpawn@idWeapon@@UBE_NXZ 1007cf70 f   Weapon.obj
 0001:0007bf70       ?UpdateAnimationControllers@idEntity@@UAE_NXZ 1007cf70 f   Entity.obj
 0001:0007bf80       ?Spawn@idTestModel@@QAEXXZ 1007cf80 f   Anim_Testmodel.obj
 0001:0007c730       ?TestAnim@idTestModel@@QAEXABVidCmdArgs@@@Z 1007d730 f   Anim_Testmodel.obj
 0001:0007c970       ?TestAnim_f@idTestModel@@SAXABVidCmdArgs@@@Z 1007d970 f   Anim_Testmodel.obj
 0001:0007c9a0       ?TestBlend_f@idTestModel@@SAXABVidCmdArgs@@@Z 1007d9a0 f   Anim_Testmodel.obj
 0001:0007caf0       ?TestModelNextAnim_f@idTestModel@@SAXABVidCmdArgs@@@Z 1007daf0 f   Anim_Testmodel.obj
 0001:0007cb20       ?TestModelNextFrame_f@idTestModel@@SAXABVidCmdArgs@@@Z 1007db20 f   Anim_Testmodel.obj
 0001:0007cbd0       ?TestModelPrevAnim_f@idTestModel@@SAXABVidCmdArgs@@@Z 1007dbd0 f   Anim_Testmodel.obj
 0001:0007cc00       ?TestModelPrevFrame_f@idTestModel@@SAXABVidCmdArgs@@@Z 1007dc00 f   Anim_Testmodel.obj
 0001:0007ccb0       ?TestModel_f@idTestModel@@SAXABVidCmdArgs@@@Z 1007dcb0 f   Anim_Testmodel.obj
 0001:0007cfd0       ?TestParticleStopTime_f@idTestModel@@SAXABVidCmdArgs@@@Z 1007dfd0 f   Anim_Testmodel.obj
 0001:0007d020       ?TestShaderParm_f@idTestModel@@SAXABVidCmdArgs@@@Z 1007e020 f   Anim_Testmodel.obj
 0001:0007d1c0       ?TestSkin_f@idTestModel@@SAXABVidCmdArgs@@@Z 1007e1c0 f   Anim_Testmodel.obj
 0001:0007d2f0       ?Think@idTestModel@@EAEXXZ 1007e2f0 f   Anim_Testmodel.obj
 0001:0007df80       ?Event_Remove@idClass@@QAEXXZ 1007ef80 f   Class.obj
 0001:0007df90       ?Event_SafeRemove@idClass@@AAEXXZ 1007ef90 f   Class.obj
 0001:0007dfb0       ??0idTypeInfo@@QAE@PBD0PAU?$idEventFunc@VidClass@@@@P6APAVidClass@@XZP82@AEXXZP82@BEXPAVidSaveGame@@@ZP82@AEXPAVidRestoreGame@@@Z@Z 1007efb0 f   Class.obj
 0001:0007e0e0       ??1?$idHierarchy@VidTypeInfo@@@@QAE@XZ 1007f0e0 f i Class.obj
 0001:0007e170       ??1idClass@@UAE@XZ         1007f170 f   Class.obj
 0001:0007e1b0       ??1idTypeInfo@@QAE@XZ      1007f1b0 f   Class.obj
 0001:0007e1f0       ??2idClass@@SAPAXI@Z       1007f1f0 f   Class.obj
 0001:0007e220       ??3idClass@@SAXPAX@Z       1007f220 f   Class.obj
 0001:0007e270       ??_EidClass@@UAEPAXI@Z     1007f270 f i Class.obj
 0001:0007e270       ??_GidClass@@UAEPAXI@Z     1007f270 f i Class.obj
 0001:0007e310       ?CallSpawn@idClass@@QAEXXZ 1007f310 f   Class.obj
 0001:0007e340       ?CallSpawnFunc@idClass@@AAEP81@AEXXZPAVidTypeInfo@@@Z 1007f340 f   Class.obj
 0001:0007e370       ?CancelEvents@idClass@@QAEXPBVidEventDef@@@Z 1007f370 f   Class.obj
 0001:0007e380       ?CreateInstance@idClass@@SAPAV1@XZ 1007f380 f   Class.obj
 0001:0007e3a0       ?DisplayInfo_f@idClass@@SAXABVidCmdArgs@@@Z 1007f3a0 f   Class.obj
 0001:0007e3c0       ?GetClass@idClass@@SAPAVidTypeInfo@@PBD@Z 1007f3c0 f   Class.obj
 0001:0007e460       ?GetClassname@idClass@@QBEPBDXZ 1007f460 f   Class.obj
 0001:0007e470       ?GetType@idClass@@SAPAVidTypeInfo@@H@Z 1007f470 f   Class.obj
 0001:0007e4b0       ?GetType@idClass@@UBEPAVidTypeInfo@@XZ 1007f4b0 f   Class.obj
 0001:0007e4c0       ?Init@idClass@@SAXXZ       1007f4c0 f   Class.obj
 0001:0007e670       ?Init@idTypeInfo@@QAEXXZ   1007f670 f   Class.obj
 0001:0007e7c0       ?ListClasses_f@idClass@@SAXABVidCmdArgs@@@Z 1007f7c0 f   Class.obj
 0001:0007e850       ?PostEventArgs@idClass@@AAA_NPBVidEventDef@@HHZZ 1007f850 f   Class.obj
 0001:0007e8e0       ?PostEventMS@idClass@@QAE_NPBVidEventDef@@H@Z 1007f8e0 f   Class.obj
 0001:0007e900       ?PostEventMS@idClass@@QAE_NPBVidEventDef@@HVidEventArg@@1111@Z 1007f900 f   Class.obj
 0001:0007e930       ?PostEventMS@idClass@@QAE_NPBVidEventDef@@HVidEventArg@@111@Z 1007f930 f   Class.obj
 0001:0007e960       ?PostEventMS@idClass@@QAE_NPBVidEventDef@@HVidEventArg@@1@Z 1007f960 f   Class.obj
 0001:0007e980       ?PostEventMS@idClass@@QAE_NPBVidEventDef@@HVidEventArg@@@Z 1007f980 f   Class.obj
 0001:0007e9a0       ?PostEventSec@idClass@@QAE_NPBVidEventDef@@M@Z 1007f9a0 f   Class.obj
 0001:0007e9e0       ?PostEventSec@idClass@@QAE_NPBVidEventDef@@MVidEventArg@@1@Z 1007f9e0 f   Class.obj
 0001:0007ea20       ?PostEventSec@idClass@@QAE_NPBVidEventDef@@MVidEventArg@@@Z 1007fa20 f   Class.obj
 0001:0007ea60       ?ProcessEvent@idClass@@QAE_NPBVidEventDef@@@Z 1007fa60 f   Class.obj
 0001:0007ea80       ?ProcessEvent@idClass@@QAE_NPBVidEventDef@@VidEventArg@@111@Z 1007fa80 f   Class.obj
 0001:0007eab0       ?ProcessEvent@idClass@@QAE_NPBVidEventDef@@VidEventArg@@11@Z 1007fab0 f   Class.obj
 0001:0007eae0       ?ProcessEvent@idClass@@QAE_NPBVidEventDef@@VidEventArg@@1@Z 1007fae0 f   Class.obj
 0001:0007eb00       ?ProcessEvent@idClass@@QAE_NPBVidEventDef@@VidEventArg@@@Z 1007fb00 f   Class.obj
 0001:0007eb20       ?ProcessEventArgPtr@idClass@@QAE_NPBVidEventDef@@PAH@Z 1007fb20 f   Class.obj
 0001:0007ecd0       ?ProcessEventArgs@idClass@@AAA_NPBVidEventDef@@HZZ 1007fcd0 f   Class.obj
 0001:0007ed30       ?RemoveFromParent@?$idHierarchy@VidTypeInfo@@@@QAEXXZ 1007fd30 f i Class.obj
 0001:0007eda0       ?Shutdown@idClass@@SAXXZ   1007fda0 f   Class.obj
 0001:0007ee50       ??0idEvent@@QAE@XZ         1007fe50 f i Event.obj
 0001:0007ee70       ??0idEventDef@@QAE@PBD0D@Z 1007fe70 f   Event.obj
 0001:0007f0b0       ??1idEvent@@QAE@XZ         100800b0 f   Event.obj
 0001:0007f0f0       ?Add@?$idBTree@V?$idDynamicBlock@D@@H$03@@QAEPAV?$idBTreeNode@V?$idDynamicBlock@D@@H@@PAV?$idDynamicBlock@D@@H@Z 100800f0 f i idLib:Str.obj
 0001:0007f0f0       ?Add@?$idBTree@V?$idDynamicBlock@E@@H$03@@QAEPAV?$idBTreeNode@V?$idDynamicBlock@E@@H@@PAV?$idDynamicBlock@E@@H@Z 100800f0 f i Event.obj
 0001:0007f2e0       ?AddToEnd@?$idLinkList@VidEvent@@@@QAEXAAV1@@Z 100802e0 f i Event.obj
 0001:0007f320       ?Alloc@idEvent@@SAPAV1@PBVidEventDef@@HPAD@Z 10080320 f   Event.obj
 0001:0007f6b0       ?AllocInternal@?$idDynamicBlockAlloc@E$0EAAA@$0BAA@@@AAEPAV?$idDynamicBlock@E@@H@Z 100806b0 f i Event.obj
 0001:0007f7b0       ?AllocNode@?$idBTree@V?$idDynamicBlock@D@@H$03@@AAEPAV?$idBTreeNode@V?$idDynamicBlock@D@@H@@XZ 100807b0 f i idLib:Str.obj
 0001:0007f7b0       ?AllocNode@?$idBTree@V?$idDynamicBlock@E@@H$03@@AAEPAV?$idBTreeNode@V?$idDynamicBlock@E@@H@@XZ 100807b0 f i Event.obj
 0001:0007f860       ?CancelEvents@idEvent@@SAXPBVidClass@@PBVidEventDef@@@Z 10080860 f   Event.obj
 0001:0007f910       ??1?$idLinkList@VidActor@@@@QAE@XZ 10080910 f i Actor.obj
 0001:0007f910       ??1?$idLinkList@VidEntity@@@@QAE@XZ 10080910 f i Entity.obj
 0001:0007f910       ?Clear@?$idLinkList@VidEntity@@@@QAEXXZ 10080910 f i Entity.obj
 0001:0007f910       ?Clear@?$idLinkList@VidEvent@@@@QAEXXZ 10080910 f i Event.obj
 0001:0007f960       ?ClearEventList@idEvent@@SAXXZ 10080960 f   Event.obj
 0001:0007f9a0       ?CopyArgs@idEvent@@SAXPBVidEventDef@@HPADQAH@Z 100809a0 f   Event.obj
 0001:0007fa40       ?FindEvent@idEventDef@@SAPBV1@PBD@Z 10080a40 f   Event.obj
 0001:0007fa80       ?Free@idEvent@@QAEXXZ      10080a80 f   Event.obj
 0001:0007fb10       ?FreeInternal@?$idDynamicBlockAlloc@D$0EAAAA@$0IA@@@AAEXPAV?$idDynamicBlock@D@@@Z 10080b10 f i idLib:Str.obj
 0001:0007fb10       ?FreeInternal@?$idDynamicBlockAlloc@E$0EAAA@$0BAA@@@AAEXPAV?$idDynamicBlock@E@@@Z 10080b10 f i Event.obj
 0001:0007fc60       ?Init@idEvent@@SAXXZ       10080c60 f   Event.obj
 0001:0007fcf0       ?InsertBefore@?$idLinkList@VidEvent@@@@QAEXAAV1@@Z 10080cf0 f i Event.obj
 0001:0007fd30       ?MergeNodes@?$idBTree@V?$idDynamicBlock@D@@H$03@@AAEPAV?$idBTreeNode@V?$idDynamicBlock@D@@H@@PAV2@0@Z 10080d30 f i idLib:Str.obj
 0001:0007fd30       ?MergeNodes@?$idBTree@V?$idDynamicBlock@E@@H$03@@AAEPAV?$idBTreeNode@V?$idDynamicBlock@E@@H@@PAV2@0@Z 10080d30 f i Event.obj
 0001:0007fdb0       ?NumEventCommands@idEventDef@@SAHXZ 10080db0 f   Event.obj
 0001:0007fdc0       ?Remove@?$idBTree@V?$idDynamicBlock@D@@H$03@@QAEXPAV?$idBTreeNode@V?$idDynamicBlock@D@@H@@@Z 10080dc0 f i idLib:Str.obj
 0001:0007fdc0       ?Remove@?$idBTree@V?$idDynamicBlock@E@@H$03@@QAEXPAV?$idBTreeNode@V?$idDynamicBlock@E@@H@@@Z 10080dc0 f i Event.obj
 0001:0007ff10       ?ResizeInternal@?$idDynamicBlockAlloc@E$0EAAA@$0BAA@@@AAEPAV?$idDynamicBlock@E@@PAV2@H@Z 10080f10 f i Event.obj
 0001:00080040       ?Restore@idEvent@@SAXPAVidRestoreGame@@@Z 10081040 f   Event.obj
 0001:00080630       ?Save@idEvent@@SAXPAVidSaveGame@@@Z 10081630 f   Event.obj
 0001:00080910       ?Schedule@idEvent@@QAEXPAVidClass@@PBVidTypeInfo@@H@Z 10081910 f   Event.obj
 0001:00080a90       ?ServiceEvents@idEvent@@SAXXZ 10081a90 f   Event.obj
 0001:00080c80       ?ServiceFastEvents@idEvent@@SAXXZ 10081c80 f   Event.obj
 0001:00080e70       ?Shutdown@?$idBlockAlloc@V?$idBTreeNode@V?$idDynamicBlock@D@@H@@$0IA@@@QAEXXZ 10081e70 f i idLib:Str.obj
 0001:00080e70       ?Shutdown@?$idBlockAlloc@V?$idBTreeNode@V?$idDynamicBlock@E@@H@@$0IA@@@QAEXXZ 10081e70 f i Event.obj
 0001:00080ec0       ?Shutdown@?$idDynamicBlockAlloc@D$0EAAAA@$0IA@@@QAEXXZ 10081ec0 f i idLib:Str.obj
 0001:00080ec0       ?Shutdown@?$idDynamicBlockAlloc@E$0EAAA@$0BAA@@@QAEXXZ 10081ec0 f i Event.obj
 0001:00080f90       ?Shutdown@idEvent@@SAXXZ   10081f90 f   Event.obj
 0001:00080fe0       ?SplitNode@?$idBTree@V?$idDynamicBlock@D@@H$03@@AAEXPAV?$idBTreeNode@V?$idDynamicBlock@D@@H@@@Z 10081fe0 f i idLib:Str.obj
 0001:00080fe0       ?SplitNode@?$idBTree@V?$idDynamicBlock@E@@H$03@@AAEXPAV?$idBTreeNode@V?$idDynamicBlock@E@@H@@@Z 10081fe0 f i Event.obj
 0001:00081070       ?UnlinkFreeInternal@?$idDynamicBlockAlloc@D$0EAAAA@$0IA@@@AAEXPAV?$idDynamicBlock@D@@@Z 10082070 f i idLib:Str.obj
 0001:00081070       ?UnlinkFreeInternal@?$idDynamicBlockAlloc@E$0EAAA@$0BAA@@@AAEXPAV?$idDynamicBlock@E@@@Z 10082070 f i Event.obj
 0001:000810a0       ___local_stdio_printf_options 100820a0 f i Event.obj
 0001:000810b0       _sprintf                   100820b0 f i Event.obj
 0001:000810e0       ??0idRestoreGame@@QAE@PAVidFile@@@Z 100820e0 f   SaveGame.obj
 0001:00081110       ??0idSaveGame@@QAE@PAVidFile@@@Z 10082110 f   SaveGame.obj
 0001:000812c0       ??1idRestoreGame@@QAE@XZ   100822c0 f   SaveGame.obj
 0001:000812f0       ??1idSaveGame@@QAE@XZ      100822f0 f   SaveGame.obj
 0001:000813f0       ?AddObject@idSaveGame@@QAEXPBVidClass@@@Z 100823f0 f   SaveGame.obj
 0001:00081440       ?CallRestore_r@idRestoreGame@@AAEXPBVidTypeInfo@@PAVidClass@@@Z 10082440 f   SaveGame.obj
 0001:00081480       ?CallSave_r@idSaveGame@@AAEXPBVidTypeInfo@@PBVidClass@@@Z 10082480 f   SaveGame.obj
 0001:000814c0       ?Close@idSaveGame@@QAEXXZ  100824c0 f   SaveGame.obj
 0001:00081560       ?CreateObjects@idRestoreGame@@QAEXXZ 10082560 f   SaveGame.obj
 0001:00081710       ?DeleteContents@?$idList@PAVidClass@@@@QAEX_N@Z 10082710 f i SaveGame.obj
 0001:00081790       ?DeleteObjects@idRestoreGame@@QAEXXZ 10082790 f   SaveGame.obj
 0001:000817c0       ?Error@idRestoreGame@@QAAXPBDZZ 100827c0 f   SaveGame.obj
 0001:00081820       ?Read@idRestoreGame@@QAEXPAXH@Z 10082820 f   SaveGame.obj
 0001:00081830       ?ReadAngles@idRestoreGame@@QAEXAAVidAngles@@@Z 10082830 f   SaveGame.obj
 0001:00081860       ?ReadBounds@idRestoreGame@@QAEXAAVidBounds@@@Z 10082860 f   SaveGame.obj
 0001:00081890       ?ReadBuildNumber@idRestoreGame@@QAEXXZ 10082890 f   SaveGame.obj
 0001:000818a0       ?ReadByte@idRestoreGame@@QAEXAAE@Z 100828a0 f   SaveGame.obj
 0001:000818c0       ?ReadClipModel@idRestoreGame@@QAEXAAPAVidClipModel@@@Z 100828c0 f   SaveGame.obj
 0001:00081960       ?ReadContactInfo@idRestoreGame@@QAEXAAUcontactInfo_t@@@Z 10082960 f   SaveGame.obj
 0001:000819f0       ?ReadDict@idRestoreGame@@QAEXPAVidDict@@@Z 100829f0 f   SaveGame.obj
 0001:00081ad0       ?ReadFX@idRestoreGame@@QAEXAAPBVidDeclFX@@@Z 10082ad0 f   SaveGame.obj
 0001:00081b60       ?ReadFloat@idRestoreGame@@QAEXAAM@Z 10082b60 f   SaveGame.obj
 0001:00081b70       ?ReadInt@idRestoreGame@@QAEXAAH@Z 10082b70 f   SaveGame.obj
 0001:00081b70       ?ReadJoint@idRestoreGame@@QAEXAAW4jointHandle_t@@@Z 10082b70 f   SaveGame.obj
 0001:00081b80       ?ReadMat3@idRestoreGame@@QAEXAAVidMat3@@@Z 10082b80 f   SaveGame.obj
 0001:00081b90       ?ReadMaterial@idRestoreGame@@QAEXAAPBVidMaterial@@@Z 10082b90 f   SaveGame.obj
 0001:00081c20       ?ReadModelDef@idRestoreGame@@QAEXAAPBVidDeclModelDef@@@Z 10082c20 f   SaveGame.obj
 0001:00081cb0       ?ReadObject@idRestoreGame@@QAEXAAPAVidClass@@@Z 10082cb0 f   SaveGame.obj
 0001:00081d00       ?ReadParticle@idRestoreGame@@QAEXAAPBVidDeclParticle@@@Z 10082d00 f   SaveGame.obj
 0001:00081d90       ?ReadRefSound@idRestoreGame@@QAEXAAUrefSound_t@@@Z 10082d90 f   SaveGame.obj
 0001:00081ed0       ?ReadRenderEntity@idRestoreGame@@QAEXAAUrenderEntity_s@@@Z 10082ed0 f   SaveGame.obj
 0001:000821b0       ?ReadRenderLight@idRestoreGame@@QAEXAAUrenderLight_s@@@Z 100831b0 f   SaveGame.obj
 0001:000822e0       ?ReadRenderView@idRestoreGame@@QAEXAAUrenderView_s@@@Z 100832e0 f   SaveGame.obj
 0001:00082390       ?ReadShort@idRestoreGame@@QAEXAAF@Z 10083390 f   SaveGame.obj
 0001:000823a0       ?ReadSkin@idRestoreGame@@QAEXAAPBVidDeclSkin@@@Z 100833a0 f   SaveGame.obj
 0001:00082430       ?ReadSoundShader@idRestoreGame@@QAEXAAPBVidSoundShader@@@Z 10083430 f   SaveGame.obj
 0001:000824c0       ?ReadStaticObject@idRestoreGame@@QAEXAAVidClass@@@Z 100834c0 f   SaveGame.obj
 0001:00082500       ?ReadString@idRestoreGame@@QAEXAAVidStr@@@Z 10083500 f   SaveGame.obj
 0001:00082580       ?ReadTrace@idRestoreGame@@QAEXAAUtrace_s@@@Z 10083580 f   SaveGame.obj
 0001:00082630       ?ReadTraceModel@idRestoreGame@@QAEXAAVidTraceModel@@@Z 10083630 f   SaveGame.obj
 0001:000827a0       ?ReadUserInterface@idRestoreGame@@QAEXAAPAVidUserInterface@@@Z 100837a0 f   SaveGame.obj
 0001:00082880       ?ReadUsercmd@idRestoreGame@@QAEXAAVusercmd_t@@@Z 10083880 f   SaveGame.obj
 0001:00082950       ?ReadVec4@idRestoreGame@@QAEXAAVidVec4@@@Z 10083950 f   SaveGame.obj
 0001:00082960       ?ReadVec6@idRestoreGame@@QAEXAAVidVec6@@@Z 10083960 f   SaveGame.obj
 0001:00082970       ?ReadWinding@idRestoreGame@@QAEXAAVidWinding@@@Z 10083970 f   SaveGame.obj
 0001:000829f0       ?RestoreObjects@idRestoreGame@@QAEXXZ 100839f0 f   SaveGame.obj
 0001:00082ab0       ?Write@idSaveGame@@QAEXPBXH@Z 10083ab0 f   SaveGame.obj
 0001:00082ac0       ?WriteAngles@idSaveGame@@QAEXABVidAngles@@@Z 10083ac0 f   SaveGame.obj
 0001:00082b10       ?WriteBool@idSaveGame@@QAEX_N@Z 10083b10 f   SaveGame.obj
 0001:00082b20       ?WriteBounds@idSaveGame@@QAEXABVidBounds@@@Z 10083b20 f   SaveGame.obj
 0001:00082b70       ?WriteBuildNumber@idSaveGame@@QAEXH@Z 10083b70 f   SaveGame.obj
 0001:00082b80       ?WriteByte@idSaveGame@@QAEXE@Z 10083b80 f   SaveGame.obj
 0001:00082ba0       ?WriteClipModel@idSaveGame@@QAEXPBVidClipModel@@@Z 10083ba0 f   SaveGame.obj
 0001:00082be0       ?WriteContactInfo@idSaveGame@@QAEXABUcontactInfo_t@@@Z 10083be0 f   SaveGame.obj
 0001:00082cb0       ?WriteDict@idSaveGame@@QAEXPBVidDict@@@Z 10083cb0 f   SaveGame.obj
 0001:00082d80       ?WriteFX@idSaveGame@@QAEXPBVidDeclFX@@@Z 10083d80 f   SaveGame.obj
 0001:00082d80       ?WriteMaterial@idSaveGame@@QAEXPBVidMaterial@@@Z 10083d80 f   SaveGame.obj
 0001:00082d80       ?WriteModelDef@idSaveGame@@QAEXPBVidDeclModelDef@@@Z 10083d80 f   SaveGame.obj
 0001:00082d80       ?WriteParticle@idSaveGame@@QAEXPBVidDeclParticle@@@Z 10083d80 f   SaveGame.obj
 0001:00082d80       ?WriteSkin@idSaveGame@@QAEXPBVidDeclSkin@@@Z 10083d80 f   SaveGame.obj
 0001:00082d80       ?WriteSoundShader@idSaveGame@@QAEXPBVidSoundShader@@@Z 10083d80 f   SaveGame.obj
 0001:00082de0       ?WriteFloat@idSaveGame@@QAEXM@Z 10083de0 f   SaveGame.obj
 0001:00082e00       ?WriteInt@idSaveGame@@QAEXH@Z 10083e00 f   SaveGame.obj
 0001:00082e00       ?WriteJoint@idSaveGame@@QAEXW4jointHandle_t@@@Z 10083e00 f   SaveGame.obj
 0001:00082e10       ?WriteMat3@idSaveGame@@QAEXABVidMat3@@@Z 10083e10 f   SaveGame.obj
 0001:00082e20       ?WriteObject@idSaveGame@@QAEXPBVidClass@@@Z 10083e20 f   SaveGame.obj
 0001:00082e70       ?WriteObjectList@idSaveGame@@QAEXXZ 10083e70 f   SaveGame.obj
 0001:00082ed0       ?WriteRefSound@idSaveGame@@QAEXABUrefSound_t@@@Z 10083ed0 f   SaveGame.obj
 0001:00082ff0       ?WriteRenderEntity@idSaveGame@@QAEXABUrenderEntity_s@@@Z 10083ff0 f   SaveGame.obj
 0001:00083370       ?WriteRenderLight@idSaveGame@@QAEXABUrenderLight_s@@@Z 10084370 f   SaveGame.obj
 0001:00083500       ?WriteRenderView@idSaveGame@@QAEXABUrenderView_s@@@Z 10084500 f   SaveGame.obj
 0001:000835d0       ?WriteShort@idSaveGame@@QAEXF@Z 100845d0 f   SaveGame.obj
 0001:000835e0       ?WriteStaticObject@idSaveGame@@QAEXABVidClass@@@Z 100845e0 f   SaveGame.obj
 0001:00083620       ?WriteString@idSaveGame@@QAEXPBD@Z 10084620 f   SaveGame.obj
 0001:00083660       ?WriteTrace@idSaveGame@@QAEXABUtrace_s@@@Z 10084660 f   SaveGame.obj
 0001:00083760       ?WriteTraceModel@idSaveGame@@QAEXABVidTraceModel@@@Z 10084760 f   SaveGame.obj
 0001:00083920       ?WriteUserInterface@idSaveGame@@QAEXPBVidUserInterface@@_N@Z 10084920 f   SaveGame.obj
 0001:000839b0       ?WriteUsercmd@idSaveGame@@QAEXABVusercmd_t@@@Z 100849b0 f   SaveGame.obj
 0001:00083ab0       ?WriteVec2@idSaveGame@@QAEXABVidVec2@@@Z 10084ab0 f   SaveGame.obj
 0001:00083ac0       ?WriteVec3@idSaveGame@@QAEXABVidVec3@@@Z 10084ac0 f   SaveGame.obj
 0001:00083ad0       ?WriteVec4@idSaveGame@@QAEXABVidVec4@@@Z 10084ad0 f   SaveGame.obj
 0001:00083ae0       ?WriteVec6@idSaveGame@@QAEXABVidVec6@@@Z 10084ae0 f   SaveGame.obj
 0001:00083af0       ?WriteWinding@idSaveGame@@QAEXABVidWinding@@@Z 10084af0 f   SaveGame.obj
 0001:00083b60       ??$ArgCompletion_Decl@$01@idCmdSystem@@SAXABVidCmdArgs@@P6AXPBD@Z@Z 10084b60 f i SysCmds.obj
 0001:00083b80       ??$ArgCompletion_Decl@$03@idCmdSystem@@SAXABVidCmdArgs@@P6AXPBD@Z@Z 10084b80 f i SysCmds.obj
 0001:00083ba0       ??$ArgCompletion_Decl@$04@idCmdSystem@@SAXABVidCmdArgs@@P6AXPBD@Z@Z 10084ba0 f i SysCmds.obj
 0001:00083bc0       ??$ArgCompletion_Decl@$05@idCmdSystem@@SAXABVidCmdArgs@@P6AXPBD@Z@Z 10084bc0 f i SysCmds.obj
 0001:00083be0       ??0idMapEntity@@QAE@XZ     10084be0 f i SysCmds.obj
 0001:00083c60       ??YidStr@@QAEAAV0@PBD@Z    10084c60 f i SysCmds.obj
 0001:00083d50       ?Cmd_ActiveEntityList_f@@YAXABVidCmdArgs@@@Z 10084d50 f   SysCmds.obj
 0001:000840f0       ?Cmd_CenterView_f@@YAXABVidCmdArgs@@@Z 100850f0 f   SysCmds.obj
 0001:00084140       ?Cmd_ClearLights_f@@YAXABVidCmdArgs@@@Z 10085140 f   SysCmds.obj
 0001:00084290       ?Cmd_Damage_f@@YAXABVidCmdArgs@@@Z 10085290 f   SysCmds.obj
 0001:000843b0       ?Cmd_EntityList_f@@YAXABVidCmdArgs@@@Z 100853b0 f   SysCmds.obj
 0001:00084700       ?Cmd_GetViewpos_f@@YAXABVidCmdArgs@@@Z 10085700 f   SysCmds.obj
 0001:00084780       ?Cmd_Give_f@@YAXABVidCmdArgs@@@Z 10085780 f   SysCmds.obj
 0001:00084c50       ?Cmd_God_f@@YAXABVidCmdArgs@@@Z 10085c50 f   SysCmds.obj
 0001:00084d90       ?Cmd_KillMonsters_f@@YAXABVidCmdArgs@@@Z 10085d90 f   SysCmds.obj
 0001:00084db0       ?Cmd_KillMovables_f@@YAXABVidCmdArgs@@@Z 10085db0 f   SysCmds.obj
 0001:00084de0       ?Cmd_KillRagdolls_f@@YAXABVidCmdArgs@@@Z 10085de0 f   SysCmds.obj
 0001:00084e20       ?Cmd_Kill_f@@YAXABVidCmdArgs@@@Z 10085e20 f   SysCmds.obj
 0001:000851c0       ?Cmd_ListSpawnArgs_f@@YAXABVidCmdArgs@@@Z 100861c0 f   SysCmds.obj
 0001:00085250       ?Cmd_NextGUI_f@@YAXABVidCmdArgs@@@Z 10086250 f   SysCmds.obj
 0001:000857f0       ?Cmd_Noclip_f@@YAXABVidCmdArgs@@@Z 100867f0 f   SysCmds.obj
 0001:00085850       ?Cmd_Notarget_f@@YAXABVidCmdArgs@@@Z 10086850 f   SysCmds.obj
 0001:000858c0       ?Cmd_PlayerModel_f@@YAXABVidCmdArgs@@@Z 100868c0 f   SysCmds.obj
 0001:000859a0       ?Cmd_PopLight_f@@YAXABVidCmdArgs@@@Z 100869a0 f   SysCmds.obj
 0001:00085ec0       ?Cmd_ReloadScript_f@@YAXABVidCmdArgs@@@Z 10086ec0 f   SysCmds.obj
 0001:000860e0       ?Cmd_Remove_f@@YAXABVidCmdArgs@@@Z 100870e0 f   SysCmds.obj
 0001:00087320       ?Cmd_Script_f@@YAXABVidCmdArgs@@@Z 10088320 f   SysCmds.obj
 0001:000874a0       ?Cmd_SetActorState_f@@YAXABVidCmdArgs@@@Z 100884a0 f   SysCmds.obj
 0001:00087550       ?Cmd_SetViewpos_f@@YAXABVidCmdArgs@@@Z 10088550 f   SysCmds.obj
 0001:00087960       ?Cmd_Spawn_f@@YAXABVidCmdArgs@@@Z 10088960 f   SysCmds.obj
 0001:00087ba0       ?Cmd_Teleport_f@@YAXABVidCmdArgs@@@Z 10088ba0 f   SysCmds.obj
 0001:00087ef0       ?Cmd_TestFx_f@@YAXABVidCmdArgs@@@Z 10088ef0 f   SysCmds.obj
 0001:00088080       ?Cmd_TestId_f@@YAXABVidCmdArgs@@@Z 10089080 f   SysCmds.obj
 0001:000882b0       ?Cmd_TestLight_f@@YAXABVidCmdArgs@@@Z 100892b0 f   SysCmds.obj
 0001:00088610       ?Cmd_TestPointLight_f@@YAXABVidCmdArgs@@@Z 10089610 f   SysCmds.obj
 0001:000887f0       ?Cmd_Trigger_f@@YAXABVidCmdArgs@@@Z 100897f0 f   SysCmds.obj
 0001:00088930       ?D_DrawDebugLines@@YAXXZ   10089930 f   SysCmds.obj
 0001:00088c40       ?FindEntityGUIs@@YA_NPAVidEntity@@PAPBUmodelSurface_s@@HAAH@Z 10089c40 f   SysCmds.obj
 0001:00088cf0       ?InitConsoleCommands@idGameLocal@@AAEXXZ 10089cf0 f   SysCmds.obj
 0001:000897b0       ?KillEntities@@YAXABVidCmdArgs@@ABVidTypeInfo@@@Z 1008a7b0 f   SysCmds.obj
 0001:00089aa0       ?ShutdownConsoleCommands@idGameLocal@@AAEXXZ 1008aaa0 f   SysCmds.obj
 0001:00089ab0       ??$ArgCompletion_Integer@$0A@$03@idCmdSystem@@SAXABVidCmdArgs@@P6AXPBD@Z@Z 1008aab0 f i SysCvar.obj
 0001:00089af0       ??$ArgCompletion_Integer@$0A@$06@idCmdSystem@@SAXABVidCmdArgs@@P6AXPBD@Z@Z 1008aaf0 f i SysCvar.obj
 0001:00089b30       ??$ArgCompletion_String@$1?si_gameTypeArgs@@3PAPBDA@idCmdSystem@@SAXABVidCmdArgs@@P6AXPBD@Z@Z 1008ab30 f i SysCvar.obj
 0001:00089b80       ??$ArgCompletion_String@$1?si_readyArgs@@3PAPBDA@idCmdSystem@@SAXABVidCmdArgs@@P6AXPBD@Z@Z 1008ab80 f i SysCvar.obj
 0001:00089bd0       ??$ArgCompletion_String@$1?si_spectateArgs@@3PAPBDA@idCmdSystem@@SAXABVidCmdArgs@@P6AXPBD@Z@Z 1008abd0 f i SysCvar.obj
 0001:00089c20       ??$ArgCompletion_String@$1?ui_skinArgs@@3PAPBDA@idCmdSystem@@SAXABVidCmdArgs@@P6AXPBD@Z@Z 1008ac20 f i SysCvar.obj
 0001:00089c70       ??$ArgCompletion_String@$1?ui_teamArgs@@3PAPBDA@idCmdSystem@@SAXABVidCmdArgs@@P6AXPBD@Z@Z 1008ac70 f i SysCvar.obj
 0001:00089cc0       ?ArgCompletion_Boolean@idCmdSystem@@SAXABVidCmdArgs@@P6AXPBD@Z@Z 1008acc0 f i SysCvar.obj
 0001:00089d20       ?ArgCompletion_MapName@idCmdSystem@@SAXABVidCmdArgs@@P6AXPBD@Z@Z 1008ad20 f i SysCvar.obj
 0001:00089d50       ??0idStr@@QAE@M@Z          1008ad50 f i TypeInfo.obj
 0001:00089e00       ?FindClassInfo@idTypeInfoTools@@SAPBUclassTypeInfo_t@@PBD@Z 1008ae00 f   TypeInfo.obj
 0001:00089e50       ?FindEnumInfo@idTypeInfoTools@@SAPBUenumTypeInfo_t@@PBD@Z 1008ae50 f   TypeInfo.obj
 0001:00089e90       ?GetKeyVal@idDict@@QBEPBVidKeyValue@@H@Z 1008ae90 f i TypeInfo.obj
 0001:00089eb0       ?IsAllowedToChangedFromSaveGames@@YA_NPBD00000@Z 1008aeb0 f   TypeInfo.obj
 0001:0008a010       ?IsRenderHandleVariable@@YA_NPBD00000@Z 1008b010 f   TypeInfo.obj
 0001:0008a200       ?IsSubclassOf@idTypeInfoTools@@SA_NPBD0@Z 1008b200 f   TypeInfo.obj
 0001:0008a2a0       ?ListTypeInfo_f@@YAXABVidCmdArgs@@@Z 1008b2a0 f   TypeInfo.obj
 0001:0008a4c0       ?OutputString@idTypeInfoTools@@CAPBDPBD@Z 1008b4c0 f   TypeInfo.obj
 0001:0008a5d0       ?ParseTemplateArguments@idTypeInfoTools@@CA_NAAVidLexer@@AAVidStr@@@Z 1008b5d0 f   TypeInfo.obj
 0001:0008a730       ?SortTypeInfoByName@@YAHPBH0@Z 1008b730 f   TypeInfo.obj
 0001:0008a760       ?SortTypeInfoBySize@@YAHPBH0@Z 1008b760 f   TypeInfo.obj
 0001:0008a790       ?TestSaveGame_f@@YAXABVidCmdArgs@@@Z 1008b790 f   TypeInfo.obj
 0001:0008a8d0       ?WriteClass_r@idTypeInfoTools@@CAXPBXPBD111H@Z 1008b8d0 f   TypeInfo.obj
 0001:0008a960       ?WriteGameStateVariable@idTypeInfoTools@@CAXPBD00000PBXH@Z 1008b960 f   TypeInfo.obj
 0001:0008aaa0       ?WriteGameState_f@@YAXABVidCmdArgs@@@Z 1008baa0 f   TypeInfo.obj
 0001:0008ac20       ?WriteVariable_r@idTypeInfoTools@@CAHPBXPBD111H@Z 1008bc20 f   TypeInfo.obj
 0001:0008c490       ??0idGrabber@@QAE@XZ       1008d490 f   Grabber.obj
 0001:0008c570       ??1idGrabber@@UAE@XZ       1008d570 f   Grabber.obj
 0001:0008c5e0       ??D@YA?AVidVec3@@ABV0@ABVidMat3@@@Z 1008d5e0 f i Grabber.obj
 0001:0008c660       ??_EidGrabber@@UAEPAXI@Z   1008d660 f i Grabber.obj
 0001:0008c660       ??_GidGrabber@@UAEPAXI@Z   1008d660 f i Grabber.obj
 0001:0008c710       ?AddPoint@idBounds@@QAE_NABVidVec3@@@Z 1008d710 f i Grabber.obj
 0001:0008c790       ?ApplyShake@idGrabber@@AAEXXZ 1008d790 f   Grabber.obj
 0001:0008c920       ?CreateInstance@idGrabber@@SAPAVidClass@@XZ 1008d920 f   Grabber.obj
 0001:0008ca60       ?GetType@idGrabber@@UBEPAVidTypeInfo@@XZ 1008da60 f   Grabber.obj
 0001:0008ca70       ?Initialize@idGrabber@@QAEXXZ 1008da70 f   Grabber.obj
 0001:0008cc50       ?NormalizeFast@idVec3@@QAEMXZ 1008dc50 f i Grabber.obj
 0001:0008ccf0       ?Restore@idGrabber@@QAEXPAVidRestoreGame@@@Z 1008dcf0 f   Grabber.obj
 0001:0008d070       ?Save@idGrabber@@QBEXPAVidSaveGame@@@Z 1008e070 f   Grabber.obj
 0001:0008d190       ?SetDragDistance@idGrabber@@QAEXM@Z 1008e190 f   Grabber.obj
 0001:0008d1b0       ?StartDrag@idGrabber@@AAEXPAVidEntity@@H@Z 1008e1b0 f   Grabber.obj
 0001:0008d750       ?StopDrag@idGrabber@@AAEX_N@Z 1008e750 f   Grabber.obj
 0001:0008dcc0       ?Update@idGrabber@@QAEHPAVidPlayer@@_N@Z 1008ecc0 f   Grabber.obj
 0001:0008e840       ?UpdateBeams@idGrabber@@AAEXXZ 1008f840 f   Grabber.obj
 0001:0008ea20       ?grabbableAI@idGrabber@@AAE_NPBD@Z 1008fa20 f   Grabber.obj
 0001:0008eaa0       ??0idClip@@QAE@XZ          1008faa0 f   Clip.obj
 0001:0008eb40       ??0idClipModel@@QAE@ABVidTraceModel@@@Z 1008fb40 f   Clip.obj
 0001:0008eb60       ??0idClipModel@@QAE@H@Z    1008fb60 f   Clip.obj
 0001:0008ec20       ??0idClipModel@@QAE@PBD@Z  1008fc20 f   Clip.obj
 0001:0008ecf0       ??0idClipModel@@QAE@PBV0@@Z 1008fcf0 f   Clip.obj
 0001:0008ee50       ??0idClipModel@@QAE@XZ     1008fe50 f   Clip.obj
 0001:0008ee60       ??0idTraceModel@@QAE@XZ    1008fe60 f i AFEntity.obj
 0001:0008ee60       ??0trmCache_s@@QAE@XZ      1008fe60 f i Clip.obj
 0001:0008eec0       ??1idClipModel@@QAE@XZ     1008fec0 f   Clip.obj
 0001:0008ef50       ??1idFixedWinding@@UAE@XZ  1008ff50 f i Clip.obj
 0001:0008ef80       ??4idTraceModel@@QAEAAV0@$$QAV0@@Z 1008ff80 f i AFEntity.obj
 0001:0008ef80       ??4idTraceModel@@QAEAAV0@ABV0@@Z 1008ff80 f i Clip.obj
 0001:0008f1c0       ??4trace_s@@QAEAAU0@ABU0@@Z 100901c0 f i Clip.obj
 0001:0008f270       ??_EidFixedWinding@@UAEPAXI@Z 10090270 f i Clip.obj
 0001:0008f270       ??_GidFixedWinding@@UAEPAXI@Z 10090270 f i Clip.obj
 0001:0008f2b0       ??_EidWinding@@UAEPAXI@Z   100902b0 f i Clip.obj
 0001:0008f2b0       ??_GidWinding@@UAEPAXI@Z   100902b0 f i Clip.obj
 0001:0008f2f0       ?AllocTraceModel@idClipModel@@CAHABVidTraceModel@@@Z 100902f0 f   Clip.obj
 0001:0008f4b0       ?CheckModel@idClipModel@@SAHPBD@Z 100904b0 f   Clip.obj
 0001:0008f4d0       ?Clear@idFixedWinding@@UAEXXZ 100904d0 f i Clip.obj
 0001:0008f4e0       ?Clear@idWinding@@UAEXXZ   100904e0 f i Clip.obj
 0001:0008f500       ?ClearTraceModelCache@idClipModel@@SAXXZ 10090500 f   Clip.obj
 0001:0008f580       ?ClipModelsTouchingBounds@idClip@@QBEHABVidBounds@@HPAPAVidClipModel@@H@Z 10090580 f   Clip.obj
 0001:0008f660       ?ClipModelsTouchingBounds_r@idClip@@ABEXPBUclipSector_s@@AAUlistParms_s@@@Z 10090660 f   Clip.obj
 0001:0008f760       ?Contacts@idClip@@QAEHPAUcontactInfo_t@@HABVidVec3@@ABVidVec6@@MPBVidClipModel@@ABVidMat3@@HPBVidEntity@@@Z 10090760 f   Clip.obj
 0001:0008fab0       ?Contents@idClip@@QAEHABVidVec3@@PBVidClipModel@@ABVidMat3@@HPBVidEntity@@@Z 10090ab0 f   Clip.obj
 0001:0008fd70       ?ContentsModel@idClip@@QAEHABVidVec3@@PBVidClipModel@@ABVidMat3@@HH02@Z 10090d70 f   Clip.obj
 0001:0008fde0       ?CreateClipSectors_r@idClip@@AAEPAUclipSector_s@@HABVidBounds@@AAVidVec3@@@Z 10090de0 f   Clip.obj
 0001:0008ff90       ?DrawClipModels@idClip@@QAEXABVidVec3@@MPBVidEntity@@@Z 10090f90 f   Clip.obj
 0001:000900f0       ?EntitiesTouchingBounds@idClip@@QBEHABVidBounds@@HPAPAVidEntity@@H@Z 100910f0 f   Clip.obj
 0001:000901a0       ?GetCachedTraceModel@idClipModel@@CAPAVidTraceModel@@H@Z 100911a0 f   Clip.obj
 0001:000901b0       ?GetMassProperties@idClipModel@@QBEXMAAMAAVidVec3@@AAVidMat3@@@Z 100911b0 f   Clip.obj
 0001:000902a0       ?GetTraceClipModels@idClip@@ABEHABVidBounds@@HPBVidEntity@@PAPAVidClipModel@@@Z 100912a0 f   Clip.obj
 0001:00090330       ?Handle@idClipModel@@QBEHXZ 10091330 f   Clip.obj
 0001:00090380       ?Init@idClip@@QAEXXZ       10091380 f   Clip.obj
 0001:00090520       ?Init@idClipModel@@AAEXXZ  10091520 f   Clip.obj
 0001:00090660       ?IsRotated@idMat3@@QBE_NXZ 10091660 f i Clip.obj
 0001:00090710       ?Link@idClipModel@@QAEXAAVidClip@@@Z 10091710 f   Clip.obj
 0001:00090850       ?Link@idClipModel@@QAEXAAVidClip@@PAVidEntity@@HABVidVec3@@ABVidMat3@@H@Z 10091850 f   Clip.obj
 0001:00090a30       ?Link_r@idClipModel@@AAEXPAUclipSector_s@@@Z 10091a30 f   Clip.obj
 0001:00090b10       ?LoadModel@idClipModel@@QAEXABVidTraceModel@@@Z 10091b10 f   Clip.obj
 0001:00090bc0       ?LoadModel@idClipModel@@QAEXH@Z 10091bc0 f   Clip.obj
 0001:00090c70       ?Motion@idClip@@QAE_NAAUtrace_s@@ABVidVec3@@1ABVidRotation@@PBVidClipModel@@ABVidMat3@@HPBVidEntity@@@Z 10091c70 f   Clip.obj
 0001:00091520       ?PrintStatistics@idClip@@QAEXXZ 10092520 f   Clip.obj
 0001:000915a0       ?Restore@idClipModel@@QAEXPAVidRestoreGame@@@Z 100925a0 f   Clip.obj
 0001:00091720       ?RestoreTraceModels@idClipModel@@SAXPAVidRestoreGame@@@Z 10092720 f   Clip.obj
 0001:000919c0       ?Rotation@idClip@@QAE_NAAUtrace_s@@ABVidVec3@@ABVidRotation@@PBVidClipModel@@ABVidMat3@@HPBVidEntity@@@Z 100929c0 f   Clip.obj
 0001:00091e50       ?RotationModel@idClip@@QAEXAAUtrace_s@@ABVidVec3@@ABVidRotation@@PBVidClipModel@@ABVidMat3@@HH14@Z 10092e50 f   Clip.obj
 0001:00091ec0       ?Save@idClipModel@@QBEXPAVidSaveGame@@@Z 10092ec0 f   Clip.obj
 0001:00091fa0       ?SaveTraceModels@idClipModel@@SAXPAVidSaveGame@@@Z 10092fa0 f   Clip.obj
 0001:00092010       ?SetPosition@idClipModel@@QAEXABVidVec3@@ABVidMat3@@@Z 10093010 f   Clip.obj
 0001:00092080       ?Shutdown@?$idBlockAlloc@UclipLink_s@@$0EAA@@@QAEXXZ 10093080 f i Clip.obj
 0001:000920d0       ?Shutdown@idClip@@QAEXXZ   100930d0 f   Clip.obj
 0001:00092190       ?TestHugeTranslation@@YA_NAAUtrace_s@@PBVidClipModel@@ABVidVec3@@2ABVidMat3@@@Z 10093190 f i Clip.obj
 0001:000922b0       ?TraceModelForClipModel@idClip@@ABEPBVidTraceModel@@PBVidClipModel@@@Z 100932b0 f   Clip.obj
 0001:00092320       ?TraceRenderModel@idClip@@ABEXAAUtrace_s@@ABVidVec3@@1MABVidMat3@@PAVidClipModel@@@Z 10093320 f   Clip.obj
 0001:000924c0       ?Translation@idClip@@QAE_NAAUtrace_s@@ABVidVec3@@1PBVidClipModel@@ABVidMat3@@HPBVidEntity@@@Z 100934c0 f   Clip.obj
 0001:00092810       ?TranslationEntities@idClip@@QAEXAAUtrace_s@@ABVidVec3@@1PBVidClipModel@@ABVidMat3@@HPBVidEntity@@@Z 10093810 f   Clip.obj
 0001:00092af0       ?TranslationModel@idClip@@QAEXAAUtrace_s@@ABVidVec3@@1PBVidClipModel@@ABVidMat3@@HH13@Z 10093af0 f   Clip.obj
 0001:00092b60       ?Unlink@idClipModel@@QAEXXZ 10093b60 f   Clip.obj
 0001:00092bc0       ??0idForce@@QAE@XZ         10093bc0 f   Force.obj
 0001:00092c70       ??1idForce@@UAE@XZ         10093c70 f   Force.obj
 0001:00092cd0       ??_EidForce@@UAEPAXI@Z     10093cd0 f i Force.obj
 0001:00092cd0       ??_GidForce@@UAEPAXI@Z     10093cd0 f i Force.obj
 0001:00092d60       ?ClearForceList@idForce@@SAXXZ 10093d60 f   Force.obj
 0001:00092da0       ?CreateInstance@idForce@@SAPAVidClass@@XZ 10093da0 f   Force.obj
 0001:00092eb0       ?DeletePhysics@idForce@@SAXPBVidPhysics@@@Z 10093eb0 f   Force.obj
 0001:00092ee0       ?GetType@idForce@@UBEPAVidTypeInfo@@XZ 10093ee0 f   Force.obj
 0001:00092ef0       ??0idForce_Constant@@QAE@XZ 10093ef0 f   Force_Constant.obj
 0001:00092f70       ??1idForce_Constant@@UAE@XZ 10093f70 f   Force_Constant.obj
 0001:00092f80       ??_EidForce_Constant@@UAEPAXI@Z 10093f80 f i Force_Constant.obj
 0001:00092f80       ??_GidForce_Constant@@UAEPAXI@Z 10093f80 f i Force_Constant.obj
 0001:00092fc0       ?CreateInstance@idForce_Constant@@SAPAVidClass@@XZ 10093fc0 f   Force_Constant.obj
 0001:000930d0       ?Evaluate@idForce_Constant@@UAEXH@Z 100940d0 f   Force_Constant.obj
 0001:00093230       ?GetType@idForce_Constant@@UBEPAVidTypeInfo@@XZ 10094230 f   Force_Constant.obj
 0001:00093240       ?RemovePhysics@idForce_Constant@@UAEXPBVidPhysics@@@Z 10094240 f   Force_Constant.obj
 0001:00093260       ?Restore@idForce_Constant@@QAEXPAVidRestoreGame@@@Z 10094260 f   Force_Constant.obj
 0001:00093290       ?Save@idForce_Constant@@QBEXPAVidSaveGame@@@Z 10094290 f   Force_Constant.obj
 0001:000932c0       ?SetForce@idForce_Constant@@QAEXABVidVec3@@@Z 100942c0 f   Force_Constant.obj
 0001:000932e0       ?SetPhysics@idForce_Constant@@QAEXPAVidPhysics@@@Z 100942e0 f   Force_Constant.obj
 0001:000932f0       ?SetPosition@idForce_Constant@@QAEXPAVidPhysics@@HABVidVec3@@@Z 100942f0 f   Force_Constant.obj
 0001:00093320       ??0idForce_Drag@@QAE@XZ    10094320 f   Force_Drag.obj
 0001:000933d0       ??1idForce_Drag@@UAE@XZ    100943d0 f   Force_Drag.obj
 0001:000933e0       ??_EidForce_Drag@@UAEPAXI@Z 100943e0 f i Force_Drag.obj
 0001:000933e0       ??_GidForce_Drag@@UAEPAXI@Z 100943e0 f i Force_Drag.obj
 0001:00093420       ?CreateInstance@idForce_Drag@@SAPAVidClass@@XZ 10094420 f   Force_Drag.obj
 0001:00093560       ?Evaluate@idForce_Drag@@UAEXH@Z 10094560 f   Force_Drag.obj
 0001:00093aa0       ?GetType@idForce_Drag@@UBEPAVidTypeInfo@@XZ 10094aa0 f   Force_Drag.obj
 0001:00093ab0       ?Init@idForce_Drag@@QAEXM@Z 10094ab0 f   Force_Drag.obj
 0001:00093ab0       ?Init@idForce_Grab@@QAEXM@Z 10094ab0 f   Force_Grab.obj
 0001:00093ae0       ?RemovePhysics@idForce_Drag@@UAEXPBVidPhysics@@@Z 10094ae0 f   Force_Drag.obj
 0001:00093b00       ?SetDragPosition@idForce_Drag@@QAEXABVidVec3@@@Z 10094b00 f   Force_Drag.obj
 0001:00093b20       ?SetPhysics@idForce_Drag@@QAEXPAVidPhysics@@HABVidVec3@@@Z 10094b20 f   Force_Drag.obj
 0001:00093b50       ??0idForce_Field@@QAE@XZ   10094b50 f   Force_Field.obj
 0001:00093bb0       ??1idForce_Field@@UAE@XZ   10094bb0 f   Force_Field.obj
 0001:00093be0       ??_EidForce_Field@@UAEPAXI@Z 10094be0 f i Force_Field.obj
 0001:00093be0       ??_GidForce_Field@@UAEPAXI@Z 10094be0 f i Force_Field.obj
 0001:00093c40       ?CreateInstance@idForce_Field@@SAPAVidClass@@XZ 10094c40 f   Force_Field.obj
 0001:00093d30       ?Evaluate@idForce_Field@@UAEXH@Z 10094d30 f   Force_Field.obj
 0001:000943f0       ?Explosion@idForce_Field@@QAEXM@Z 100953f0 f   Force_Field.obj
 0001:00094410       ?GetType@idForce_Field@@UBEPAVidTypeInfo@@XZ 10095410 f   Force_Field.obj
 0001:00094420       ?Implosion@idForce_Field@@QAEXM@Z 10095420 f   Force_Field.obj
 0001:00094440       ?RandomTorque@idForce_Field@@QAEXM@Z 10095440 f   Force_Field.obj
 0001:00094450       ?Restore@idForce_Field@@QAEXPAVidRestoreGame@@@Z 10095450 f   Force_Field.obj
 0001:000944c0       ?Save@idForce_Field@@QBEXPAVidSaveGame@@@Z 100954c0 f   Force_Field.obj
 0001:00094540       ?SetClipModel@idForce_Field@@QAEXPAVidClipModel@@@Z 10095540 f   Force_Field.obj
 0001:00094580       ?Uniform@idForce_Field@@QAEXABVidVec3@@@Z 10095580 f   Force_Field.obj
 0001:000945b0       ??0idForce_Grab@@QAE@XZ    100955b0 f   Force_Grab.obj
 0001:000945e0       ??1idForce_Grab@@UAE@XZ    100955e0 f   Force_Grab.obj
 0001:000945f0       ??_EidForce_Grab@@UAEPAXI@Z 100955f0 f i Force_Grab.obj
 0001:000945f0       ??_GidForce_Grab@@UAEPAXI@Z 100955f0 f i Force_Grab.obj
 0001:00094630       ?CreateInstance@idForce_Grab@@SAPAVidClass@@XZ 10095630 f   Force_Grab.obj
 0001:000946f0       ?Evaluate@idForce_Grab@@UAEXH@Z 100956f0 f   Force_Grab.obj
 0001:00094aa0       ?GetDistanceToGoal@idForce_Grab@@QAEMXZ 10095aa0 f   Force_Grab.obj
 0001:00094ab0       ?GetType@idForce_Grab@@UBEPAVidTypeInfo@@XZ 10095ab0 f   Force_Grab.obj
 0001:00094ac0       ?RemovePhysics@idForce_Grab@@UAEXPBVidPhysics@@@Z 10095ac0 f   Force_Grab.obj
 0001:00094ae0       ?Restore@idForce_Grab@@QAEXPAVidRestoreGame@@@Z 10095ae0 f   Force_Grab.obj
 0001:00094b20       ?Save@idForce_Grab@@QBEXPAVidSaveGame@@@Z 10095b20 f   Force_Grab.obj
 0001:00094b70       ?SetGoalPosition@idForce_Grab@@QAEXABVidVec3@@@Z 10095b70 f   Force_Grab.obj
 0001:00094b90       ?SetPhysics@idForce_Grab@@QAEXPAVidPhysics@@HABVidVec3@@@Z 10095b90 f   Force_Grab.obj
 0001:00094bc0       ??0idForce_Spring@@QAE@XZ  10095bc0 f   Force_Spring.obj
 0001:00094c60       ??1idForce_Spring@@UAE@XZ  10095c60 f   Force_Spring.obj
 0001:00094c70       ??_EidForce_Spring@@UAEPAXI@Z 10095c70 f i Force_Spring.obj
 0001:00094c70       ??_GidForce_Spring@@UAEPAXI@Z 10095c70 f i Force_Spring.obj
 0001:00094cb0       ?CreateInstance@idForce_Spring@@SAPAVidClass@@XZ 10095cb0 f   Force_Spring.obj
 0001:00094de0       ?Evaluate@idForce_Spring@@UAEXH@Z 10095de0 f   Force_Spring.obj
 0001:000953d0       ?GetType@idForce_Spring@@UBEPAVidTypeInfo@@XZ 100963d0 f   Force_Spring.obj
 0001:000953e0       ?InitSpring@idForce_Spring@@QAEXMMMM@Z 100963e0 f   Force_Spring.obj
 0001:00095410       ?RemovePhysics@idForce_Spring@@UAEXPBVidPhysics@@@Z 10096410 f   Force_Spring.obj
 0001:00095430       ?SetPosition@idForce_Spring@@QAEXPAVidPhysics@@HABVidVec3@@0H1@Z 10096430 f   Force_Spring.obj
 0001:00095480       ??1idPhysics@@UAE@XZ       10096480 f   Physics.obj
 0001:00095490       ??_EidPhysics@@UAEPAXI@Z   10096490 f i Physics.obj
 0001:00095490       ??_GidPhysics@@UAEPAXI@Z   10096490 f i Physics.obj
 0001:000954d0       ?CreateInstance@idPhysics@@SAPAVidClass@@XZ 100964d0 f   Physics.obj
 0001:000954f0       ?GetType@idPhysics@@UBEPAVidTypeInfo@@XZ 100964f0 f   Physics.obj
 0001:00095500       ?SetClipBox@idPhysics@@UAEXABVidBounds@@M@Z 10096500 f   Physics.obj
 0001:000955a0       ?SnapTimeToPhysicsFrame@idPhysics@@SAHH@Z 100965a0 f   Physics.obj
 0001:000955c0       ??0idPhysics_Actor@@QAE@XZ 100965c0 f   Physics_Actor.obj
 0001:00095650       ??1idPhysics_Actor@@UAE@XZ 10096650 f   Physics_Actor.obj
 0001:00095690       ??_EidPhysics_Actor@@UAEPAXI@Z 10096690 f i Physics_Actor.obj
 0001:00095690       ??_GidPhysics_Actor@@UAEPAXI@Z 10096690 f i Physics_Actor.obj
 0001:00095700       ?ClipContents@idPhysics_Actor@@UBEHPBVidClipModel@@@Z 10096700 f   Physics_Actor.obj
 0001:00095750       ?ClipRotation@idPhysics_Actor@@UBEXAAUtrace_s@@ABVidRotation@@PBVidClipModel@@@Z 10096750 f   Physics_Actor.obj
 0001:000957c0       ?ClipTranslation@idPhysics_Actor@@UBEXAAUtrace_s@@ABVidVec3@@PBVidClipModel@@@Z 100967c0 f   Physics_Actor.obj
 0001:000958a0       ?CreateInstance@idPhysics_Actor@@SAPAVidClass@@XZ 100968a0 f   Physics_Actor.obj
 0001:00095990       ?DisableClip@idPhysics_Actor@@UAEXXZ 10096990 f   Physics_Actor.obj
 0001:000959a0       ?EnableClip@idPhysics_Actor@@UAEXXZ 100969a0 f   Physics_Actor.obj
 0001:000959b0       ?EvaluateContacts@idPhysics_Actor@@UAE_NXZ 100969b0 f   Physics_Actor.obj
 0001:000959e0       ?GetAbsBounds@idPhysics_Actor@@UBEABVidBounds@@H@Z 100969e0 f   Physics_Actor.obj
 0001:000959f0       ?GetAxis@idPhysics_Actor@@UBEABVidMat3@@H@Z 100969f0 f   Physics_Actor.obj
 0001:00095a00       ?GetBounds@idPhysics_Actor@@UBEABVidBounds@@H@Z 10096a00 f   Physics_Actor.obj
 0001:00095a10       ?GetClipModel@idPhysics_Actor@@UBEPAVidClipModel@@H@Z 10096a10 f   Physics_Actor.obj
 0001:00095a20       ?GetContents@idPhysics_Actor@@UBEHH@Z 10096a20 f   Physics_Actor.obj
 0001:00095a30       ?GetGravityAxis@idPhysics_Actor@@QBEABVidMat3@@XZ 10096a30 f   Physics_Actor.obj
 0001:00095a40       ?GetGroundEntity@idPhysics_Actor@@QBEPAVidEntity@@XZ 10096a40 f   Physics_Actor.obj
 0001:00095a70       ?GetMass@idPhysics_Actor@@UBEMH@Z 10096a70 f   Physics_Actor.obj
 0001:00095a80       ?GetMasterDeltaYaw@idPhysics_Actor@@QBEMXZ 10096a80 f   Physics_Actor.obj
 0001:00095a90       ?GetDefaultSurfaceType@idAnimatedEntity@@UBEHXZ 10096a90 f   Entity.obj
 0001:00095a90       ?GetNumClipModels@idPhysics_Actor@@UBEHXZ 10096a90 f   Physics_Actor.obj
 0001:00095a90       ?GetNumClipModels@idPhysics_RigidBody@@UBEHXZ 10096a90 f   Physics_RigidBody.obj
 0001:00095aa0       ?GetOrigin@idPhysics_Actor@@UBEABVidVec3@@H@Z 10096aa0 f   Physics_Actor.obj
 0001:00095ab0       ?GetType@idPhysics_Actor@@UBEPAVidTypeInfo@@XZ 10096ab0 f   Physics_Actor.obj
 0001:00095ac0       ?IsPushable@idPhysics_Actor@@UBE_NXZ 10096ac0 f   Physics_Actor.obj
 0001:00095ad0       ?LinkClip@idPhysics_Actor@@UAEXXZ 10096ad0 f   Physics_Actor.obj
 0001:00095af0       ?Restore@idPhysics_Actor@@QAEXPAVidRestoreGame@@@Z 10096af0 f   Physics_Actor.obj
 0001:00095b60       ?Save@idPhysics_Actor@@QBEXPAVidSaveGame@@@Z 10096b60 f   Physics_Actor.obj
 0001:00095bf0       ?SetClipModel@idPhysics_Actor@@UAEXPAVidClipModel@@MH_N@Z 10096bf0 f   Physics_Actor.obj
 0001:00095c50       ?SetClipModelAxis@idPhysics_Actor@@QAEXXZ 10096c50 f   Physics_Actor.obj
 0001:00095ea0       ?SetContents@idPhysics_Actor@@UAEXHH@Z 10096ea0 f   Physics_Actor.obj
 0001:00095eb0       ?SetGravity@idPhysics_Actor@@UAEXABVidVec3@@@Z 10096eb0 f   Physics_Actor.obj
 0001:00095f00       ?SetMass@idPhysics_Actor@@UAEXMH@Z 10096f00 f   Physics_Actor.obj
 0001:00095f20       ?UnlinkClip@idPhysics_Actor@@UAEXXZ 10096f20 f   Physics_Actor.obj
 0001:00095f30       ??0idAFBody@@QAE@ABVidStr@@PAVidClipModel@@M@Z 10096f30 f   Physics_AF.obj
 0001:000961a0       ??0idAFBody@@QAE@XZ        100971a0 f   Physics_AF.obj
 0001:00096350       ??0idAFConstraint@@QAE@XZ  10097350 f   Physics_AF.obj
 0001:00096720       ??0idAFConstraint_BallAndSocketJoint@@QAE@ABVidStr@@PAVidAFBody@@1@Z 10097720 f   Physics_AF.obj
 0001:000967f0       ??0idAFConstraint_ConeLimit@@QAE@XZ 100977f0 f   Physics_AF.obj
 0001:00096860       ??0idAFConstraint_Fixed@@QAE@ABVidStr@@PAVidAFBody@@1@Z 10097860 f   Physics_AF.obj
 0001:00096910       ??0idAFConstraint_Hinge@@QAE@ABVidStr@@PAVidAFBody@@1@Z 10097910 f   Physics_AF.obj
 0001:00096aa0       ??0idAFConstraint_HingeFriction@@QAE@XZ 10097aa0 f   Physics_AF.obj
 0001:00096b20       ??0idAFConstraint_HingeSteering@@QAE@XZ 10097b20 f   Physics_AF.obj
 0001:00096bb0       ??0idAFConstraint_Slider@@QAE@ABVidStr@@PAVidAFBody@@1@Z 10097bb0 f   Physics_AF.obj
 0001:00096f50       ??0idAFConstraint_Spring@@QAE@ABVidStr@@PAVidAFBody@@1@Z 10097f50 f   Physics_AF.obj
 0001:00097030       ??0idAFConstraint_Suspension@@QAE@XZ 10098030 f   Physics_AF.obj
 0001:000971d0       ??0idAFConstraint_UniversalJoint@@QAE@ABVidStr@@PAVidAFBody@@1@Z 100981d0 f   Physics_AF.obj
 0001:000972a0       ??0idPhysics_AF@@QAE@XZ    100982a0 f   Physics_AF.obj
 0001:00097730       ??1idAFBody@@QAE@XZ        10098730 f   Physics_AF.obj
 0001:00097990       ??1idAFConstraint@@UAE@XZ  10098990 f   Physics_AF.obj
 0001:00097c20       ??1idMatX@@QAE@XZ          10098c20 f i Physics_AF.obj
 0001:00097c80       ??1idPhysics_AF@@UAE@XZ    10098c80 f   Physics_AF.obj
 0001:00097f10       ??1idVecX@@QAE@XZ          10098f10 f i Physics_AF.obj
 0001:00097f70       ??4AFBodyPState_s@@QAEAAU0@ABU0@@Z 10098f70 f i Physics_AF.obj
 0001:00097ff0       ??4idRotation@@QAEAAV0@$$QAV0@@Z 10098ff0 f i Physics_AF.obj
 0001:00097ff0       ??4idRotation@@QAEAAV0@ABV0@@Z 10098ff0 f i Push.obj
 0001:00098060       ??9idMat3@@QBE_NABV0@@Z    10099060 f i Physics_AF.obj
 0001:00098100       ??XidMat3@@QAEAAV0@ABV0@@Z 10099100 f i Physics_AF.obj
 0001:00098270       ??_EidAFConstraint@@UAEPAXI@Z 10099270 f i Physics_AF.obj
 0001:00098270       ??_GidAFConstraint@@UAEPAXI@Z 10099270 f i Physics_AF.obj
 0001:000982a0       ??_EidAFConstraint_BallAndSocketJoint@@UAEPAXI@Z 100992a0 f i Physics_AF.obj
 0001:000982a0       ??_GidAFConstraint_BallAndSocketJoint@@UAEPAXI@Z 100992a0 f i Physics_AF.obj
 0001:000982f0       ??_EidAFConstraint_BallAndSocketJointFriction@@UAEPAXI@Z 100992f0 f i Physics_AF.obj
 0001:000982f0       ??_EidAFConstraint_ContactFriction@@UAEPAXI@Z 100992f0 f i Physics_AF.obj
 0001:000982f0       ??_EidAFConstraint_HingeFriction@@UAEPAXI@Z 100992f0 f i Physics_AF.obj
 0001:000982f0       ??_EidAFConstraint_UniversalJointFriction@@UAEPAXI@Z 100992f0 f i Physics_AF.obj
 0001:000982f0       ??_GidAFConstraint_BallAndSocketJointFriction@@UAEPAXI@Z 100992f0 f i Physics_AF.obj
 0001:000982f0       ??_GidAFConstraint_ContactFriction@@UAEPAXI@Z 100992f0 f i Physics_AF.obj
 0001:000982f0       ??_GidAFConstraint_HingeFriction@@UAEPAXI@Z 100992f0 f i Physics_AF.obj
 0001:000982f0       ??_GidAFConstraint_UniversalJointFriction@@UAEPAXI@Z 100992f0 f i Physics_AF.obj
 0001:00098320       ??_EidAFConstraint_ConeLimit@@UAEPAXI@Z 10099320 f i Physics_AF.obj
 0001:00098320       ??_GidAFConstraint_ConeLimit@@UAEPAXI@Z 10099320 f i Physics_AF.obj
 0001:00098350       ??_EidAFConstraint_Contact@@UAEPAXI@Z 10099350 f i Physics_AF.obj
 0001:00098350       ??_GidAFConstraint_Contact@@UAEPAXI@Z 10099350 f i Physics_AF.obj
 0001:00098390       ??_EidAFConstraint_Fixed@@UAEPAXI@Z 10099390 f i Physics_AF.obj
 0001:00098390       ??_EidAFConstraint_Spring@@UAEPAXI@Z 10099390 f i Physics_AF.obj
 0001:00098390       ??_GidAFConstraint_Fixed@@UAEPAXI@Z 10099390 f i Physics_AF.obj
 0001:00098390       ??_GidAFConstraint_Spring@@UAEPAXI@Z 10099390 f i Physics_AF.obj
 0001:000983c0       ??_EidAFConstraint_Hinge@@UAEPAXI@Z 100993c0 f i Physics_AF.obj
 0001:000983c0       ??_GidAFConstraint_Hinge@@UAEPAXI@Z 100993c0 f i Physics_AF.obj
 0001:00098420       ??_EidAFConstraint_HingeSteering@@UAEPAXI@Z 10099420 f i Physics_AF.obj
 0001:00098420       ??_GidAFConstraint_HingeSteering@@UAEPAXI@Z 10099420 f i Physics_AF.obj
 0001:00098450       ??_EidAFConstraint_PyramidLimit@@UAEPAXI@Z 10099450 f i Physics_AF.obj
 0001:00098450       ??_GidAFConstraint_PyramidLimit@@UAEPAXI@Z 10099450 f i Physics_AF.obj
 0001:00098480       ??_EidAFConstraint_Slider@@UAEPAXI@Z 10099480 f i Physics_AF.obj
 0001:00098480       ??_GidAFConstraint_Slider@@UAEPAXI@Z 10099480 f i Physics_AF.obj
 0001:000984b0       ??_EidAFConstraint_Suspension@@UAEPAXI@Z 100994b0 f i Physics_AF.obj
 0001:000984b0       ??_GidAFConstraint_Suspension@@UAEPAXI@Z 100994b0 f i Physics_AF.obj
 0001:000984e0       ??_EidAFConstraint_UniversalJoint@@UAEPAXI@Z 100994e0 f i Physics_AF.obj
 0001:000984e0       ??_GidAFConstraint_UniversalJoint@@UAEPAXI@Z 100994e0 f i Physics_AF.obj
 0001:00098540       ??_EidPhysics_AF@@UAEPAXI@Z 10099540 f i Physics_AF.obj
 0001:00098540       ??_GidPhysics_AF@@UAEPAXI@Z 10099540 f i Physics_AF.obj
 0001:00098580       ?Activate@idPhysics_AF@@UAEXXZ 10099580 f   Physics_AF.obj
 0001:000985c0       ?Add@idAFConstraint_BallAndSocketJointFriction@@QAE_NPAVidPhysics_AF@@M@Z 100995c0 f   Physics_AF.obj
 0001:00098760       ?Add@idAFConstraint_ConeLimit@@QAE_NPAVidPhysics_AF@@M@Z 10099760 f   Physics_AF.obj
 0001:00098e50       ?Add@idAFConstraint_ContactFriction@@QAE_NPAVidPhysics_AF@@M@Z 10099e50 f   Physics_AF.obj
 0001:00099870       ?Add@idAFConstraint_HingeFriction@@QAE_NPAVidPhysics_AF@@M@Z 1009a870 f   Physics_AF.obj
 0001:00099b70       ?Add@idAFConstraint_HingeSteering@@QAE_NPAVidPhysics_AF@@M@Z 1009ab70 f   Physics_AF.obj
 0001:00099e50       ?Add@idAFConstraint_PyramidLimit@@QAE_NPAVidPhysics_AF@@M@Z 1009ae50 f   Physics_AF.obj
 0001:0009aa30       ?Add@idAFConstraint_UniversalJointFriction@@QAE_NPAVidPhysics_AF@@M@Z 1009ba30 f   Physics_AF.obj
 0001:0009acf0       ?AddBody@idPhysics_AF@@QAEHPAVidAFBody@@@Z 1009bcf0 f   Physics_AF.obj
 0001:0009ade0       ?AddConstraint@idPhysics_AF@@QAEXPAVidAFConstraint@@@Z 1009bde0 f   Physics_AF.obj
 0001:0009af30       ?AddForce@idPhysics_AF@@UAEXHABVidVec3@@0@Z 1009bf30 f   Physics_AF.obj
 0001:0009b030       ?AddGravity@idPhysics_AF@@AAEXXZ 1009c030 f   Physics_AF.obj
 0001:0009b0b0       ?AddPushVelocity@idPhysics_AF@@AAEXABVidVec6@@@Z 1009c0b0 f   Physics_AF.obj
 0001:0009b1a0       ?ApplyCollisions@idPhysics_AF@@AAE_NM@Z 1009c1a0 f   Physics_AF.obj
 0001:0009ba50       ?ApplyFriction@idAFConstraint_BallAndSocketJoint@@MAEXM@Z 1009ca50 f   Physics_AF.obj
 0001:0009bc90       ?ApplyFriction@idAFConstraint_Contact@@MAEXM@Z 1009cc90 f   Physics_AF.obj
 0001:0009c230       ?ApplyFriction@idAFConstraint_Hinge@@MAEXM@Z 1009d230 f   Physics_AF.obj
 0001:0009c430       ?ApplyFriction@idAFConstraint_UniversalJoint@@MAEXM@Z 1009d430 f   Physics_AF.obj
 0001:0009c670       ?ApplyFriction@idPhysics_AF@@AAEXMM@Z 1009d670 f   Physics_AF.obj
 0001:0009c840       ?ApplyImpulse@idPhysics_AF@@UAEXHABVidVec3@@0@Z 1009d840 f   Physics_AF.obj
 0001:0009caa0       ?AuxiliaryForces@idPhysics_AF@@AAEXM@Z 1009daa0 f   Physics_AF.obj
 0001:0009db90       ?BuildTrees@idPhysics_AF@@AAEXXZ 1009eb90 f   Physics_AF.obj
 0001:0009e7a0       ?CalculateForces@idAFTree@@QBEXM@Z 1009f7a0 f   Physics_AF.obj
 0001:0009f000       ?ChangeSize@idVecX@@QAEXH_N@Z 100a0000 f i Physics_AF.obj
 0001:0009f0f0       ?CheckForCollisions@idPhysics_AF@@AAEXM@Z 100a00f0 f   Physics_AF.obj
 0001:0009f620       ?ClipContents@idPhysics_AF@@UBEHPBVidClipModel@@@Z 100a0620 f   Physics_AF.obj
 0001:0009f6a0       ?ClipRotation@idPhysics_AF@@UBEXAAUtrace_s@@ABVidRotation@@PBVidClipModel@@@Z 100a06a0 f   Physics_AF.obj
 0001:0009fb90       ?ClipTranslation@idPhysics_AF@@UBEXAAUtrace_s@@ABVidVec3@@PBVidClipModel@@@Z 100a0b90 f   Physics_AF.obj
 0001:0009fe00       ?CreateInstance@idPhysics_AF@@SAPAVidClass@@XZ 100a0e00 f   Physics_AF.obj
 0001:0009feb0       ?DebugDraw@idAFConstraint_BallAndSocketJoint@@UAEXXZ 100a0eb0 f   Physics_AF.obj
 0001:000a0120       ?DebugDraw@idAFConstraint_ConeLimit@@UAEXXZ 100a1120 f   Physics_AF.obj
 0001:000a0730       ?DebugDraw@idAFConstraint_Contact@@UAEXXZ 100a1730 f   Physics_AF.obj
 0001:000a0910       ?DebugDraw@idAFConstraint_Fixed@@UAEXXZ 100a1910 f   Physics_AF.obj
 0001:000a0960       ?DebugDraw@idAFConstraint_Hinge@@UAEXXZ 100a1960 f   Physics_AF.obj
 0001:000a0cc0       ?DebugDraw@idAFConstraint_PyramidLimit@@UAEXXZ 100a1cc0 f   Physics_AF.obj
 0001:000a1670       ?DebugDraw@idAFConstraint_Slider@@UAEXXZ 100a2670 f   Physics_AF.obj
 0001:000a1910       ?DebugDraw@idAFConstraint_Spring@@UAEXXZ 100a2910 f   Physics_AF.obj
 0001:000a1f80       ?DebugDraw@idAFConstraint_Suspension@@UAEXXZ 100a2f80 f   Physics_AF.obj
 0001:000a2380       ?DebugDraw@idAFConstraint_UniversalJoint@@UAEXXZ 100a3380 f   Physics_AF.obj
 0001:000a2d50       ?DebugDraw@idPhysics_AF@@AAEXXZ 100a3d50 f   Physics_AF.obj
 0001:000a3600       ?DeleteBody@idPhysics_AF@@QAEXH@Z 100a4600 f   Physics_AF.obj
 0001:000a3730       ?DeleteConstraint@idPhysics_AF@@QAEXH@Z 100a4730 f   Physics_AF.obj
 0001:000a37a0       ?DeleteConstraint@idPhysics_AF@@QAEXPBD@Z 100a47a0 f   Physics_AF.obj
 0001:000a3860       ?DeleteContents@?$idList@PAVidAFTree@@@@QAEX_N@Z 100a4860 f i Physics_AF.obj
 0001:000a3910       ?DisableClip@idPhysics_AF@@UAEXXZ 100a4910 f   Physics_AF.obj
 0001:000a3940       ?EnableClip@idPhysics_AF@@UAEXXZ 100a4940 f   Physics_AF.obj
 0001:000a3970       ?EnableImpact@idPhysics_AF@@QAEXXZ 100a4970 f   Physics_AF.obj
 0001:000a3980       ?Evaluate@idAFConstraint_BallAndSocketJoint@@MAEXM@Z 100a4980 f   Physics_AF.obj
 0001:000a3d50       ?Evaluate@idAFConstraint_Fixed@@MAEXM@Z 100a4d50 f   Physics_AF.obj
 0001:000a46e0       ?Evaluate@idAFConstraint_Hinge@@MAEXM@Z 100a56e0 f   Physics_AF.obj
 0001:000a4fe0       ?Evaluate@idAFConstraint_Slider@@MAEXM@Z 100a5fe0 f   Physics_AF.obj
 0001:000a5e00       ?Evaluate@idAFConstraint_Spring@@MAEXM@Z 100a6e00 f   Physics_AF.obj
 0001:000a67b0       ?Evaluate@idAFConstraint_Suspension@@MAEXM@Z 100a77b0 f   Physics_AF.obj
 0001:000a7580       ?Evaluate@idAFConstraint_UniversalJoint@@MAEXM@Z 100a8580 f   Physics_AF.obj
 0001:000a8410       ?Evaluate@idPhysics_AF@@UAE_NHH@Z 100a9410 f   Physics_AF.obj
 0001:000a8f90       ?EvaluateBodies@idPhysics_AF@@AAEXM@Z 100a9f90 f   Physics_AF.obj
 0001:000a9ef0       ?EvaluateConstraints@idPhysics_AF@@AAEXM@Z 100aaef0 f   Physics_AF.obj
 0001:000aa130       ?EvaluateContacts@idPhysics_AF@@UAE_NXZ 100ab130 f   Physics_AF.obj
 0001:000aa880       ?Evolve@idPhysics_AF@@AAEXM@Z 100ab880 f   Physics_AF.obj
 0001:000ab410       ?Factor@idAFTree@@QBEXXZ   100ac410 f   Physics_AF.obj
 0001:000abbc0       ?ForceBodyId@idPhysics_AF@@QAEXPAVidAFBody@@H@Z 100acbc0 f   Physics_AF.obj
 0001:000abc30       ?GetAbsBounds@idPhysics_AF@@UBEABVidBounds@@H@Z 100acc30 f   Physics_AF.obj
 0001:000abda0       ?GetAnchor@idAFConstraint_BallAndSocketJoint@@QBE?AVidVec3@@XZ 100acda0 f   Physics_AF.obj
 0001:000abda0       ?GetAnchor@idAFConstraint_Hinge@@QBE?AVidVec3@@XZ 100acda0 f   Physics_AF.obj
 0001:000abda0       ?GetAnchor@idAFConstraint_UniversalJoint@@QBE?AVidVec3@@XZ 100acda0 f   Physics_AF.obj
 0001:000abe60       ?GetAngle@idAFConstraint_Hinge@@QBEMXZ 100ace60 f   Physics_AF.obj
 0001:000ac290       ?GetAngularVelocity@idPhysics_AF@@UBEABVidVec3@@H@Z 100ad290 f   Physics_AF.obj
 0001:000ac2c0       ?GetAxis@idPhysics_AF@@UBEABVidMat3@@H@Z 100ad2c0 f   Physics_AF.obj
 0001:000ac2f0       ?GetBody@idPhysics_AF@@QBEPAVidAFBody@@H@Z 100ad2f0 f   Physics_AF.obj
 0001:000ac320       ?GetBody@idPhysics_AF@@QBEPAVidAFBody@@PBD@Z 100ad320 f   Physics_AF.obj
 0001:000ac370       ?GetBodyContactConstraints@idPhysics_AF@@QBEHHQAPAVidAFConstraint_Contact@@H@Z 100ad370 f   Physics_AF.obj
 0001:000ac3e0       ?GetBodyId@idPhysics_AF@@QBEHPAVidAFBody@@@Z 100ad3e0 f   Physics_AF.obj
 0001:000ac430       ?GetBodyId@idPhysics_AF@@QBEHPBD@Z 100ad430 f   Physics_AF.obj
 0001:000ac480       ?GetBounds@idPhysics_AF@@UBEABVidBounds@@H@Z 100ad480 f   Physics_AF.obj
 0001:000ac8b0       ?GetCenter@idAFConstraint@@UAEXAAVidVec3@@@Z 100ad8b0 f   Physics_AF.obj
 0001:000ac8d0       ?GetCenter@idAFConstraint_BallAndSocketJoint@@UAEXAAVidVec3@@@Z 100ad8d0 f   Physics_AF.obj
 0001:000ac8d0       ?GetCenter@idAFConstraint_Hinge@@UAEXAAVidVec3@@@Z 100ad8d0 f   Physics_AF.obj
 0001:000ac8d0       ?GetCenter@idAFConstraint_UniversalJoint@@UAEXAAVidVec3@@@Z 100ad8d0 f   Physics_AF.obj
 0001:000ac970       ?GetCenter@idAFConstraint_Contact@@UAEXAAVidVec3@@@Z 100ad970 f   Physics_AF.obj
 0001:000ac9a0       ?GetCenter@idAFConstraint_Fixed@@UAEXAAVidVec3@@@Z 100ad9a0 f   Physics_AF.obj
 0001:000ac9c0       ?GetCenter@idAFConstraint_Slider@@UAEXAAVidVec3@@@Z 100ad9c0 f   Physics_AF.obj
 0001:000acac0       ?GetCenter@idAFConstraint_Spring@@UAEXAAVidVec3@@@Z 100adac0 f   Physics_AF.obj
 0001:000acc60       ?GetClipModel@idPhysics_AF@@UBEPAVidClipModel@@H@Z 100adc60 f   Physics_AF.obj
 0001:000acc80       ?GetConstraint@idPhysics_AF@@QBEPAVidAFConstraint@@H@Z 100adc80 f   Physics_AF.obj
 0001:000accb0       ?GetConstraint@idPhysics_AF@@QBEPAVidAFConstraint@@PBD@Z 100adcb0 f   Physics_AF.obj
 0001:000acd00       ?GetContents@idPhysics_AF@@UBEHH@Z 100add00 f   Physics_AF.obj
 0001:000acd50       ?GetForce@idAFConstraint@@UAEXPAVidAFBody@@AAVidVec6@@@Z 100add50 f   Physics_AF.obj
 0001:000ace70       ?GetForce@idAFConstraint_BallAndSocketJoint@@UAEXPAVidAFBody@@AAVidVec6@@@Z 100ade70 f   Physics_AF.obj
 0001:000ace70       ?GetForce@idAFConstraint_Hinge@@UAEXPAVidAFBody@@AAVidVec6@@@Z 100ade70 f   Physics_AF.obj
 0001:000ace70       ?GetForce@idAFConstraint_UniversalJoint@@UAEXPAVidAFBody@@AAVidVec6@@@Z 100ade70 f   Physics_AF.obj
 0001:000ace80       ?GetImpactInfo@idPhysics_AF@@UBEXHABVidVec3@@PAUimpactInfo_s@@@Z 100ade80 f   Physics_AF.obj
 0001:000ad380       ?GetInverseWorldInertia@idAFBody@@QBE?AVidMat3@@XZ 100ae380 f i Physics_AF.obj
 0001:000ad700       ?GetLinearVelocity@idPhysics_AF@@UBEABVidVec3@@H@Z 100ae700 f   Physics_AF.obj
 0001:000ad730       ?GetMass@idPhysics_AF@@UBEMH@Z 100ae730 f   Physics_AF.obj
 0001:000ad760       ?GetNumBodies@idPhysics_AF@@QBEHXZ 100ae760 f   Physics_AF.obj
 0001:000ad760       ?GetNumClipModels@idPhysics_AF@@UBEHXZ 100ae760 f   Physics_AF.obj
 0001:000ad770       ?GetName@idEntity@@QBEPBDXZ 100ae770 f   Entity.obj
 0001:000ad770       ?GetNumConstraints@idPhysics_AF@@QBEHXZ 100ae770 f   Physics_AF.obj
 0001:000ad780       ?GetOrigin@idPhysics_AF@@UBEABVidVec3@@H@Z 100ae780 f   Physics_AF.obj
 0001:000ad7b0       ?GetPointVelocity@idAFBody@@QBE?AVidVec3@@ABV2@@Z 100ae7b0 f   Physics_AF.obj
 0001:000ad840       ?GetPushedAngularVelocity@idPhysics_AF@@UBEABVidVec3@@H@Z 100ae840 f   Physics_AF.obj
 0001:000ad850       ?GetPushedLinearVelocity@idPhysics_AF@@UBEABVidVec3@@H@Z 100ae850 f   Physics_AF.obj
 0001:000ad860       ?GetRestStartTime@idPhysics_AF@@UBEHXZ 100ae860 f   Physics_AF.obj
 0001:000ad870       ?GetTime@idPhysics_AF@@UBEHXZ 100ae870 f   Physics_AF.obj
 0001:000ad870       ?GetTime@idPhysics_Monster@@UBEHXZ 100ae870 f   Physics_Monster.obj
 0001:000ad870       ?GetTime@idPhysics_Player@@UBEHXZ 100ae870 f   Physics_Player.obj
 0001:000ad870       ?GetTime@idPhysics_RigidBody@@UBEHXZ 100ae870 f   Physics_RigidBody.obj
 0001:000ad880       ?GetType@idPhysics_AF@@UBEPAVidTypeInfo@@XZ 100ae880 f   Physics_AF.obj
 0001:000ad890       ?GetWheelOrigin@idAFConstraint_Suspension@@QBE?BVidVec3@@XZ 100ae890 f   Physics_AF.obj
 0001:000ad930       ?Init@idAFBody@@QAEXXZ     100ae930 f   Physics_AF.obj
 0001:000addf0       ?InitOffset@idAFConstraint_Fixed@@IAEXXZ 100aedf0 f   Physics_AF.obj
 0001:000ae0e0       ?InitSize@idAFConstraint@@IAEXH@Z 100af0e0 f   Physics_AF.obj
 0001:000ae1c0       ?InverseFastSelf@idMatX@@QAE_NXZ 100af1c0 f i Physics_AF.obj
 0001:000ae270       ?InverseWorldSpatialInertiaMultiply@idAFBody@@QBEXAAVidVecX@@PBM@Z 100af270 f i Physics_AF.obj
 0001:000ae360       ?IsAtRest@idPhysics_AF@@UBE_NXZ 100af360 f   Physics_AF.obj
 0001:000ae370       ?IsPushable@idPhysics_AF@@UBE_NXZ 100af370 f   Physics_AF.obj
 0001:000ae3a0       ?Length@idVecX@@QBEMXZ     100af3a0 f i Physics_AF.obj
 0001:000ae4c0       ?LinkClip@idPhysics_AF@@UAEXXZ 100af4c0 f   Physics_AF.obj
 0001:000ae4d0       ?NormalVectors@idVec3@@QBEXAAV1@0@Z 100af4d0 f i Physics_AF.obj
 0001:000ae610       ?OrthogonalBasis@idVec3@@QBEXAAV1@0@Z 100af610 f i Physics_AF.obj
 0001:000ae810       ?PutToRest@idPhysics_AF@@UAEXXZ 100af810 f   Physics_AF.obj
 0001:000ae820       ?ReadFromSnapshot@idPhysics_AF@@UAEXABVidBitMsgDelta@@@Z 100af820 f   Physics_AF.obj
 0001:000aec80       ?Resize@?$idList@UcontactInfo_t@@@@QAEXH@Z 100afc80 f i Physics_AF.obj
 0001:000aed80       ?Response@idAFTree@@QBEXPBVidAFConstraint@@HH@Z 100afd80 f   Physics_AF.obj
 0001:000af460       ?Rest@idPhysics_AF@@AAEXXZ 100b0460 f   Physics_AF.obj
 0001:000af4f0       ?Restore@idAFBody@@QAEXPAVidRestoreGame@@@Z 100b04f0 f   Physics_AF.obj
 0001:000af610       ?Restore@idAFConstraint@@UAEXPAVidRestoreGame@@@Z 100b0610 f   Physics_AF.obj
 0001:000af630       ?Restore@idAFConstraint_BallAndSocketJoint@@UAEXPAVidRestoreGame@@@Z 100b0630 f   Physics_AF.obj
 0001:000af6a0       ?Restore@idAFConstraint_ConeLimit@@UAEXPAVidRestoreGame@@@Z 100b06a0 f   Physics_AF.obj
 0001:000af720       ?Restore@idAFConstraint_Fixed@@UAEXPAVidRestoreGame@@@Z 100b0720 f   Physics_AF.obj
 0001:000af760       ?Restore@idAFConstraint_Hinge@@UAEXPAVidRestoreGame@@@Z 100b0760 f   Physics_AF.obj
 0001:000af940       ?Restore@idAFConstraint_HingeSteering@@UAEXPAVidRestoreGame@@@Z 100b0940 f   Physics_AF.obj
 0001:000af980       ?Restore@idAFConstraint_PyramidLimit@@UAEXPAVidRestoreGame@@@Z 100b0980 f   Physics_AF.obj
 0001:000afa30       ?Restore@idAFConstraint_Slider@@UAEXPAVidRestoreGame@@@Z 100b0a30 f   Physics_AF.obj
 0001:000afa80       ?Restore@idAFConstraint_Spring@@UAEXPAVidRestoreGame@@@Z 100b0a80 f   Physics_AF.obj
 0001:000afb10       ?Restore@idAFConstraint_UniversalJoint@@UAEXPAVidRestoreGame@@@Z 100b0b10 f   Physics_AF.obj
 0001:000afbb0       ?Restore@idPhysics_AF@@QAEXPAVidRestoreGame@@@Z 100b0bb0 f   Physics_AF.obj
 0001:000aff50       ?RestoreState@idPhysics_AF@@UAEXXZ 100b0f50 f   Physics_AF.obj
 0001:000b0050       ?Rotate@idAFConstraint_BallAndSocketJoint@@UAEXABVidRotation@@@Z 100b1050 f   Physics_AF.obj
 0001:000b0140       ?Rotate@idAFConstraint_ConeLimit@@UAEXABVidRotation@@@Z 100b1140 f   Physics_AF.obj
 0001:000b02a0       ?Rotate@idAFConstraint_Fixed@@UAEXABVidRotation@@@Z 100b12a0 f   Physics_AF.obj
 0001:000b0380       ?Rotate@idAFConstraint_Hinge@@UAEXABVidRotation@@@Z 100b1380 f   Physics_AF.obj
 0001:000b04f0       ?Rotate@idAFConstraint_PyramidLimit@@UAEXABVidRotation@@@Z 100b14f0 f   Physics_AF.obj
 0001:000b0760       ?Rotate@idAFConstraint_Slider@@UAEXABVidRotation@@@Z 100b1760 f   Physics_AF.obj
 0001:000b0760       ?Rotate@idAFConstraint_Spring@@UAEXABVidRotation@@@Z 100b1760 f   Physics_AF.obj
 0001:000b0830       ?Rotate@idAFConstraint_UniversalJoint@@UAEXABVidRotation@@@Z 100b1830 f   Physics_AF.obj
 0001:000b0a30       ?Rotate@idPhysics_AF@@UAEXABVidRotation@@H@Z 100b1a30 f   Physics_AF.obj
 0001:000b0ce0       ?Save@idAFBody@@QAEXPAVidSaveGame@@@Z 100b1ce0 f   Physics_AF.obj
 0001:000b0e30       ?Save@idAFConstraint@@UBEXPAVidSaveGame@@@Z 100b1e30 f   Physics_AF.obj
 0001:000b0e40       ?Save@idAFConstraint_BallAndSocketJoint@@UBEXPAVidSaveGame@@@Z 100b1e40 f   Physics_AF.obj
 0001:000b0eb0       ?Save@idAFConstraint_ConeLimit@@UBEXPAVidSaveGame@@@Z 100b1eb0 f   Physics_AF.obj
 0001:000b0f50       ?Save@idAFConstraint_Fixed@@UBEXPAVidSaveGame@@@Z 100b1f50 f   Physics_AF.obj
 0001:000b0f90       ?Save@idAFConstraint_Hinge@@UBEXPAVidSaveGame@@@Z 100b1f90 f   Physics_AF.obj
 0001:000b1080       ?Save@idAFConstraint_HingeSteering@@UBEXPAVidSaveGame@@@Z 100b2080 f   Physics_AF.obj
 0001:000b10d0       ?Save@idAFConstraint_PyramidLimit@@UBEXPAVidSaveGame@@@Z 100b20d0 f   Physics_AF.obj
 0001:000b11b0       ?Save@idAFConstraint_Slider@@UBEXPAVidSaveGame@@@Z 100b21b0 f   Physics_AF.obj
 0001:000b1200       ?Save@idAFConstraint_Spring@@UBEXPAVidSaveGame@@@Z 100b2200 f   Physics_AF.obj
 0001:000b12c0       ?Save@idAFConstraint_UniversalJoint@@UBEXPAVidSaveGame@@@Z 100b22c0 f   Physics_AF.obj
 0001:000b1360       ?Save@idPhysics_AF@@QBEXPAVidSaveGame@@@Z 100b2360 f   Physics_AF.obj
 0001:000b1740       ?SaveState@idPhysics_AF@@UAEXXZ 100b2740 f   Physics_AF.obj
 0001:000b17d0       ?Set@idMatX@@QAEXABVidMat3@@000@Z 100b27d0 f i Physics_AF.obj
 0001:000b1960       ?Set@idMatX@@QAEXABVidMat3@@0@Z 100b2960 f i Physics_AF.obj
 0001:000b1a50       ?SetAnchor@idAFConstraint_BallAndSocketJoint@@QAEXABVidVec3@@@Z 100b2a50 f   Physics_AF.obj
 0001:000b1bf0       ?SetAnchor@idAFConstraint_Hinge@@QAEXABVidVec3@@@Z 100b2bf0 f   Physics_AF.obj
 0001:000b1d70       ?SetAnchor@idAFConstraint_Spring@@QAEXABVidVec3@@0@Z 100b2d70 f   Physics_AF.obj
 0001:000b1ef0       ?SetAnchor@idAFConstraint_UniversalJoint@@QAEXABVidVec3@@@Z 100b2ef0 f   Physics_AF.obj
 0001:000b2090       ?SetAngularVelocity@idPhysics_AF@@UAEXABVidVec3@@H@Z 100b3090 f   Physics_AF.obj
 0001:000b20d0       ?SetAxis@idAFConstraint_Hinge@@QAEXABVidVec3@@@Z 100b30d0 f   Physics_AF.obj
 0001:000b2240       ?SetAxis@idAFConstraint_Slider@@QAEXABVidVec3@@@Z 100b3240 f   Physics_AF.obj
 0001:000b2340       ?SetAxis@idPhysics_AF@@UAEXABVidMat3@@H@Z 100b3340 f   Physics_AF.obj
 0001:000b2970       ?SetBody1@idAFConstraint@@UAEXPAVidAFBody@@@Z 100b3970 f   Physics_AF.obj
 0001:000b2990       ?SetBody1@idAFConstraint_Fixed@@UAEXPAVidAFBody@@@Z 100b3990 f   Physics_AF.obj
 0001:000b29c0       ?SetBody2@idAFConstraint@@UAEXPAVidAFBody@@@Z 100b39c0 f   Physics_AF.obj
 0001:000b29e0       ?SetBody2@idAFConstraint_Fixed@@UAEXPAVidAFBody@@@Z 100b39e0 f   Physics_AF.obj
 0001:000b2a10       ?SetClipModel@idAFBody@@QAEXPAVidClipModel@@@Z 100b3a10 f   Physics_AF.obj
 0001:000b2a50       ?SetClipModel@idPhysics_AF@@UAEXPAVidClipModel@@MH_N@Z 100b3a50 f   Physics_AF.obj
 0001:000b2a50       ?SetClipModel@idPhysics_Base@@UAEXPAVidClipModel@@MH_N@Z 100b3a50 f   Physics_Base.obj
 0001:000b2a60       ?SetConeLimit@idAFConstraint_BallAndSocketJoint@@QAEXABVidVec3@@M0@Z 100b3a60 f   Physics_AF.obj
 0001:000b2cb0       ?SetConeLimit@idAFConstraint_UniversalJoint@@QAEXABVidVec3@@M@Z 100b3cb0 f   Physics_AF.obj
 0001:000b2e40       ?SetContactFrictionDent@idPhysics_AF@@QAEXMMM@Z 100b3e40 f   Physics_AF.obj
 0001:000b2e70       ?SetContactMotorDirection@idAFBody@@QAEXABVidVec3@@@Z 100b3e70 f   Physics_AF.obj
 0001:000b2f00       ?SetContents@idPhysics_AF@@UAEXHH@Z 100b3f00 f   Physics_AF.obj
 0001:000b2f50       ?SetData@idMatX@@QAEXHHPAM@Z 100b3f50 f i Physics_AF.obj
 0001:000b2fb0       ?SetData@idVecX@@QAEXHPAM@Z 100b3fb0 f i Physics_AF.obj
 0001:000b3020       ?SetDefaultFriction@idPhysics_AF@@QAEXMMM@Z 100b4020 f   Physics_AF.obj
 0001:000b3080       ?SetDensity@idAFBody@@QAEXMABVidMat3@@@Z 100b4080 f   Physics_AF.obj
 0001:000b3580       ?SetFriction@idAFBody@@QAEXMMM@Z 100b4580 f   Physics_AF.obj
 0001:000b3600       ?SetFrictionDirection@idAFBody@@QAEXABVidVec3@@@Z 100b4600 f   Physics_AF.obj
 0001:000b3690       ?SetJointFrictionDent@idPhysics_AF@@QAEXMMM@Z 100b4690 f   Physics_AF.obj
 0001:000b36c0       ?SetLimit@idAFConstraint_Hinge@@QAEXABVidVec3@@M0@Z 100b46c0 f   Physics_AF.obj
 0001:000b3900       ?SetLimit@idAFConstraint_Spring@@QAEXMM@Z 100b4900 f   Physics_AF.obj
 0001:000b3920       ?SetLinearVelocity@idPhysics_AF@@UAEXABVidVec3@@H@Z 100b4920 f   Physics_AF.obj
 0001:000b3960       ?SetMass@idPhysics_AF@@UAEXMH@Z 100b4960 f   Physics_AF.obj
 0001:000b3990       ?SetMaster@idPhysics_AF@@UAEXPAVidEntity@@_N@Z 100b4990 f   Physics_AF.obj
 0001:000b3c50       ?SetNoLimit@idAFConstraint_BallAndSocketJoint@@QAEXXZ 100b4c50 f   Physics_AF.obj
 0001:000b3c90       ?SetNoLimit@idAFConstraint_Hinge@@QAEXXZ 100b4c90 f   Physics_AF.obj
 0001:000b3cb0       ?SetNoLimit@idAFConstraint_UniversalJoint@@QAEXXZ 100b4cb0 f   Physics_AF.obj
 0001:000b3cf0       ?SetOrigin@idPhysics_AF@@UAEXABVidVec3@@H@Z 100b4cf0 f   Physics_AF.obj
 0001:000b3df0       ?SetPushed@idPhysics_AF@@UAEXH@Z 100b4df0 f   Physics_AF.obj
 0001:000b40f0       ?SetPyramidLimit@idAFConstraint_BallAndSocketJoint@@QAEXABVidVec3@@0MM0@Z 100b50f0 f   Physics_AF.obj
 0001:000b43b0       ?SetPyramidLimit@idAFConstraint_UniversalJoint@@QAEXABVidVec3@@0MM@Z 100b53b0 f   Physics_AF.obj
 0001:000b45e0       ?SetShafts@idAFConstraint_UniversalJoint@@QAEXABVidVec3@@0@Z 100b55e0 f   Physics_AF.obj
 0001:000b49b0       ?SetSize@idMatX@@QAEXHH@Z  100b59b0 f i Physics_AF.obj
 0001:000b4a30       ?SetSize@idVecX@@QAEXH@Z   100b5a30 f i Physics_AF.obj
 0001:000b4aa0       ?SetSpring@idAFConstraint_Spring@@QAEXMMMM@Z 100b5aa0 f   Physics_AF.obj
 0001:000b4ae0       ?SetSteerAngle@idAFConstraint_Hinge@@QAEXM@Z 100b5ae0 f   Physics_AF.obj
 0001:000b4be0       ?SetSteerSpeed@idAFConstraint_Hinge@@QAEXM@Z 100b5be0 f   Physics_AF.obj
 0001:000b4c00       ?SetSuspendSpeed@idPhysics_AF@@QAEXABVidVec2@@0@Z 100b5c00 f   Physics_AF.obj
 0001:000b4c30       ?SetSuspendTime@idPhysics_AF@@QAEXMM@Z 100b5c30 f   Physics_AF.obj
 0001:000b4c50       ?SetSuspendTolerance@idPhysics_AF@@QAEXMMM@Z 100b5c50 f   Physics_AF.obj
 0001:000b4c80       ?SetSuspension@idAFConstraint_Suspension@@QAEXMMMMM@Z 100b5c80 f   Physics_AF.obj
 0001:000b4cd0       ?SetTempSize@idMatX@@AAEXHH@Z 100b5cd0 f i Physics_AF.obj
 0001:000b4d40       ?SetTimeScaleRamp@idPhysics_AF@@QAEXMM@Z 100b5d40 f   Physics_AF.obj
 0001:000b4d60       ?Setup@idAFConstraint_ConeLimit@@QAEXPAVidAFBody@@0ABVidVec3@@1M1@Z 100b5d60 f   Physics_AF.obj
 0001:000b4e60       ?Setup@idAFConstraint_Contact@@QAEXPAVidAFBody@@0AAUcontactInfo_t@@@Z 100b5e60 f   Physics_AF.obj
 0001:000b5200       ?Setup@idAFConstraint_PyramidLimit@@QAEXPAVidAFBody@@0ABVidVec3@@11MM1@Z 100b6200 f   Physics_AF.obj
 0001:000b5470       ?Setup@idAFConstraint_Suspension@@QAEXPBDPAVidAFBody@@ABVidVec3@@ABVidMat3@@PAVidClipModel@@@Z 100b6470 f   Physics_AF.obj
 0001:000b56f0       ?SetupCollisionForBody@idPhysics_AF@@ABEPAVidEntity@@PAVidAFBody@@@Z 100b66f0 f   Physics_AF.obj
 0001:000b57f0       ?SetupContactConstraints@idPhysics_AF@@AAEXXZ 100b67f0 f   Physics_AF.obj
 0001:000b59a0       ?Solve@idAFTree@@QBEXH@Z   100b69a0 f   Physics_AF.obj
 0001:000b5e80       ?SortBodies@idAFTree@@QAEXXZ 100b6e80 f   Physics_AF.obj
 0001:000b6000       ?SortBodies_r@idAFTree@@QAEXAAV?$idList@PAVidAFBody@@@@PAVidAFBody@@@Z 100b7000 f   Physics_AF.obj
 0001:000b60c0       ?TestIfAtRest@idPhysics_AF@@AAE_NM@Z 100b70c0 f   Physics_AF.obj
 0001:000b6550       ?Translate@idAFConstraint_BallAndSocketJoint@@UAEXABVidVec3@@@Z 100b7550 f   Physics_AF.obj
 0001:000b65d0       ?Translate@idAFConstraint_ConeLimit@@UAEXABVidVec3@@@Z 100b75d0 f   Physics_AF.obj
 0001:000b65d0       ?Translate@idAFConstraint_Fixed@@UAEXABVidVec3@@@Z 100b75d0 f   Physics_AF.obj
 0001:000b65d0       ?Translate@idAFConstraint_PyramidLimit@@UAEXABVidVec3@@@Z 100b75d0 f   Physics_AF.obj
 0001:000b6620       ?Translate@idAFConstraint_Hinge@@UAEXABVidVec3@@@Z 100b7620 f   Physics_AF.obj
 0001:000b6680       ?Translate@idAFConstraint_Slider@@UAEXABVidVec3@@@Z 100b7680 f   Physics_AF.obj
 0001:000b6680       ?Translate@idAFConstraint_Spring@@UAEXABVidVec3@@@Z 100b7680 f   Physics_AF.obj
 0001:000b66d0       ?Translate@idAFConstraint_UniversalJoint@@UAEXABVidVec3@@@Z 100b76d0 f   Physics_AF.obj
 0001:000b6750       ?Translate@idPhysics_AF@@UAEXABVidVec3@@H@Z 100b7750 f   Physics_AF.obj
 0001:000b6820       ?UnlinkClip@idPhysics_AF@@UAEXXZ 100b7820 f   Physics_AF.obj
 0001:000b6850       ?UpdateClipModels@idPhysics_AF@@QAEXXZ 100b7850 f   Physics_AF.obj
 0001:000b6890       ?WriteToSnapshot@idPhysics_AF@@UBEXAAVidBitMsgDelta@@@Z 100b7890 f   Physics_AF.obj
 0001:000b6de0       ??0idPhysics_Base@@QAE@XZ  100b7de0 f   Physics_Base.obj
 0001:000b6eb0       ??1idPhysics_Base@@UAE@XZ  100b7eb0 f   Physics_Base.obj
 0001:000b6f60       ??_EidPhysics_Base@@UAEPAXI@Z 100b7f60 f i Physics_Base.obj
 0001:000b6f60       ??_GidPhysics_Base@@UAEPAXI@Z 100b7f60 f i Physics_Base.obj
 0001:000b7050       ?ActivateContactEntities@idPhysics_Base@@IAEXXZ 100b8050 f   Physics_Base.obj
 0001:000b70d0       ?AddContactEntitiesForContacts@idPhysics_Base@@IAEXXZ 100b80d0 f   Physics_Base.obj
 0001:000b7110       ?AddContactEntity@idPhysics_Base@@UAEXPAVidEntity@@@Z 100b8110 f   Physics_Base.obj
 0001:000b7210       ?AddForce@idPhysics_Base@@UAEXHABVidVec3@@0@Z 100b8210 f   Physics_Base.obj
 0001:000b7210       ?AddForce@idPhysics_Static@@UAEXHABVidVec3@@0@Z 100b8210 f   Physics_Static.obj
 0001:000b7210       ?AddForce@idPhysics_StaticMulti@@UAEXHABVidVec3@@0@Z 100b8210 f   Physics_StaticMulti.obj
 0001:000b7210       ?ApplyImpulse@idPhysics_Base@@UAEXHABVidVec3@@0@Z 100b8210 f   Physics_Base.obj
 0001:000b7210       ?ApplyImpulse@idPhysics_Static@@UAEXHABVidVec3@@0@Z 100b8210 f   Physics_Static.obj
 0001:000b7210       ?ApplyImpulse@idPhysics_StaticMulti@@UAEXHABVidVec3@@0@Z 100b8210 f   Physics_StaticMulti.obj
 0001:000b7210       ?DamageFeedback@idEntity@@UAEXPAV1@0AAH@Z 100b8210 f   Entity.obj
 0001:000b7220       ?AddGroundContacts@idPhysics_Base@@IAEXPBVidClipModel@@@Z 100b8220 f   Physics_Base.obj
 0001:000b72e0       ?ClearContacts@idPhysics_Base@@UAEXXZ 100b82e0 f   Physics_Base.obj
 0001:000b7350       ?ClipContents@idPhysics_Base@@UBEHPBVidClipModel@@@Z 100b8350 f   Physics_Base.obj
 0001:000b7350       ?GetClipMask@idPhysics_Static@@UBEHH@Z 100b8350 f   Physics_Static.obj
 0001:000b7350       ?GetClipMask@idPhysics_StaticMulti@@UBEHH@Z 100b8350 f   Physics_StaticMulti.obj
 0001:000b7350       ?GetClipModel@idPhysics_Base@@UBEPAVidClipModel@@H@Z 100b8350 f   Physics_Base.obj
 0001:000b7350       ?GetContents@idPhysics_Base@@UBEHH@Z 100b8350 f   Physics_Base.obj
 0001:000b7360       ?ClipRotation@idPhysics_Base@@UBEXAAUtrace_s@@ABVidRotation@@PBVidClipModel@@@Z 100b8360 f   Physics_Base.obj
 0001:000b7360       ?ClipTranslation@idPhysics_Base@@UBEXAAUtrace_s@@ABVidVec3@@PBVidClipModel@@@Z 100b8360 f   Physics_Base.obj
 0001:000b7380       ?CreateInstance@idPhysics_Base@@SAPAVidClass@@XZ 100b8380 f   Physics_Base.obj
 0001:000b74b0       ?DrawVelocity@idPhysics_Base@@IBEXHMM@Z 100b84b0 f   Physics_Base.obj
 0001:000b7b00       ?AttemptWarp@sbStationarySpaceEntity@@UAE_NHH@Z 100b8b00 f   sbship.obj
 0001:000b7b00       ?Collide@idEntity@@UAE_NABUtrace_s@@ABVidVec3@@@Z 100b8b00 f   Entity.obj
 0001:000b7b00       ?Evaluate@idPhysics_Base@@UAE_NHH@Z 100b8b00 f   Physics_Base.obj
 0001:000b7b00       ?GetPhysicsToVisualTransform@idEntity@@UAE_NAAVidVec3@@AAVidMat3@@@Z 100b8b00 f   Entity.obj
 0001:000b7b00       ?HandleSingleGuiCommand@idEntity@@UAE_NPAV1@PAVidLexer@@@Z 100b8b00 f   Entity.obj
 0001:000b7b00       ?IsGroundClipModel@idPhysics_Static@@UBE_NHH@Z 100b8b00 f   Physics_Static.obj
 0001:000b7b00       ?IsGroundClipModel@idPhysics_StaticMulti@@UBE_NHH@Z 100b8b00 f   Physics_StaticMulti.obj
 0001:000b7b10       ?GetAbsBounds@idPhysics_Base@@UBEABVidBounds@@H@Z 100b8b10 f   Physics_Base.obj
 0001:000b7b10       ?GetBounds@idPhysics_Base@@UBEABVidBounds@@H@Z 100b8b10 f   Physics_Base.obj
 0001:000b7b20       ?GetAngularEndTime@idPhysics_Base@@UBEHXZ 100b8b20 f   Physics_Base.obj
 0001:000b7b20       ?GetAngularEndTime@idPhysics_Static@@UBEHXZ 100b8b20 f   Physics_Static.obj
 0001:000b7b20       ?GetAngularEndTime@idPhysics_StaticMulti@@UBEHXZ 100b8b20 f   Physics_StaticMulti.obj
 0001:000b7b20       ?GetAnimator@idEntity@@UAEPAVidAnimator@@XZ 100b8b20 f   Entity.obj
 0001:000b7b20       ?GetBlockingEntity@idPhysics_Base@@UBEPAVidEntity@@XZ 100b8b20 f   Physics_Base.obj
 0001:000b7b20       ?GetBlockingEntity@idPhysics_Static@@UBEPAVidEntity@@XZ 100b8b20 f   Physics_Static.obj
 0001:000b7b20       ?GetBlockingEntity@idPhysics_StaticMulti@@UBEPAVidEntity@@XZ 100b8b20 f   Physics_StaticMulti.obj
 0001:000b7b20       ?GetBlockingInfo@idPhysics_Base@@UBEPBUtrace_s@@XZ 100b8b20 f   Physics_Base.obj
 0001:000b7b20       ?GetBlockingInfo@idPhysics_Static@@UBEPBUtrace_s@@XZ 100b8b20 f   Physics_Static.obj
 0001:000b7b20       ?GetBlockingInfo@idPhysics_StaticMulti@@UBEPBUtrace_s@@XZ 100b8b20 f   Physics_StaticMulti.obj
 0001:000b7b20       ?GetLinearEndTime@idPhysics_Base@@UBEHXZ 100b8b20 f   Physics_Base.obj
 0001:000b7b20       ?GetLinearEndTime@idPhysics_Static@@UBEHXZ 100b8b20 f   Physics_Static.obj
 0001:000b7b20       ?GetLinearEndTime@idPhysics_StaticMulti@@UBEHXZ 100b8b20 f   Physics_StaticMulti.obj
 0001:000b7b20       ?GetNumClipModels@idPhysics_Base@@UBEHXZ 100b8b20 f   Physics_Base.obj
 0001:000b7b20       ?GetNumContacts@idPhysics_Static@@UBEHXZ 100b8b20 f   Physics_Static.obj
 0001:000b7b20       ?GetNumContacts@idPhysics_StaticMulti@@UBEHXZ 100b8b20 f   Physics_StaticMulti.obj
 0001:000b7b20       ?GetRestStartTime@idPhysics_Base@@UBEHXZ 100b8b20 f   Physics_Base.obj
 0001:000b7b20       ?GetRestStartTime@idPhysics_Static@@UBEHXZ 100b8b20 f   Physics_Static.obj
 0001:000b7b20       ?GetRestStartTime@idPhysics_StaticMulti@@UBEHXZ 100b8b20 f   Physics_StaticMulti.obj
 0001:000b7b20       ?GetTime@idPhysics_Base@@UBEHXZ 100b8b20 f   Physics_Base.obj
 0001:000b7b20       ?GetTime@idPhysics_Static@@UBEHXZ 100b8b20 f   Physics_Static.obj
 0001:000b7b20       ?GetTime@idPhysics_StaticMulti@@UBEHXZ 100b8b20 f   Physics_StaticMulti.obj
 0001:000b7b20       ?sync@?$basic_streambuf@DU?$char_traits@D@std@@@std@@MAEHXZ 100b8b20 f   sbship.obj
 0001:000b7b30       ?GetAngularVelocity@idPhysics_Base@@UBEABVidVec3@@H@Z 100b8b30 f   Physics_Base.obj
 0001:000b7b30       ?GetAngularVelocity@idPhysics_Static@@UBEABVidVec3@@H@Z 100b8b30 f   Physics_Static.obj
 0001:000b7b30       ?GetAngularVelocity@idPhysics_StaticMulti@@UBEABVidVec3@@H@Z 100b8b30 f   Physics_StaticMulti.obj
 0001:000b7b30       ?GetLinearVelocity@idPhysics_Base@@UBEABVidVec3@@H@Z 100b8b30 f   Physics_Base.obj
 0001:000b7b30       ?GetLinearVelocity@idPhysics_Static@@UBEABVidVec3@@H@Z 100b8b30 f   Physics_Static.obj
 0001:000b7b30       ?GetLinearVelocity@idPhysics_StaticMulti@@UBEABVidVec3@@H@Z 100b8b30 f   Physics_StaticMulti.obj
 0001:000b7b30       ?GetOrigin@idPhysics_Base@@UBEABVidVec3@@H@Z 100b8b30 f   Physics_Base.obj
 0001:000b7b30       ?GetPushedAngularVelocity@idPhysics_Base@@UBEABVidVec3@@H@Z 100b8b30 f   Physics_Base.obj
 0001:000b7b30       ?GetPushedAngularVelocity@idPhysics_Static@@UBEABVidVec3@@H@Z 100b8b30 f   Physics_Static.obj
 0001:000b7b30       ?GetPushedAngularVelocity@idPhysics_StaticMulti@@UBEABVidVec3@@H@Z 100b8b30 f   Physics_StaticMulti.obj
 0001:000b7b30       ?GetPushedLinearVelocity@idPhysics_Base@@UBEABVidVec3@@H@Z 100b8b30 f   Physics_Base.obj
 0001:000b7b30       ?GetPushedLinearVelocity@idPhysics_Static@@UBEABVidVec3@@H@Z 100b8b30 f   Physics_Static.obj
 0001:000b7b30       ?GetPushedLinearVelocity@idPhysics_StaticMulti@@UBEABVidVec3@@H@Z 100b8b30 f   Physics_StaticMulti.obj
 0001:000b7b40       ?GetAxis@idPhysics_Base@@UBEABVidMat3@@H@Z 100b8b40 f   Physics_Base.obj
 0001:000b7b50       ?GetClipMask@idPhysics_Base@@UBEHH@Z 100b8b50 f   Physics_Base.obj
 0001:000b7b60       ?GetContact@idPhysics_Base@@UBEABUcontactInfo_t@@H@Z 100b8b60 f   Physics_Base.obj
 0001:000b7b80       ?GetGravity@idPhysics_Base@@UBEABVidVec3@@XZ 100b8b80 f   Physics_Base.obj
 0001:000b7b90       ?GetGravityNormal@idPhysics_Base@@UBEABVidVec3@@XZ 100b8b90 f   Physics_Base.obj
 0001:000b7ba0       ?GetImpactInfo@idPhysics_Base@@UBEXHABVidVec3@@PAUimpactInfo_s@@@Z 100b8ba0 f   Physics_Base.obj
 0001:000b7ba0       ?GetImpactInfo@idPhysics_Static@@UBEXHABVidVec3@@PAUimpactInfo_s@@@Z 100b8ba0 f   Physics_Static.obj
 0001:000b7ba0       ?GetImpactInfo@idPhysics_StaticMulti@@UBEXHABVidVec3@@PAUimpactInfo_s@@@Z 100b8ba0 f   Physics_StaticMulti.obj
 0001:000b7bc0       ?GetMass@idPhysics_Base@@UBEMH@Z 100b8bc0 f   Physics_Base.obj
 0001:000b7bc0       ?GetMass@idPhysics_Parametric@@UBEMH@Z 100b8bc0 f   Physics_Parametric.obj
 0001:000b7bc0       ?GetMass@idPhysics_Static@@UBEMH@Z 100b8bc0 f   Physics_Static.obj
 0001:000b7bc0       ?GetMass@idPhysics_StaticMulti@@UBEMH@Z 100b8bc0 f   Physics_StaticMulti.obj
 0001:000b7bd0       ?GetNumContacts@idPhysics_Base@@UBEHXZ 100b8bd0 f   Physics_Base.obj
 0001:000b7bd0       ?Size@idTypeDef@@QBEHXZ    100b8bd0 f   Script_Program.obj
 0001:000b7be0       ?GetType@idPhysics_Base@@UBEPAVidTypeInfo@@XZ 100b8be0 f   Physics_Base.obj
 0001:000b7bf0       ?HasGroundContacts@idPhysics_Base@@UBE_NXZ 100b8bf0 f   Physics_Base.obj
 0001:000b7c60       ?CanPlayChatterSounds@idEntity@@UBE_NXZ 100b8c60 f   Entity.obj
 0001:000b7c60       ?HasAccum@FullscreenFX_Helltime@@UAE_NXZ 100b8c60 f   PlayerView.obj
 0001:000b7c60       ?HasAccum@FullscreenFX_Multiplayer@@UAE_NXZ 100b8c60 f   PlayerView.obj
 0001:000b7c60       ?IsAtRest@idPhysics_Base@@UBE_NXZ 100b8c60 f   Physics_Base.obj
 0001:000b7c60       ?IsAtRest@idPhysics_Static@@UBE_NXZ 100b8c60 f   Physics_Static.obj
 0001:000b7c60       ?IsAtRest@idPhysics_StaticMulti@@UBE_NXZ 100b8c60 f   Physics_StaticMulti.obj
 0001:000b7c60       ?IsPushable@idPhysics_Base@@UBE_NXZ 100b8c60 f   Physics_Base.obj
 0001:000b7c60       ?ShouldConstructScriptObjectAtSpawn@idEntity@@UBE_NXZ 100b8c60 f   Entity.obj
 0001:000b7c60       ___acrt_uninitialize_command_line 100b8c60 f   libucrt:argv_data.obj
 0001:000b7c70       ?IsGroundClipModel@idPhysics_Base@@UBE_NHH@Z 100b8c70 f   Physics_Base.obj
 0001:000b7cf0       ?IsGroundEntity@idPhysics_Base@@UBE_NH@Z 100b8cf0 f   Physics_Base.obj
 0001:000b7d60       ?IsOutsideWorld@idPhysics_Base@@IBE_NXZ 100b8d60 f   Physics_Base.obj
 0001:000b7e30       ?RemoveContactEntity@idPhysics_Base@@UAEXPAVidEntity@@@Z 100b8e30 f   Physics_Base.obj
 0001:000b7ee0       ?Resize@?$idList@V?$idEntityPtr@VidEntity@@@@@@QAEXH@Z 100b8ee0 f i Physics_Base.obj
 0001:000b7f90       ?Restore@idPhysics_Base@@QAEXPAVidRestoreGame@@@Z 100b8f90 f   Physics_Base.obj
 0001:000b8050       ?EngageWarp@sbStationarySpaceEntity@@UAEXHH@Z 100b9050 f   sbship.obj
 0001:000b8050       ?Event_TeamBlocked@idMover_Periodic@@IAEXPAVidEntity@@0@Z 100b9050 f   Mover.obj
 0001:000b8050       ?Event_Touch@idLiquid@@AAEXPAVidEntity@@PAUtrace_s@@@Z 100b9050 f   Misc.obj
 0001:000b8050       ?HandleMainMenuCommands@idGameLocal@@UAEXPBDPAVidUserInterface@@@Z 100b9050 f   Game_local.obj
 0001:000b8050       ?Rotate@idPhysics_Base@@UAEXABVidRotation@@H@Z 100b9050 f   Physics_Base.obj
 0001:000b8050       ?Rotate@idPhysics_Parametric@@UAEXABVidRotation@@H@Z 100b9050 f   Physics_Parametric.obj
 0001:000b8050       ?SetAngularVelocity@idPhysics_Base@@UAEXABVidVec3@@H@Z 100b9050 f   Physics_Base.obj
 0001:000b8050       ?SetAngularVelocity@idPhysics_Static@@UAEXABVidVec3@@H@Z 100b9050 f   Physics_Static.obj
 0001:000b8050       ?SetAngularVelocity@idPhysics_StaticMulti@@UAEXABVidVec3@@H@Z 100b9050 f   Physics_StaticMulti.obj
 0001:000b8050       ?SetAxis@idPhysics_Base@@UAEXABVidMat3@@H@Z 100b9050 f   Physics_Base.obj
 0001:000b8050       ?SetClipMask@idPhysics_Static@@UAEXHH@Z 100b9050 f   Physics_Static.obj
 0001:000b8050       ?SetClipMask@idPhysics_StaticMulti@@UAEXHH@Z 100b9050 f   Physics_StaticMulti.obj
 0001:000b8050       ?SetContents@idPhysics_Base@@UAEXHH@Z 100b9050 f   Physics_Base.obj
 0001:000b8050       ?SetLinearVelocity@idPhysics_Base@@UAEXABVidVec3@@H@Z 100b9050 f   Physics_Base.obj
 0001:000b8050       ?SetLinearVelocity@idPhysics_Static@@UAEXABVidVec3@@H@Z 100b9050 f   Physics_Static.obj
 0001:000b8050       ?SetLinearVelocity@idPhysics_StaticMulti@@UAEXABVidVec3@@H@Z 100b9050 f   Physics_StaticMulti.obj
 0001:000b8050       ?SetMass@idPhysics_Base@@UAEXMH@Z 100b9050 f   Physics_Base.obj
 0001:000b8050       ?SetMass@idPhysics_Parametric@@UAEXMH@Z 100b9050 f   Physics_Parametric.obj
 0001:000b8050       ?SetMass@idPhysics_Static@@UAEXMH@Z 100b9050 f   Physics_Static.obj
 0001:000b8050       ?SetMass@idPhysics_StaticMulti@@UAEXMH@Z 100b9050 f   Physics_StaticMulti.obj
 0001:000b8050       ?SetMaster@idPhysics_Base@@UAEXPAVidEntity@@_N@Z 100b9050 f   Physics_Base.obj
 0001:000b8050       ?SetOrigin@idPhysics_Base@@UAEXABVidVec3@@H@Z 100b9050 f   Physics_Base.obj
 0001:000b8050       ?Translate@idPhysics_Base@@UAEXABVidVec3@@H@Z 100b9050 f   Physics_Base.obj
 0001:000b8050       ?Translate@idPhysics_Parametric@@UAEXABVidVec3@@H@Z 100b9050 f   Physics_Parametric.obj
 0001:000b8060       ?Save@idPhysics_Base@@QBEXPAVidSaveGame@@@Z 100b9060 f   Physics_Base.obj
 0001:000b80f0       ?SetClipMask@idPhysics_Base@@UAEXHH@Z 100b90f0 f   Physics_Base.obj
 0001:000b8100       ?SetGravity@idPhysics_Base@@UAEXABVidVec3@@@Z 100b9100 f   Physics_Base.obj
 0001:000b8140       ?SetNum@?$idList@UcontactInfo_t@@@@QAEXH_N@Z 100b9140 f i Physics_Base.obj
 0001:000b8250       ??0idPhysics_Monster@@QAE@XZ 100b9250 f   Physics_Monster.obj
 0001:000b8360       ??_EidPhysics_Monster@@UAEPAXI@Z 100b9360 f i Physics_Monster.obj
 0001:000b8360       ??_GidPhysics_Monster@@UAEPAXI@Z 100b9360 f i Physics_Monster.obj
 0001:000b83a0       ?Activate@idPhysics_Monster@@UAEXXZ 100b93a0 f   Physics_Monster.obj
 0001:000b83c0       ?ApplyImpulse@idPhysics_Monster@@UAEXHABVidVec3@@0@Z 100b93c0 f   Physics_Monster.obj
 0001:000b8430       ?CheckGround@idPhysics_Monster@@AAEXAAUmonsterPState_s@@@Z 100b9430 f   Physics_Monster.obj
 0001:000b86d0       ?CreateInstance@idPhysics_Monster@@SAPAVidClass@@XZ 100b96d0 f   Physics_Monster.obj
 0001:000b8870       ?DisableImpact@idPhysics_Monster@@QAEXXZ 100b9870 f   Physics_Monster.obj
 0001:000b8880       ?Evaluate@idPhysics_Monster@@UAE_NHH@Z 100b9880 f   Physics_Monster.obj
 0001:000b8e80       ?ForceDeltaMove@idPhysics_Monster@@QAEX_N@Z 100b9e80 f   Physics_Monster.obj
 0001:000b8e90       ?GetImpactInfo@idPhysics_Monster@@UBEXHABVidVec3@@PAUimpactInfo_s@@@Z 100b9e90 f   Physics_Monster.obj
 0001:000b8ee0       ?GetLinearVelocity@idPhysics_Monster@@UBEABVidVec3@@H@Z 100b9ee0 f   Physics_Monster.obj
 0001:000b8ef0       ?GetMoveResult@idPhysics_Monster@@QBE?AW4monsterMoveResult_t@@XZ 100b9ef0 f   Physics_Monster.obj
 0001:000b8f00       ?GetPushedLinearVelocity@idPhysics_Monster@@UBEABVidVec3@@H@Z 100b9f00 f   Physics_Monster.obj
 0001:000b8f10       ?GetSlideMoveEntity@idPhysics_Monster@@QBEPAVidEntity@@XZ 100b9f10 f   Physics_Monster.obj
 0001:000b8f20       ?GetType@idPhysics_Monster@@UBEPAVidTypeInfo@@XZ 100b9f20 f   Physics_Monster.obj
 0001:000b8f30       ?IsAtRest@idPhysics_Monster@@UBE_NXZ 100b9f30 f   Physics_Monster.obj
 0001:000b8f40       ?OnGround@idPhysics_Monster@@QBE_NXZ 100b9f40 f   Physics_Monster.obj
 0001:000b8f50       ?PutToRest@idPhysics_Monster@@UAEXXZ 100b9f50 f   Physics_Monster.obj
 0001:000b8f50       ?Rest@idPhysics_Monster@@AAEXXZ 100b9f50 f   Physics_Monster.obj
 0001:000b8f90       ?ReadFromSnapshot@idPhysics_Monster@@UAEXABVidBitMsgDelta@@@Z 100b9f90 f   Physics_Monster.obj
 0001:000b91e0       ?Restore@idPhysics_Monster@@QAEXPAVidRestoreGame@@@Z 100ba1e0 f   Physics_Monster.obj
 0001:000b9300       ?RestoreState@idPhysics_Monster@@UAEXXZ 100ba300 f   Physics_Monster.obj
 0001:000b93e0       ?Rotate@idPhysics_Monster@@UAEXABVidRotation@@H@Z 100ba3e0 f   Physics_Monster.obj
 0001:000b9740       ?Save@idPhysics_Monster@@QBEXPAVidSaveGame@@@Z 100ba740 f   Physics_Monster.obj
 0001:000b9890       ?SaveState@idPhysics_Monster@@UAEXXZ 100ba890 f   Physics_Monster.obj
 0001:000b9940       ?SetAxis@idPhysics_Monster@@UAEXABVidMat3@@H@Z 100ba940 f   Physics_Monster.obj
 0001:000b9970       ?SetDelta@idPhysics_Monster@@QAEXABVidVec3@@@Z 100ba970 f   Physics_Monster.obj
 0001:000b99d0       ?SetLinearVelocity@idPhysics_Monster@@UAEXABVidVec3@@H@Z 100ba9d0 f   Physics_Monster.obj
 0001:000b9a00       ?SetMaster@idPhysics_Monster@@UAEXPAVidEntity@@_N@Z 100baa00 f   Physics_Monster.obj
 0001:000b9b10       ?SetMaxStepHeight@idPhysics_Monster@@QAEXM@Z 100bab10 f   Physics_Monster.obj
 0001:000b9b30       ?SetOrigin@idPhysics_Monster@@UAEXABVidVec3@@H@Z 100bab30 f   Physics_Monster.obj
 0001:000b9c50       ?SetPushed@idPhysics_Monster@@UAEXH@Z 100bac50 f   Physics_Monster.obj
 0001:000b9ce0       ?SlideMove@idPhysics_Monster@@AAE?AW4monsterMoveResult_t@@AAVidVec3@@0ABV3@@Z 100bace0 f   Physics_Monster.obj
 0001:000b9f10       ?StepMove@idPhysics_Monster@@AAE?AW4monsterMoveResult_t@@AAVidVec3@@0ABV3@@Z 100baf10 f   Physics_Monster.obj
 0001:000ba620       ?Translate@idPhysics_Monster@@UAEXABVidVec3@@H@Z 100bb620 f   Physics_Monster.obj
 0001:000ba6c0       ?UseFlyMove@idPhysics_Monster@@QAEX_N@Z 100bb6c0 f   Physics_Monster.obj
 0001:000ba6d0       ?UseVelocityMove@idPhysics_Monster@@QAEX_N@Z 100bb6d0 f   Physics_Monster.obj
 0001:000ba6e0       ?WriteToSnapshot@idPhysics_Monster@@UBEXAAVidBitMsgDelta@@@Z 100bb6e0 f   Physics_Monster.obj
 0001:000ba990       ??0idPhysics_Parametric@@QAE@XZ 100bb990 f   Physics_Parametric.obj
 0001:000bad50       ??0parametricPState_s@@QAE@XZ 100bbd50 f i Physics_Parametric.obj
 0001:000bb090       ??1idPhysics_Parametric@@UAE@XZ 100bc090 f   Physics_Parametric.obj
 0001:000bb0f0       ??4?$idExtrapolate@VidAngles@@@@QAEAAV0@ABV0@@Z 100bc0f0 f i Physics_Parametric.obj
 0001:000bb0f0       ??4?$idExtrapolate@VidVec3@@@@QAEAAV0@ABV0@@Z 100bc0f0 f i Physics_Parametric.obj
 0001:000bb0f0       ??4playerPState_s@@QAEAAU0@ABU0@@Z 100bc0f0 f i Physics_Player.obj
 0001:000bb160       ??4parametricPState_s@@QAEAAU0@ABU0@@Z 100bc160 f i Physics_Parametric.obj
 0001:000bb380       ??_EidPhysics_Parametric@@UAEPAXI@Z 100bc380 f i Physics_Parametric.obj
 0001:000bb380       ??_GidPhysics_Parametric@@UAEPAXI@Z 100bc380 f i Physics_Parametric.obj
 0001:000bb410       ?Activate@idPhysics_Parametric@@UAEXXZ 100bc410 f   Physics_Parametric.obj
 0001:000bb430       ?CreateInstance@idPhysics_Parametric@@SAPAVidClass@@XZ 100bc430 f   Physics_Parametric.obj
 0001:000bb4d0       ?DisableClip@idPhysics_Parametric@@UAEXXZ 100bc4d0 f   Physics_Parametric.obj
 0001:000bb4e0       ?EnableClip@idPhysics_Parametric@@UAEXXZ 100bc4e0 f   Physics_Parametric.obj
 0001:000bb4f0       ?Evaluate@idPhysics_Parametric@@UAE_NHH@Z 100bc4f0 f   Physics_Parametric.obj
 0001:000bc3e0       ?GetAbsBounds@idPhysics_Parametric@@UBEABVidBounds@@H@Z 100bd3e0 f   Physics_Parametric.obj
 0001:000bc400       ?GetAngles@idPhysics_Parametric@@QBEXAAVidAngles@@@Z 100bd400 f   Physics_Parametric.obj
 0001:000bc420       ?GetAngularEndTime@idPhysics_Parametric@@UBEHXZ 100bd420 f   Physics_Parametric.obj
 0001:000bc460       ?GetAngularExtrapolationType@idPhysics_Parametric@@QBE?AW4extrapolation_t@@XZ 100bd460 f   Physics_Parametric.obj
 0001:000bc470       ?GetAngularVelocity@idPhysics_Parametric@@UBEABVidVec3@@H@Z 100bd470 f   Physics_Parametric.obj
 0001:000bc4f0       ?GetAxis@idPhysics_Parametric@@UBEABVidMat3@@H@Z 100bd4f0 f   Physics_Parametric.obj
 0001:000bc500       ?GetBlockingEntity@idPhysics_Parametric@@UBEPAVidEntity@@XZ 100bd500 f   Physics_Parametric.obj
 0001:000bc520       ?GetBlockingInfo@idPhysics_Parametric@@UBEPBUtrace_s@@XZ 100bd520 f   Physics_Parametric.obj
 0001:000bc540       ?GetBounds@idPhysics_Parametric@@UBEABVidBounds@@H@Z 100bd540 f   Physics_Parametric.obj
 0001:000bc560       ?GetClipModel@idPhysics_Parametric@@UBEPAVidClipModel@@H@Z 100bd560 f   Physics_Parametric.obj
 0001:000bc570       ?GetContents@idPhysics_Parametric@@UBEHH@Z 100bd570 f   Physics_Parametric.obj
 0001:000bc590       ?GetCurrentSpeed@?$idExtrapolate@VidAngles@@@@QBE?AVidAngles@@H@Z 100bd590 f i Physics_Parametric.obj
 0001:000bc770       ?GetCurrentSpeed@?$idExtrapolate@VidVec3@@@@QBE?AVidVec3@@H@Z 100bd770 f i Physics_Parametric.obj
 0001:000bc980       ?GetCurrentValue@?$idExtrapolate@M@@QBEMH@Z 100bd980 f i Physics_Parametric.obj
 0001:000bcbd0       ?GetCurrentValue@?$idExtrapolate@VidAngles@@@@QBE?AVidAngles@@H@Z 100bdbd0 f i Physics_Parametric.obj
 0001:000bcfb0       ?GetCurrentValue@?$idExtrapolate@VidVec3@@@@QBE?AVidVec3@@H@Z 100bdfb0 f i Physics_Parametric.obj
 0001:000bd4b0       ?GetLinearEndTime@idPhysics_Parametric@@UBEHXZ 100be4b0 f   Physics_Parametric.obj
 0001:000bd520       ?GetLinearExtrapolationType@idPhysics_Parametric@@QBE?AW4extrapolation_t@@XZ 100be520 f   Physics_Parametric.obj
 0001:000bd530       ?GetLinearVelocity@idPhysics_Parametric@@UBEABVidVec3@@H@Z 100be530 f   Physics_Parametric.obj
 0001:000bd580       ?GetLocalAngles@idPhysics_Parametric@@QBEXAAVidAngles@@@Z 100be580 f   Physics_Parametric.obj
 0001:000bd5b0       ?GetLocalOrigin@idPhysics_Parametric@@QBEXAAVidVec3@@@Z 100be5b0 f   Physics_Parametric.obj
 0001:000bd5e0       ?GetNumClipModels@idPhysics_Parametric@@UBEHXZ 100be5e0 f   Physics_Parametric.obj
 0001:000bd5f0       ?GetOrigin@idPhysics_Parametric@@UBEABVidVec3@@H@Z 100be5f0 f   Physics_Parametric.obj
 0001:000bd600       ?GetRestStartTime@idPhysics_Parametric@@UBEHXZ 100be600 f   Physics_Parametric.obj
 0001:000bd610       ?GetSpeed@?$idCurve@VidVec3@@@@IBEMM@Z 100be610 f i Physics_Parametric.obj
 0001:000bd6f0       ?GetSpline@idPhysics_Parametric@@QBEPAV?$idCurve_Spline@VidVec3@@@@XZ 100be6f0 f   Physics_Parametric.obj
 0001:000bd700       ?GetSplineAcceleration@idPhysics_Parametric@@QBEHXZ 100be700 f   Physics_Parametric.obj
 0001:000bd710       ?GetSplineDeceleration@idPhysics_Parametric@@QBEHXZ 100be710 f   Physics_Parametric.obj
 0001:000bd720       ?GetRestStartTime@idPhysics_RigidBody@@UBEHXZ 100be720 f   Physics_RigidBody.obj
 0001:000bd720       ?GetTime@idPhysics_Parametric@@UBEHXZ 100be720 f   Physics_Parametric.obj
 0001:000bd730       ?GetTimeForLength@?$idCurve@VidVec3@@@@QBEMMM@Z 100be730 f i Physics_Parametric.obj
 0001:000bd9d0       ?GetType@idPhysics_Parametric@@UBEPAVidTypeInfo@@XZ 100be9d0 f   Physics_Parametric.obj
 0001:000bd9e0       ?IndexForTime@?$idCurve@VidVec3@@@@IBEHM@Z 100be9e0 f i Physics_Parametric.obj
 0001:000bdab0       ?Init@?$idExtrapolate@VidAngles@@@@QAEXHHABVidAngles@@00W4extrapolation_t@@@Z 100beab0 f i Physics_Parametric.obj
 0001:000bdab0       ?Init@?$idExtrapolate@VidVec3@@@@QAEXHHABVidVec3@@00W4extrapolation_t@@@Z 100beab0 f i Physics_Parametric.obj
 0001:000bdb30       ?Init@?$idInterpolateAccelDecelLinear@M@@QAEXHHHHABM0@Z 100beb30 f i Physics_Parametric.obj
 0001:000bdc30       ?Init@?$idInterpolateAccelDecelLinear@VidAngles@@@@QAEXHHHHABVidAngles@@0@Z 100bec30 f i Physics_Parametric.obj
 0001:000bdc30       ?Init@?$idInterpolateAccelDecelLinear@VidVec3@@@@QAEXHHHHABVidVec3@@0@Z 100bec30 f i Physics_Parametric.obj
 0001:000bdd90       ?Invalidate@?$idInterpolateAccelDecelLinear@VidAngles@@@@AAEXXZ 100bed90 f i Physics_Parametric.obj
 0001:000bdd90       ?Invalidate@?$idInterpolateAccelDecelLinear@VidVec3@@@@AAEXXZ 100bed90 f i Physics_Parametric.obj
 0001:000bde00       ?IsAtRest@idPhysics_Parametric@@UBE_NXZ 100bee00 f   Physics_Parametric.obj
 0001:000bde10       ?IsPusher@idPhysics_Parametric@@QBE_NXZ 100bee10 f   Physics_Parametric.obj
 0001:000bde20       ?LinkClip@idPhysics_Parametric@@UAEXXZ 100bee20 f   Physics_Parametric.obj
 0001:000bde50       ?ReadFromSnapshot@idPhysics_Parametric@@UAEXABVidBitMsgDelta@@@Z 100bee50 f   Physics_Parametric.obj
 0001:000be680       ?Restore@idPhysics_Parametric@@QAEXPAVidRestoreGame@@@Z 100bf680 f   Physics_Parametric.obj
 0001:000be710       ?RestoreState@idPhysics_Parametric@@UAEXXZ 100bf710 f   Physics_Parametric.obj
 0001:000be750       ?RombergIntegral@?$idCurve@VidVec3@@@@IBEMMMH@Z 100bf750 f i Physics_Parametric.obj
 0001:000beab0       ?Save@idPhysics_Parametric@@QBEXPAVidSaveGame@@@Z 100bfab0 f   Physics_Parametric.obj
 0001:000beb40       ?SaveState@idPhysics_Parametric@@UAEXXZ 100bfb40 f   Physics_Parametric.obj
 0001:000beb50       ?SetAngularExtrapolation@idPhysics_Parametric@@QAEXW4extrapolation_t@@HHABVidAngles@@11@Z 100bfb50 f   Physics_Parametric.obj
 0001:000bec20       ?SetAngularVelocity@idPhysics_Parametric@@UAEXABVidVec3@@H@Z 100bfc20 f   Physics_Parametric.obj
 0001:000bed10       ?SetAxis@idPhysics_Parametric@@UAEXABVidMat3@@H@Z 100bfd10 f   Physics_Parametric.obj
 0001:000bf060       ?SetClipModel@idPhysics_Parametric@@UAEXPAVidClipModel@@MH_N@Z 100c0060 f   Physics_Parametric.obj
 0001:000bf0c0       ?SetContents@idPhysics_Parametric@@UAEXHH@Z 100c00c0 f   Physics_Parametric.obj
 0001:000bf0e0       ?SetLinearExtrapolation@idPhysics_Parametric@@QAEXW4extrapolation_t@@HHABVidVec3@@11@Z 100c00e0 f   Physics_Parametric.obj
 0001:000bf1b0       ?SetLinearInterpolation@idPhysics_Parametric@@QAEXHHHHABVidVec3@@0@Z 100c01b0 f   Physics_Parametric.obj
 0001:000bf210       ?SetLinearVelocity@idPhysics_Parametric@@UAEXABVidVec3@@H@Z 100c0210 f   Physics_Parametric.obj
 0001:000bf260       ?SetMaster@idPhysics_Parametric@@UAEXPAVidEntity@@_N@Z 100c0260 f   Physics_Parametric.obj
 0001:000bf600       ?SetOrigin@idPhysics_Parametric@@UAEXABVidVec3@@H@Z 100c0600 f   Physics_Parametric.obj
 0001:000bf790       ?SetPusher@idPhysics_Parametric@@QAEXH@Z 100c0790 f   Physics_Parametric.obj
 0001:000bf7b0       ?SetSpline@idPhysics_Parametric@@QAEXPAV?$idCurve_Spline@VidVec3@@@@HH_N@Z 100c07b0 f   Physics_Parametric.obj
 0001:000bf8d0       ?UnlinkClip@idPhysics_Parametric@@UAEXXZ 100c08d0 f   Physics_Parametric.obj
 0001:000bf8e0       ?UpdateTime@idPhysics_Parametric@@UAEXH@Z 100c08e0 f   Physics_Parametric.obj
 0001:000bf9d0       ?UsingSplineAngles@idPhysics_Parametric@@QBE_NXZ 100c09d0 f   Physics_Parametric.obj
 0001:000bf9e0       ?WriteToSnapshot@idPhysics_Parametric@@UBEXAAVidBitMsgDelta@@@Z 100c09e0 f   Physics_Parametric.obj
 0001:000c0260       ?idPhysics_Parametric_RestorePState@@YAXPAVidRestoreGame@@AAUparametricPState_s@@@Z 100c1260 f   Physics_Parametric.obj
 0001:000c0650       ?idPhysics_Parametric_SavePState@@YAXPAVidSaveGame@@ABUparametricPState_s@@@Z 100c1650 f   Physics_Parametric.obj
 0001:000c0930       ??0idPhysics_Player@@QAE@XZ 100c1930 f   Physics_Player.obj
 0001:000c0aa0       ??4contactInfo_t@@QAEAAU0@ABU0@@Z 100c1aa0 f i Physics_Player.obj
 0001:000c0b00       ??_EidPhysics_Player@@UAEPAXI@Z 100c1b00 f i Physics_Player.obj
 0001:000c0b00       ??_GidPhysics_Player@@UAEPAXI@Z 100c1b00 f i Physics_Player.obj
 0001:000c0b40       ?AirMove@idPhysics_Player@@AAEXXZ 100c1b40 f   Physics_Player.obj
 0001:000c0eb0       ?ApplyImpulse@idPhysics_Player@@UAEXHABVidVec3@@0@Z 100c1eb0 f   Physics_Player.obj
 0001:000c0f10       ?CheckGround@idPhysics_Player@@AAEXXZ 100c1f10 f   Physics_Player.obj
 0001:000c14c0       ?CheckLadder@idPhysics_Player@@AAEXXZ 100c24c0 f   Physics_Player.obj
 0001:000c1790       ?CheckWaterJump@idPhysics_Player@@AAE_NXZ 100c2790 f   Physics_Player.obj
 0001:000c1a40       ?ClearPushedVelocity@idPhysics_Player@@QAEXXZ 100c2a40 f   Physics_Player.obj
 0001:000c1a60       ?CmdScale@idPhysics_Player@@ABEMABVusercmd_t@@@Z 100c2a60 f   Physics_Player.obj
 0001:000c1b90       ?CreateInstance@idPhysics_Player@@SAPAVidClass@@XZ 100c2b90 f   Physics_Player.obj
 0001:000c1d90       ?Evaluate@idPhysics_Player@@UAE_NHH@Z 100c2d90 f   Physics_Player.obj
 0001:000c1fc0       ?Friction@idPhysics_Player@@AAEXXZ 100c2fc0 f   Physics_Player.obj
 0001:000c2270       ?GetImpactInfo@idPhysics_Player@@UBEXHABVidVec3@@PAUimpactInfo_s@@@Z 100c3270 f   Physics_Player.obj
 0001:000c22c0       ?GetLinearVelocity@idPhysics_Player@@UBEABVidVec3@@H@Z 100c32c0 f   Physics_Player.obj
 0001:000c22d0       ?GetPushedLinearVelocity@idPhysics_Player@@UBEABVidVec3@@H@Z 100c32d0 f   Physics_Player.obj
 0001:000c22e0       ?GetRestStartTime@idPhysics_Player@@UBEHXZ 100c32e0 f   Physics_Player.obj
 0001:000c22e0       ?underflow@?$basic_streambuf@DU?$char_traits@D@std@@@std@@MAEHXZ 100c32e0 f   sbship.obj
 0001:000c22f0       ?GetStepUp@idPhysics_Player@@QBEMXZ 100c32f0 f   Physics_Player.obj
 0001:000c2300       ?GetType@idPhysics_Player@@UBEPAVidTypeInfo@@XZ 100c3300 f   Physics_Player.obj
 0001:000c2310       ?GetWaterLevel@idPhysics_Player@@QBE?AW4waterLevel_t@@XZ 100c3310 f   Physics_Player.obj
 0001:000c2320       ?HasJumped@idPhysics_Player@@QBE_NXZ 100c3320 f   Physics_Player.obj
 0001:000c2330       ?HasSteppedUp@idPhysics_Player@@QBE_NXZ 100c3330 f   Physics_Player.obj
 0001:000c2340       ?IsCrouching@idPhysics_Player@@QBE_NXZ 100c3340 f   Physics_Player.obj
 0001:000c2350       ?LadderMove@idPhysics_Player@@AAEXXZ 100c3350 f   Physics_Player.obj
 0001:000c2b50       ?MovePlayer@idPhysics_Player@@AAEXH@Z 100c3b50 f   Physics_Player.obj
 0001:000c3340       ?NoclipMove@idPhysics_Player@@AAEXXZ 100c4340 f   Physics_Player.obj
 0001:000c36e0       ?OnLadder@idPhysics_Player@@QBE_NXZ 100c46e0 f   Physics_Player.obj
 0001:000c36f0       ?PlayerGetOrigin@idPhysics_Player@@QBEABVidVec3@@XZ 100c46f0 f   Physics_Player.obj
 0001:000c3700       ?ProjectOntoPlane@idVec3@@QAEXABV1@M@Z 100c4700 f i Physics_Player.obj
 0001:000c37b0       ?ReadFromSnapshot@idPhysics_Player@@UAEXABVidBitMsgDelta@@@Z 100c47b0 f   Physics_Player.obj
 0001:000c3a50       ?Restore@idPhysics_Player@@QAEXPAVidRestoreGame@@@Z 100c4a50 f   Physics_Player.obj
 0001:000c3ba0       ?RestoreState@idPhysics_Player@@UAEXXZ 100c4ba0 f   Physics_Player.obj
 0001:000c3be0       ?Rotate@idPhysics_Player@@UAEXABVidRotation@@H@Z 100c4be0 f   Physics_Player.obj
 0001:000c3f40       ?Save@idPhysics_Player@@QBEXPAVidSaveGame@@@Z 100c4f40 f   Physics_Player.obj
 0001:000c40b0       ?SaveState@idPhysics_Player@@UAEXXZ 100c50b0 f   Physics_Player.obj
 0001:000c40d0       ?SetAxis@idPhysics_Player@@UAEXABVidMat3@@H@Z 100c50d0 f   Physics_Player.obj
 0001:000c4100       ?SetDebugLevel@idPhysics_Player@@QAEX_N@Z 100c5100 f   Physics_Player.obj
 0001:000c4110       ?SetKnockBack@idPhysics_Player@@QAEXH@Z 100c5110 f   Physics_Player.obj
 0001:000c4130       ?SetLinearVelocity@idPhysics_Player@@UAEXABVidVec3@@H@Z 100c5130 f   Physics_Player.obj
 0001:000c4160       ?SetMaster@idPhysics_Player@@UAEXPAVidEntity@@_N@Z 100c5160 f   Physics_Player.obj
 0001:000c4270       ?SetMaxJumpHeight@idPhysics_Player@@QAEXM@Z 100c5270 f   Physics_Player.obj
 0001:000c4290       ?SetMaxStepHeight@idPhysics_Player@@QAEXM@Z 100c5290 f   Physics_Player.obj
 0001:000c42b0       ?SetMovementType@idPhysics_Player@@QAEXW4pmtype_t@@@Z 100c52b0 f   Physics_Player.obj
 0001:000c42c0       ?SetOrigin@idPhysics_Player@@UAEXABVidVec3@@H@Z 100c52c0 f   Physics_Player.obj
 0001:000c43e0       ?SetPlayerInput@idPhysics_Player@@QAEXABVusercmd_t@@ABVidAngles@@@Z 100c53e0 f   Physics_Player.obj
 0001:000c4420       ?SetPushed@idPhysics_Player@@UAEXH@Z 100c5420 f   Physics_Player.obj
 0001:000c4520       ?SetSpeed@idPhysics_Player@@QAEXMM@Z 100c5520 f   Physics_Player.obj
 0001:000c4540       ?SetWaterLevel@idPhysics_Player@@AAEXXZ 100c5540 f   Physics_Player.obj
 0001:000c4760       ?SlideMove@idPhysics_Player@@AAE_N_N000@Z 100c5760 f   Physics_Player.obj
 0001:000c5cf0       ?Translate@idPhysics_Player@@UAEXABVidVec3@@H@Z 100c6cf0 f   Physics_Player.obj
 0001:000c5d90       ?WalkMove@idPhysics_Player@@AAEXXZ 100c6d90 f   Physics_Player.obj
 0001:000c6540       ?WaterJumpMove@idPhysics_Player@@AAEXXZ 100c7540 f   Physics_Player.obj
 0001:000c65e0       ?WaterMove@idPhysics_Player@@AAEXXZ 100c75e0 f   Physics_Player.obj
 0001:000c6920       ?WriteToSnapshot@idPhysics_Player@@UBEXAAVidBitMsgDelta@@@Z 100c7920 f   Physics_Player.obj
 0001:000c6c10       ?idPhysics_Player_RestorePState@@YAXPAVidRestoreGame@@AAUplayerPState_s@@@Z 100c7c10 f   Physics_Player.obj
 0001:000c6c80       ?idPhysics_Player_SavePState@@YAXPAVidSaveGame@@ABUplayerPState_s@@@Z 100c7c80 f   Physics_Player.obj
 0001:000c6cf0       ??0idPhysics_RigidBody@@QAE@XZ 100c7cf0 f   Physics_RigidBody.obj
 0001:000c7020       ??1idPhysics_RigidBody@@UAE@XZ 100c8020 f   Physics_RigidBody.obj
 0001:000c7070       ??4rigidBodyPState_s@@QAEAAU0@ABU0@@Z 100c8070 f i Physics_RigidBody.obj
 0001:000c71c0       ??_EidPhysics_RigidBody@@UAEPAXI@Z 100c81c0 f i Physics_RigidBody.obj
 0001:000c71c0       ??_GidPhysics_RigidBody@@UAEPAXI@Z 100c81c0 f i Physics_RigidBody.obj
 0001:000c7240       ?Activate@idPhysics_RigidBody@@UAEXXZ 100c8240 f   Physics_RigidBody.obj
 0001:000c7260       ?AddForce@idPhysics_RigidBody@@UAEXHABVidVec3@@0@Z 100c8260 f   Physics_RigidBody.obj
 0001:000c73f0       ?ApplyImpulse@idPhysics_RigidBody@@UAEXHABVidVec3@@0@Z 100c83f0 f   Physics_RigidBody.obj
 0001:000c7580       ?CheckForCollisions@idPhysics_RigidBody@@AAE_NMAAUrigidBodyPState_s@@AAUtrace_s@@@Z 100c8580 f   Physics_RigidBody.obj
 0001:000c7880       ?ClipContents@idPhysics_RigidBody@@UBEHPBVidClipModel@@@Z 100c8880 f   Physics_RigidBody.obj
 0001:000c78e0       ?ClipRotation@idPhysics_RigidBody@@UBEXAAUtrace_s@@ABVidRotation@@PBVidClipModel@@@Z 100c88e0 f   Physics_RigidBody.obj
 0001:000c7960       ?ClipTranslation@idPhysics_RigidBody@@UBEXAAUtrace_s@@ABVidVec3@@PBVidClipModel@@@Z 100c8960 f   Physics_RigidBody.obj
 0001:000c7a40       ?CollisionImpulse@idPhysics_RigidBody@@AAE_NABUtrace_s@@AAVidVec3@@@Z 100c8a40 f   Physics_RigidBody.obj
 0001:000c8550       ?ContactFriction@idPhysics_RigidBody@@AAEXM@Z 100c9550 f   Physics_RigidBody.obj
 0001:000c9200       ?CreateInstance@idPhysics_RigidBody@@SAPAVidClass@@XZ 100ca200 f   Physics_RigidBody.obj
 0001:000c92a0       ?DebugDraw@idPhysics_RigidBody@@AAEXXZ 100ca2a0 f   Physics_RigidBody.obj
 0001:000c94a0       ?DisableClip@idPhysics_RigidBody@@UAEXXZ 100ca4a0 f   Physics_RigidBody.obj
 0001:000c94b0       ?DisableImpact@idPhysics_RigidBody@@QAEXXZ 100ca4b0 f   Physics_RigidBody.obj
 0001:000c94c0       ?DropToFloor@idPhysics_RigidBody@@QAEXXZ 100ca4c0 f   Physics_RigidBody.obj
 0001:000c94d0       ?DropToFloorAndRest@idPhysics_RigidBody@@AAEXXZ 100ca4d0 f   Physics_RigidBody.obj
 0001:000c9690       ?EnableClip@idPhysics_RigidBody@@UAEXXZ 100ca690 f   Physics_RigidBody.obj
 0001:000c96a0       ?EnableImpact@idPhysics_RigidBody@@QAEXXZ 100ca6a0 f   Physics_RigidBody.obj
 0001:000c96b0       ?Evaluate@idPhysics_RigidBody@@UAE_NHH@Z 100ca6b0 f   Physics_RigidBody.obj
 0001:000ca300       ?EvaluateContacts@idPhysics_RigidBody@@UAE_NXZ 100cb300 f   Physics_RigidBody.obj
 0001:000ca420       ?GetAbsBounds@idPhysics_RigidBody@@UBEABVidBounds@@H@Z 100cb420 f   Physics_RigidBody.obj
 0001:000ca430       ?GetAngularVelocity@idPhysics_RigidBody@@UBEABVidVec3@@H@Z 100cb430 f   Physics_RigidBody.obj
 0001:000ca860       ?GetAxis@idPhysics_RigidBody@@UBEABVidMat3@@H@Z 100cb860 f   Physics_RigidBody.obj
 0001:000ca870       ?GetBounds@idPhysics_RigidBody@@UBEABVidBounds@@H@Z 100cb870 f   Physics_RigidBody.obj
 0001:000ca880       ?GetClipModel@idPhysics_RigidBody@@UBEPAVidClipModel@@H@Z 100cb880 f   Physics_RigidBody.obj
 0001:000ca890       ?GetContents@idPhysics_RigidBody@@UBEHH@Z 100cb890 f   Physics_RigidBody.obj
 0001:000ca8a0       ?GetImpactInfo@idPhysics_RigidBody@@UBEXHABVidVec3@@PAUimpactInfo_s@@@Z 100cb8a0 f   Physics_RigidBody.obj
 0001:000caf20       ?GetLinearVelocity@idPhysics_RigidBody@@UBEABVidVec3@@H@Z 100cbf20 f   Physics_RigidBody.obj
 0001:000caf70       ?GetMass@idPhysics_RigidBody@@UBEMH@Z 100cbf70 f   Physics_RigidBody.obj
 0001:000caf80       ?GetOrigin@idPhysics_RigidBody@@UBEABVidVec3@@H@Z 100cbf80 f   Physics_RigidBody.obj
 0001:000caf90       ?GetPushedAngularVelocity@idPhysics_RigidBody@@UBEABVidVec3@@H@Z 100cbf90 f   Physics_RigidBody.obj
 0001:000cafa0       ?GetPushedLinearVelocity@idPhysics_RigidBody@@UBEABVidVec3@@H@Z 100cbfa0 f   Physics_RigidBody.obj
 0001:000cafb0       ?GetType@idPhysics_RigidBody@@UBEPAVidTypeInfo@@XZ 100cbfb0 f   Physics_RigidBody.obj
 0001:000cafc0       ?Integrate@idPhysics_RigidBody@@AAEXMAAUrigidBodyPState_s@@@Z 100cbfc0 f   Physics_RigidBody.obj
 0001:000cb4a0       ?IsAtRest@idPhysics_RigidBody@@UBE_NXZ 100cc4a0 f   Physics_RigidBody.obj
 0001:000cb4b0       ?IsPushable@idPhysics_RigidBody@@UBE_NXZ 100cc4b0 f   Physics_RigidBody.obj
 0001:000cb4d0       ?LinkClip@idPhysics_RigidBody@@UAEXXZ 100cc4d0 f   Physics_RigidBody.obj
 0001:000cb500       ?NoContact@idPhysics_RigidBody@@QAEXXZ 100cc500 f   Physics_RigidBody.obj
 0001:000cb510       ?PutToRest@idPhysics_RigidBody@@UAEXXZ 100cc510 f   Physics_RigidBody.obj
 0001:000cb510       ?Rest@idPhysics_RigidBody@@AAEXXZ 100cc510 f   Physics_RigidBody.obj
 0001:000cb560       ?ReadFromSnapshot@idPhysics_RigidBody@@UAEXABVidBitMsgDelta@@@Z 100cc560 f   Physics_RigidBody.obj
 0001:000cbab0       ?Restore@idPhysics_RigidBody@@QAEXPAVidRestoreGame@@@Z 100ccab0 f   Physics_RigidBody.obj
 0001:000cbbc0       ?RestoreState@idPhysics_RigidBody@@UAEXXZ 100ccbc0 f   Physics_RigidBody.obj
 0001:000cbc10       ?RigidBodyDerivatives@@YAXMPBXPBMPAM@Z 100ccc10 f   Physics_RigidBody.obj
 0001:000cc350       ?Rotate@idPhysics_RigidBody@@UAEXABVidRotation@@H@Z 100cd350 f   Physics_RigidBody.obj
 0001:000cc560       ?Save@idPhysics_RigidBody@@QBEXPAVidSaveGame@@@Z 100cd560 f   Physics_RigidBody.obj
 0001:000cc6a0       ?SaveState@idPhysics_RigidBody@@UAEXXZ 100cd6a0 f   Physics_RigidBody.obj
 0001:000cc6b0       ?SetAngularVelocity@idPhysics_RigidBody@@UAEXABVidVec3@@H@Z 100cd6b0 f   Physics_RigidBody.obj
 0001:000cc760       ?SetAxis@idPhysics_RigidBody@@UAEXABVidMat3@@H@Z 100cd760 f   Physics_RigidBody.obj
 0001:000cca40       ?SetBouncyness@idPhysics_RigidBody@@QAEXM@Z 100cda40 f   Physics_RigidBody.obj
 0001:000cca70       ?SetClipModel@idPhysics_RigidBody@@UAEXPAVidClipModel@@MH_N@Z 100cda70 f   Physics_RigidBody.obj
 0001:000cce10       ?SetContents@idPhysics_RigidBody@@UAEXHH@Z 100cde10 f   Physics_RigidBody.obj
 0001:000cce20       ?SetFriction@idPhysics_RigidBody@@QAEXMMM@Z 100cde20 f   Physics_RigidBody.obj
 0001:000cce80       ?SetLinearVelocity@idPhysics_RigidBody@@UAEXABVidVec3@@H@Z 100cde80 f   Physics_RigidBody.obj
 0001:000ccec0       ?SetMass@idPhysics_RigidBody@@UAEXMH@Z 100cdec0 f   Physics_RigidBody.obj
 0001:000ccff0       ?SetMaster@idPhysics_RigidBody@@UAEXPAVidEntity@@_N@Z 100cdff0 f   Physics_RigidBody.obj
 0001:000cd2e0       ?SetOrigin@idPhysics_RigidBody@@UAEXABVidVec3@@H@Z 100ce2e0 f   Physics_RigidBody.obj
 0001:000cd400       ?SetPushed@idPhysics_RigidBody@@UAEXH@Z 100ce400 f   Physics_RigidBody.obj
 0001:000cd740       ?TestIfAtRest@idPhysics_RigidBody@@ABE_NXZ 100ce740 f   Physics_RigidBody.obj
 0001:000cdd50       ?Translate@idPhysics_RigidBody@@UAEXABVidVec3@@H@Z 100ced50 f   Physics_RigidBody.obj
 0001:000cdde0       ?UnlinkClip@idPhysics_RigidBody@@UAEXXZ 100cede0 f   Physics_RigidBody.obj
 0001:000cddf0       ?WriteToSnapshot@idPhysics_RigidBody@@UBEXAAVidBitMsgDelta@@@Z 100cedf0 f   Physics_RigidBody.obj
 0001:000ce410       ?idPhysics_RigidBody_RestorePState@@YAXPAVidRestoreGame@@AAUrigidBodyPState_s@@@Z 100cf410 f   Physics_RigidBody.obj
 0001:000ce4a0       ?idPhysics_RigidBody_SavePState@@YAXPAVidSaveGame@@ABUrigidBodyPState_s@@@Z 100cf4a0 f   Physics_RigidBody.obj
 0001:000ce540       ??0idPhysics_Static@@QAE@XZ 100cf540 f   Physics_Static.obj
 0001:000ce680       ??1idPhysics_Static@@UAE@XZ 100cf680 f   Physics_Static.obj
 0001:000ce700       ??_EidPhysics_Static@@UAEPAXI@Z 100cf700 f i Physics_Static.obj
 0001:000ce700       ??_GidPhysics_Static@@UAEPAXI@Z 100cf700 f i Physics_Static.obj
 0001:000ce7c0       ?ClipContents@idPhysics_Static@@UBEHPBVidClipModel@@@Z 100cf7c0 f   Physics_Static.obj
 0001:000ce820       ?ClipRotation@idPhysics_Static@@UBEXAAUtrace_s@@ABVidRotation@@PBVidClipModel@@@Z 100cf820 f   Physics_Static.obj
 0001:000ce890       ?ClipTranslation@idPhysics_Static@@UBEXAAUtrace_s@@ABVidVec3@@PBVidClipModel@@@Z 100cf890 f   Physics_Static.obj
 0001:000ce960       ?CreateInstance@idPhysics_Static@@SAPAVidClass@@XZ 100cf960 f   Physics_Static.obj
 0001:000ceb20       ?DisableClip@idPhysics_Static@@UAEXXZ 100cfb20 f   Physics_Static.obj
 0001:000ceb30       ?EnableClip@idPhysics_Static@@UAEXXZ 100cfb30 f   Physics_Static.obj
 0001:000ceb40       ?Evaluate@idPhysics_Static@@UAE_NHH@Z 100cfb40 f   Physics_Static.obj
 0001:000cef70       ?GetAbsBounds@idPhysics_Static@@UBEABVidBounds@@H@Z 100cff70 f   Physics_Static.obj
 0001:000cefd0       ?GetAxis@idPhysics_Static@@UBEABVidMat3@@H@Z 100cffd0 f   Physics_Static.obj
 0001:000cefe0       ?GetBounds@idPhysics_Static@@UBEABVidBounds@@H@Z 100cffe0 f   Physics_Static.obj
 0001:000cf000       ?GetClipModel@idPhysics_Static@@UBEPAVidClipModel@@H@Z 100d0000 f   Physics_Static.obj
 0001:000cf010       ?GetContact@idPhysics_Static@@UBEABUcontactInfo_t@@H@Z 100d0010 f   Physics_Static.obj
 0001:000cf030       ?GetContents@idPhysics_Static@@UBEHH@Z 100d0030 f   Physics_Static.obj
 0001:000cf050       ?GetGravity@idPhysics_Static@@UBEABVidVec3@@XZ 100d0050 f   Physics_Static.obj
 0001:000cf0d0       ?GetGravityNormal@idPhysics_Static@@UBEABVidVec3@@XZ 100d00d0 f   Physics_Static.obj
 0001:000cf0e0       ?GetNumClipModels@idPhysics_Static@@UBEHXZ 100d00e0 f   Physics_Static.obj
 0001:000cf0f0       ?GetOrigin@idPhysics_Static@@UBEABVidVec3@@H@Z 100d00f0 f   Physics_Static.obj
 0001:000cf100       ?GetType@idPhysics_Static@@UBEPAVidTypeInfo@@XZ 100d0100 f   Physics_Static.obj
 0001:000cf110       ?IsGroundEntity@idPhysics_Static@@UBE_NH@Z 100d0110 f   Physics_Static.obj
 0001:000cf110       ?IsGroundEntity@idPhysics_StaticMulti@@UBE_NH@Z 100d0110 f   Physics_StaticMulti.obj
 0001:000cf120       ?LinkClip@idPhysics_Static@@UAEXXZ 100d0120 f   Physics_Static.obj
 0001:000cf150       ?ReadFromSnapshot@idPhysics_Static@@UAEXABVidBitMsgDelta@@@Z 100d0150 f   Physics_Static.obj
 0001:000cf330       ?Restore@idPhysics_Static@@QAEXPAVidRestoreGame@@@Z 100d0330 f   Physics_Static.obj
 0001:000cf3a0       ?Rotate@idPhysics_Static@@UAEXABVidRotation@@H@Z 100d03a0 f   Physics_Static.obj
 0001:000cf590       ?Save@idPhysics_Static@@QBEXPAVidSaveGame@@@Z 100d0590 f   Physics_Static.obj
 0001:000cf600       ?SetAxis@idPhysics_Static@@UAEXABVidMat3@@H@Z 100d0600 f   Physics_Static.obj
 0001:000cf8d0       ?SetClipModel@idPhysics_Static@@UAEXPAVidClipModel@@MH_N@Z 100d08d0 f   Physics_Static.obj
 0001:000cf930       ?SetContents@idPhysics_Static@@UAEXHH@Z 100d0930 f   Physics_Static.obj
 0001:000cf950       ?SetMaster@idPhysics_Static@@UAEXPAVidEntity@@_N@Z 100d0950 f   Physics_Static.obj
 0001:000cfc00       ?SetOrigin@idPhysics_Static@@UAEXABVidVec3@@H@Z 100d0c00 f   Physics_Static.obj
 0001:000cfd10       ?Translate@idPhysics_Static@@UAEXABVidVec3@@H@Z 100d0d10 f   Physics_Static.obj
 0001:000cfd90       ?UnlinkClip@idPhysics_Static@@UAEXXZ 100d0d90 f   Physics_Static.obj
 0001:000cfda0       ?WriteToSnapshot@idPhysics_Static@@UBEXAAVidBitMsgDelta@@@Z 100d0da0 f   Physics_Static.obj
 0001:000cff80       ??0idPhysics_StaticMulti@@QAE@XZ 100d0f80 f   Physics_StaticMulti.obj
 0001:000d01b0       ??1idPhysics_StaticMulti@@UAE@XZ 100d11b0 f   Physics_StaticMulti.obj
 0001:000d0290       ??4staticPState_s@@QAEAAU0@ABU0@@Z 100d1290 f i Physics_StaticMulti.obj
 0001:000d0330       ??_EidPhysics_StaticMulti@@UAEPAXI@Z 100d1330 f i Physics_StaticMulti.obj
 0001:000d0330       ??_GidPhysics_StaticMulti@@UAEPAXI@Z 100d1330 f i Physics_StaticMulti.obj
 0001:000d0440       ?AssureSize@?$idList@UstaticPState_s@@@@QAEXHABUstaticPState_s@@@Z 100d1440 f i Physics_StaticMulti.obj
 0001:000d0550       ?ClipContents@idPhysics_StaticMulti@@UBEHPBVidClipModel@@@Z 100d1550 f   Physics_StaticMulti.obj
 0001:000d05c0       ?ClipRotation@idPhysics_StaticMulti@@UBEXAAUtrace_s@@ABVidRotation@@PBVidClipModel@@@Z 100d15c0 f   Physics_StaticMulti.obj
 0001:000d05f0       ?ClipTranslation@idPhysics_StaticMulti@@UBEXAAUtrace_s@@ABVidVec3@@PBVidClipModel@@@Z 100d15f0 f   Physics_StaticMulti.obj
 0001:000d0620       ?CreateInstance@idPhysics_StaticMulti@@SAPAVidClass@@XZ 100d1620 f   Physics_StaticMulti.obj
 0001:000d08b0       ?DisableClip@idPhysics_StaticMulti@@UAEXXZ 100d18b0 f   Physics_StaticMulti.obj
 0001:000d08e0       ?EnableClip@idPhysics_StaticMulti@@UAEXXZ 100d18e0 f   Physics_StaticMulti.obj
 0001:000d0910       ?Evaluate@idPhysics_StaticMulti@@UAE_NHH@Z 100d1910 f   Physics_StaticMulti.obj
 0001:000d0c70       ?GetAbsBounds@idPhysics_StaticMulti@@UBEABVidBounds@@H@Z 100d1c70 f   Physics_StaticMulti.obj
 0001:000d0db0       ?GetAxis@idPhysics_StaticMulti@@UBEABVidMat3@@H@Z 100d1db0 f   Physics_StaticMulti.obj
 0001:000d0df0       ?GetBounds@idPhysics_StaticMulti@@UBEABVidBounds@@H@Z 100d1df0 f   Physics_StaticMulti.obj
 0001:000d0fb0       ?GetClipModel@idPhysics_StaticMulti@@UBEPAVidClipModel@@H@Z 100d1fb0 f   Physics_StaticMulti.obj
 0001:000d0fe0       ?GetContact@idPhysics_StaticMulti@@UBEABUcontactInfo_t@@H@Z 100d1fe0 f   Physics_StaticMulti.obj
 0001:000d1000       ?GetContents@idPhysics_StaticMulti@@UBEHH@Z 100d2000 f   Physics_StaticMulti.obj
 0001:000d1050       ?GetGravity@idPhysics_StaticMulti@@UBEABVidVec3@@XZ 100d2050 f   Physics_StaticMulti.obj
 0001:000d10d0       ?GetGravityNormal@idPhysics_StaticMulti@@UBEABVidVec3@@XZ 100d20d0 f   Physics_StaticMulti.obj
 0001:000d10e0       ?GetOrigin@idPhysics_StaticMulti@@UBEABVidVec3@@H@Z 100d20e0 f   Physics_StaticMulti.obj
 0001:000d1110       ?GetType@idPhysics_StaticMulti@@UBEPAVidTypeInfo@@XZ 100d2110 f   Physics_StaticMulti.obj
 0001:000d1120       ?LinkClip@idPhysics_StaticMulti@@UAEXXZ 100d2120 f   Physics_StaticMulti.obj
 0001:000d1170       ?ReadFromSnapshot@idPhysics_StaticMulti@@UAEXABVidBitMsgDelta@@@Z 100d2170 f   Physics_StaticMulti.obj
 0001:000d13c0       ?RemoveIndex@idPhysics_StaticMulti@@QAEXH_N@Z 100d23c0 f   Physics_StaticMulti.obj
 0001:000d1530       ?Resize@?$idList@UstaticPState_s@@@@QAEXH@Z 100d2530 f i Physics_StaticMulti.obj
 0001:000d1670       ?Restore@idPhysics_StaticMulti@@QAEXPAVidRestoreGame@@@Z 100d2670 f   Physics_StaticMulti.obj
 0001:000d1790       ?Rotate@idPhysics_StaticMulti@@UAEXABVidRotation@@H@Z 100d2790 f   Physics_StaticMulti.obj
 0001:000d1da0       ?Save@idPhysics_StaticMulti@@QBEXPAVidSaveGame@@@Z 100d2da0 f   Physics_StaticMulti.obj
 0001:000d1e60       ?SetAxis@idPhysics_StaticMulti@@UAEXABVidMat3@@H@Z 100d2e60 f   Physics_StaticMulti.obj
 0001:000d26a0       ?SetClipModel@idPhysics_StaticMulti@@UAEXPAVidClipModel@@MH_N@Z 100d36a0 f   Physics_StaticMulti.obj
 0001:000d27d0       ?SetContents@idPhysics_StaticMulti@@UAEXHH@Z 100d37d0 f   Physics_StaticMulti.obj
 0001:000d2820       ?SetMaster@idPhysics_StaticMulti@@UAEXPAVidEntity@@_N@Z 100d3820 f   Physics_StaticMulti.obj
 0001:000d2b60       ?SetOrigin@idPhysics_StaticMulti@@UAEXABVidVec3@@H@Z 100d3b60 f   Physics_StaticMulti.obj
 0001:000d2db0       ?Translate@idPhysics_StaticMulti@@UAEXABVidVec3@@H@Z 100d3db0 f   Physics_StaticMulti.obj
 0001:000d2f30       ?UnlinkClip@idPhysics_StaticMulti@@UAEXXZ 100d3f30 f   Physics_StaticMulti.obj
 0001:000d2f60       ?WriteToSnapshot@idPhysics_StaticMulti@@UBEXAAVidBitMsgDelta@@@Z 100d3f60 f   Physics_StaticMulti.obj
 0001:000d31a0       ?ClipPush@idPush@@QAEMAAUtrace_s@@PAVidEntity@@HABVidVec3@@ABVidMat3@@AAV4@AAV5@@Z 100d41a0 f   Push.obj
 0001:000d3aa0       ?ClipRotationalPush@idPush@@QAEMAAUtrace_s@@PAVidEntity@@HABVidMat3@@ABVidRotation@@@Z 100d4aa0 f   Push.obj
 0001:000d4020       ?ClipTranslationalPush@idPush@@QAEMAAUtrace_s@@PAVidEntity@@HABVidVec3@@2@Z 100d5020 f   Push.obj
 0001:000d46f0       ?DiscardEntities@idPush@@AAEHQAPAVidEntity@@HHPAV2@@Z 100d56f0 f   Push.obj
 0001:000d4800       ?InitSavingPushedEntityPositions@idPush@@QAEXXZ 100d5800 f   Push.obj
 0001:000d4810       ?RestorePushedEntityPositions@idPush@@QAEXXZ 100d5810 f   Push.obj
 0001:000d4860       ?RotateEntityToAxial@idPush@@AAE_NPAVidEntity@@VidVec3@@@Z 100d5860 f   Push.obj
 0001:000d4ba0       ?SaveEntityPosition@idPush@@AAEXPAVidEntity@@@Z 100d5ba0 f   Push.obj
 0001:000d4c40       ?TryRotatePushEntity@idPush@@AAEHAAUtrace_s@@PAVidEntity@@PAVidClipModel@@HABVidMat3@@ABVidRotation@@@Z 100d5c40 f   Push.obj
 0001:000d5370       ?TryTranslatePushEntity@idPush@@AAEHAAUtrace_s@@PAVidEntity@@PAVidClipModel@@HABVidVec3@@3@Z 100d6370 f   Push.obj
 0001:000d56b0       ??_9sbCaptainChair@@$BBBM@AE 100d66b0 f i sbship.obj
 0001:000d56b0       ??_9sbConsole@@$BBBM@AE    100d66b0 f i sbConsole.obj
 0001:000d56b0       ??_9sbModule@@$BBBM@AE     100d66b0 f i sbModule.obj
 0001:000d56b0       ??_9sbTransporterPad@@$BBBM@AE 100d66b0 f i sbship.obj
 0001:000d56b0       ?Event_Enable@idTrigger@@IAEXXZ 100d66b0 f i Trigger.obj
 0001:000d56c0       ??_9sbCaptainChair@@$BBCA@AE 100d66c0 f i sbship.obj
 0001:000d56c0       ??_9sbConsole@@$BBCA@AE    100d66c0 f i sbConsole.obj
 0001:000d56c0       ??_9sbModule@@$BBCA@AE     100d66c0 f i sbModule.obj
 0001:000d56c0       ??_9sbTransporterPad@@$BBCA@AE 100d66c0 f i sbship.obj
 0001:000d56c0       ?Event_Disable@idTrigger@@IAEXXZ 100d66c0 f i Trigger.obj
 0001:000d56c0       ?Event_Stop@idCameraAnim@@AAEXXZ 100d66c0 f i Camera.obj
 0001:000d56c8       ??_9sbCaptainChair@@$BBCE@AE 100d66c8 f i sbship.obj
 0001:000d56c8       ??_9sbConsole@@$BBCE@AE    100d66c8 f i sbConsole.obj
 0001:000d56c8       ??_9sbModule@@$BBCE@AE     100d66c8 f i sbModule.obj
 0001:000d56c8       ??_9sbTransporterPad@@$BBCE@AE 100d66c8 f i sbship.obj
 0001:000d56d0       ??_EsbConsole@@UAEPAXI@Z   100d66d0 f i sbConsole.obj
 0001:000d56d0       ??_GsbConsole@@UAEPAXI@Z   100d66d0 f i sbConsole.obj
 0001:000d5710       ?CreateInstance@sbConsole@@SAPAVidClass@@XZ 100d6710 f   sbConsole.obj
 0001:000d5840       ?Damage@sbConsole@@UAEXPAVidEntity@@0ABVidVec3@@PBDMH@Z 100d6840 f   sbConsole.obj
 0001:000d5bb0       ?DoStuffAfterAllMapEntitiesHaveSpawned@sbConsole@@UAEXXZ 100d6bb0 f   sbConsole.obj
 0001:000d5cc0       ?GetType@sbConsole@@UBEPAVidTypeInfo@@XZ 100d6cc0 f   sbConsole.obj
 0001:000d5cd0       ?HandleNamedEventOnGui0@sbConsole@@UAEXPBD@Z 100d6cd0 f   sbConsole.obj
 0001:000d5cd0       ?HandleNamedEventOnGui0@sbModule@@UAEXPBD@Z 100d6cd0 f   sbModule.obj
 0001:000d5cf0       ?HandleNamedEventOnGuis@idEntity@@UAEXPBD@Z 100d6cf0 f   Entity.obj
 0001:000d5cf0       ?HandleNamedEventOnGuis@sbCaptainChair@@UAEXPBD@Z 100d6cf0 f   sbship.obj
 0001:000d5cf0       ?HandleNamedEventOnGuis@sbConsole@@UAEXPBD@Z 100d6cf0 f   sbConsole.obj
 0001:000d5cf0       ?HandleNamedEventOnGuis@sbTransporterPad@@UAEXPBD@Z 100d6cf0 f   sbship.obj
 0001:000d5d30       ?HandleSingleGuiCommand@sbConsole@@UAE_NPAVidEntity@@PAVidLexer@@@Z 100d6d30 f   sbConsole.obj
 0001:000d67a0       ?RecieveVolley@sbConsole@@UAEXXZ 100d77a0 f   sbConsole.obj
 0001:000d67a0       ?RecieveVolley@sbModule@@UAEXXZ 100d77a0 f   sbModule.obj
 0001:000d67b0       ?ReleasePlayerCaptain@sbConsole@@QAEXXZ 100d77b0 f   sbConsole.obj
 0001:000d68f0       ?Restore@sbConsole@@UAEXPAVidRestoreGame@@@Z 100d78f0 f   sbConsole.obj
 0001:000d6960       ?Save@sbConsole@@UBEXPAVidSaveGame@@@Z 100d7960 f   sbConsole.obj
 0001:000d69d0       ?SetRenderEntityGui0Bool@sbConsole@@UAEXPBD_N@Z 100d79d0 f   sbConsole.obj
 0001:000d69d0       ?SetRenderEntityGui0Bool@sbModule@@UAEXPBD_N@Z 100d79d0 f   sbModule.obj
 0001:000d69f0       ?SetRenderEntityGui0Float@sbConsole@@UAEXPBDM@Z 100d79f0 f   sbConsole.obj
 0001:000d69f0       ?SetRenderEntityGui0Float@sbModule@@UAEXPBDM@Z 100d79f0 f   sbModule.obj
 0001:000d6a20       ?SetRenderEntityGui0Int@sbConsole@@UAEXPBDH@Z 100d7a20 f   sbConsole.obj
 0001:000d6a20       ?SetRenderEntityGui0Int@sbModule@@UAEXPBDH@Z 100d7a20 f   sbModule.obj
 0001:000d6a40       ?SetRenderEntityGui0String@sbConsole@@UAEXPBD0@Z 100d7a40 f   sbConsole.obj
 0001:000d6a40       ?SetRenderEntityGui0String@sbModule@@UAEXPBD0@Z 100d7a40 f   sbModule.obj
 0001:000d6a60       ?SetRenderEntityGuisBools@idEntity@@UAEXPBD_N@Z 100d7a60 f   Entity.obj
 0001:000d6a60       ?SetRenderEntityGuisBools@sbCaptainChair@@UAEXPBD_N@Z 100d7a60 f   sbship.obj
 0001:000d6a60       ?SetRenderEntityGuisBools@sbConsole@@UAEXPBD_N@Z 100d7a60 f   sbConsole.obj
 0001:000d6a60       ?SetRenderEntityGuisBools@sbTransporterPad@@UAEXPBD_N@Z 100d7a60 f   sbship.obj
 0001:000d6ab0       ?SetRenderEntityGuisFloats@idEntity@@UAEXPBDM@Z 100d7ab0 f   Entity.obj
 0001:000d6ab0       ?SetRenderEntityGuisFloats@sbCaptainChair@@UAEXPBDM@Z 100d7ab0 f   sbship.obj
 0001:000d6ab0       ?SetRenderEntityGuisFloats@sbConsole@@UAEXPBDM@Z 100d7ab0 f   sbConsole.obj
 0001:000d6ab0       ?SetRenderEntityGuisFloats@sbTransporterPad@@UAEXPBDM@Z 100d7ab0 f   sbship.obj
 0001:000d6b20       ?SetRenderEntityGuisInts@idEntity@@UAEXPBDH@Z 100d7b20 f   Entity.obj
 0001:000d6b20       ?SetRenderEntityGuisInts@sbCaptainChair@@UAEXPBDH@Z 100d7b20 f   sbship.obj
 0001:000d6b20       ?SetRenderEntityGuisInts@sbConsole@@UAEXPBDH@Z 100d7b20 f   sbConsole.obj
 0001:000d6b20       ?SetRenderEntityGuisInts@sbTransporterPad@@UAEXPBDH@Z 100d7b20 f   sbship.obj
 0001:000d6b70       ?SetRenderEntityGuisStrings@idEntity@@UAEXPBD0@Z 100d7b70 f   Entity.obj
 0001:000d6b70       ?SetRenderEntityGuisStrings@sbCaptainChair@@UAEXPBD0@Z 100d7b70 f   sbship.obj
 0001:000d6b70       ?SetRenderEntityGuisStrings@sbConsole@@UAEXPBD0@Z 100d7b70 f   sbConsole.obj
 0001:000d6b70       ?SetRenderEntityGuisStrings@sbTransporterPad@@UAEXPBD0@Z 100d7b70 f   sbship.obj
 0001:000d6bc0       ?Spawn@sbConsole@@UAEXXZ   100d7bc0 f   sbConsole.obj
 0001:000d6e20       ?Event_ResetBuffAmount@sbModule@@QAEXXZ 100d7e20 f   sbModule.obj
 0001:000d6e50       ?Event_LoopEfficiencyCalculation@sbModule@@QAEXXZ 100d7e50 f   sbModule.obj
 0001:000d6e80       ??_EsbModule@@UAEPAXI@Z    100d7e80 f i sbModule.obj
 0001:000d6e80       ??_GsbModule@@UAEPAXI@Z    100d7e80 f i sbModule.obj
 0001:000d6ec0       ?BuffModule@sbModule@@UAEXH@Z 100d7ec0 f   sbModule.obj
 0001:000d6f00       ?CreateInstance@sbModule@@SAPAVidClass@@XZ 100d7f00 f   sbModule.obj
 0001:000d70d0       ?Damage@sbModule@@UAEXPAVidEntity@@0ABVidVec3@@PBDMH@Z 100d80d0 f   sbModule.obj
 0001:000d7470       ?GetType@sbModule@@UBEPAVidTypeInfo@@XZ 100d8470 f   sbModule.obj
 0001:000d7480       ?HandleSingleGuiCommand@sbModule@@UAE_NPAVidEntity@@PAVidLexer@@@Z 100d8480 f   sbModule.obj
 0001:000d7aa0       ?RecalculateModuleEfficiency@sbModule@@UAEXXZ 100d8aa0 f   sbModule.obj
 0001:000d7d60       ?RecieveShipToShipDamage@sbModule@@UAEXPAVidEntity@@H@Z 100d8d60 f   sbModule.obj
 0001:000d8710       ?Restore@sbModule@@UAEXPAVidRestoreGame@@@Z 100d9710 f   sbModule.obj
 0001:000d8930       ?Save@sbModule@@UBEXPAVidSaveGame@@@Z 100d9930 f   sbModule.obj
 0001:000d8b80       ?Spawn@sbModule@@UAEXXZ    100d9b80 f   sbModule.obj
 0001:000d8dc0       ?UpdateChargeAmount@sbModule@@UAEXXZ 100d9dc0 f   sbModule.obj
 0001:000d8ee0       ?Event_UpdateBeamVisibility@sbShip@@QAEXXZ 100d9ee0 f   sbship.obj
 0001:000d8f10       ?Event_UpdateShieldEntityVisibility@sbShip@@QAEXXZ 100d9f10 f   sbship.obj
 0001:000d8f80       ?Event_CheckTorpedoStatus@sbShip@@QAEXXZ 100d9f80 f   sbship.obj
 0001:000d8ff0       ?Event_TestScriptFunction@sbShip@@QAEXXZ 100d9ff0 f   sbship.obj
 0001:000d9010       ?Event_SetMinimumModulePowers@sbShip@@QAEXXZ 100da010 f   sbship.obj
 0001:000d9260       ?Event_HandleBeginningShipDormancy@sbShip@@QAEXXZ 100da260 f   sbship.obj
 0001:000d9450       ?Event_SetTargetEntityInSpace@sbShip@@QAEXXZ 100da450 f   sbship.obj
 0001:000d9460       ?Event_EngageWarp@sbShip@@QAEXXZ 100da460 f   sbship.obj
 0001:000d9730       ?Event_InitiateTransporter@sbShip@@QAEXXZ 100da730 f   sbship.obj
 0001:000d9740       ?Event_InitiateRetrievalTransport@sbShip@@QAEXXZ 100da740 f   sbship.obj
 0001:000d9750       ?Event_InitiateOffPadRetrievalTransport@sbShip@@QAEXPAVidEntity@@@Z 100da750 f   sbship.obj
 0001:000d9a90       ?Event_InitiateOffPadRetrievalTransportToReserveCrew@sbShip@@QAEXPAVidEntity@@@Z 100daa90 f   sbship.obj
 0001:000d9c60       ?Event_DisplayStoryWindow@sbShip@@QAEXXZ 100dac60 f   sbship.obj
 0001:000d9ce0       ?Event_StartSynchdRedAlertFX@sbShip@@QAEXXZ 100dace0 f   sbship.obj
 0001:000da010       ?Event_UpdateViewscreenCamera@sbShip@@QAEXXZ 100db010 f   sbship.obj
 0001:000da020       ?Event_DoWarpInVisualEffects@sbShip@@QAEXXZ 100db020 f   sbship.obj
 0001:000da0d0       ?Event_FinishWarpInVisualEffects@sbShip@@QAEXXZ 100db0d0 f   sbship.obj
 0001:000da4a0       ?Event_ConcludeShipDestructionSequence@sbShip@@QAEXXZ 100db4a0 f   sbship.obj
 0001:000dab20       ?Event_EvaluateShipRepairModeCycle@sbShip@@QAEXXZ 100dbb20 f   sbship.obj
 0001:000dad80       ?Event_IsPlayerShip@sbShip@@QAEXXZ 100dbd80 f   sbship.obj
 0001:000dade0       ?Event_IsAtPlayerSGPosition@sbShip@@QAEXXZ 100dbde0 f   sbship.obj
 0001:000dae60       ?Event_IsAtPlayerShipSGPosition@sbShip@@QAEXXZ 100dbe60 f   sbship.obj
 0001:000daee0       ?Event_SpaceEntityIsAtMySGPosition@sbShip@@QAEXPAVidEntity@@@Z 100dbee0 f   sbship.obj
 0001:000daf20       ?Event_IsDerelict@sbShip@@QAEXXZ 100dbf20 f   sbship.obj
 0001:000daf40       ?Event_IsDerelictShip@sbShip@@QAEXPAVidEntity@@@Z 100dbf40 f   sbship.obj
 0001:000daf90       ?Event_IsFriendlyShip@sbShip@@QAEXPAVidEntity@@@Z 100dbf90 f   sbship.obj
 0001:000dafe0       ?Event_IsHostileShip@sbShip@@QAEXPAVidEntity@@@Z 100dbfe0 f   sbship.obj
 0001:000db050       ?Event_SetMainGoal@sbShip@@QAEXHPAVidEntity@@@Z 100dc050 f   sbship.obj
 0001:000db0f0       ?Event_AddMiniGoal@sbShip@@QAEXHPAVidEntity@@@Z 100dc0f0 f   sbship.obj
 0001:000db160       ?Event_RemoveMiniGoal@sbShip@@QAEXHPAVidEntity@@@Z 100dc160 f   sbship.obj
 0001:000db200       ?Event_RemoveMiniGoalAction@sbShip@@QAEXH@Z 100dc200 f   sbship.obj
 0001:000db2a0       ?Event_ClearMiniGoals@sbShip@@QAEXXZ 100dc2a0 f   sbship.obj
 0001:000db2c0       ?Event_NextMiniGoal@sbShip@@QAEXXZ 100dc2c0 f   sbship.obj
 0001:000db2f0       ?Event_PreviousMiniGoal@sbShip@@QAEXXZ 100dc2f0 f   sbship.obj
 0001:000db320       ?Event_PrioritizeMiniGoal@sbShip@@QAEXHPAVidEntity@@@Z 100dc320 f   sbship.obj
 0001:000db370       ?Event_ReturnCurrentGoalAction@sbShip@@QAEXXZ 100dc370 f   sbship.obj
 0001:000db3c0       ?Event_ReturnCurrentGoalEntity@sbShip@@QAEXXZ 100dc3c0 f   sbship.obj
 0001:000db410       ?Event_ReturnHostileTargetingMyGoalEntity@sbShip@@QAEXXZ 100dc410 f   sbship.obj
 0001:000db620       ?Event_SetTargetShipInSpace@sbShip@@QAEXPAVidEntity@@@Z 100dc620 f   sbship.obj
 0001:000db670       ?Event_ClearTargetShipInSpace@sbShip@@QAEXXZ 100dc670 f   sbship.obj
 0001:000db690       ?Event_ReturnTargetShipInSpace@sbShip@@QAEXXZ 100dc690 f   sbship.obj
 0001:000db6e0       ?Event_GetATargetShipInSpace@sbShip@@QAEXXZ 100dc6e0 f   sbship.obj
 0001:000dbc60       ?Event_ReturnBestFriendlyToProtect@sbShip@@QAEXXZ 100dcc60 f   sbship.obj
 0001:000dbdb0       ?Event_WeAreAProtector@sbShip@@QAEXXZ 100dcdb0 f   sbship.obj
 0001:000dbdd0       ?Event_ShipAIAggressiveness@sbShip@@QAEXXZ 100dcdd0 f   sbship.obj
 0001:000dbde0       ?Event_CrewAllAboard@sbShip@@QAEXXZ 100dcde0 f   sbship.obj
 0001:000dbe30       ?Event_CrewIsAboard@sbShip@@QAEXPAVidEntity@@@Z 100dce30 f   sbship.obj
 0001:000dbea0       ?Event_SpareCrewIsNotOnTransporterPad@sbShip@@QAEXXZ 100dcea0 f   sbship.obj
 0001:000dc0c0       ?Event_OrderSpareCrewToMoveToTransporterPad@sbShip@@QAEXXZ 100dd0c0 f   sbship.obj
 0001:000dc280       ?Event_OrderSpareCrewToReturnToBattlestations@sbShip@@QAEXXZ 100dd280 f   sbship.obj
 0001:000dc4f0       ?Event_InitiateShipTransporter@sbShip@@QAEXXZ 100dd4f0 f   sbship.obj
 0001:000dc500       ?Event_ShipIsSuitableForBoarding@sbShip@@QAEXPAVidEntity@@@Z 100dd500 f   sbship.obj
 0001:000dc5f0       ?Event_ShipShieldsAreLowEnoughForBoarding@sbShip@@QAEXPAVidEntity@@@Z 100dd5f0 f   sbship.obj
 0001:000dc670       ?Event_IsCrewRetreivableFrom@sbShip@@QAEXPAVidEntity@@@Z 100dd670 f   sbship.obj
 0001:000dc6d0       ?Event_ShipWithOurCrewAboardIt@sbShip@@QAEXXZ 100dd6d0 f   sbship.obj
 0001:000dc730       ?Event_CrewOnBoardShipIsNotOnTransporterPad@sbShip@@QAEXPAVidEntity@@@Z 100dd730 f   sbship.obj
 0001:000dc870       ?Event_OrderCrewOnBoardShipToMoveToTransporterPad@sbShip@@QAEXPAVidEntity@@@Z 100dd870 f   sbship.obj
 0001:000dc910       ?Event_InitiateShipRetrievalTransporter@sbShip@@QAEXXZ 100dd910 f   sbship.obj
 0001:000dc920       ?Event_ActivateAutoModeForCrewAboardShip@sbShip@@QAEXPAVidEntity@@@Z 100dd920 f   sbship.obj
 0001:000dcb50       ?Event_DeactivateAutoModeForCrewAboardShip@sbShip@@QAEXPAVidEntity@@@Z 100ddb50 f   sbship.obj
 0001:000dcbd0       ?Event_PrioritizeWeaponsAndTorpedosModulesInMyAutoPowerQueue@sbShip@@QAEXXZ 100ddbd0 f   sbship.obj
 0001:000dccc0       ?Event_PrioritizeEnginesInMyAutoPowerQueue@sbShip@@QAEXXZ 100ddcc0 f   sbship.obj
 0001:000dcd80       ?Event_PrioritizeEnginesShieldsOxygenWeaponsAndTorpedosModulesInMyAutoPowerQueue@sbShip@@QAEXXZ 100ddd80 f   sbship.obj
 0001:000dced0       ?Event_TurnAutoFireOn@sbShip@@QAEXXZ 100dded0 f   sbship.obj
 0001:000dcee0       ?Event_CeaseFire@sbShip@@QAEXXZ 100ddee0 f   sbship.obj
 0001:000dcef0       ?Event_CanAttemptWarp@sbShip@@QAEXXZ 100ddef0 f   sbship.obj
 0001:000dcf40       ?Event_AttemptWarpTowardsEntityAvoidingHostilesIfPossible@sbShip@@QAEXPAVidEntity@@@Z 100ddf40 f   sbship.obj
 0001:000dd2a0       ?Event_AttemptWarpAwayFromEntityAvoidingHostilesIfPossible@sbShip@@QAEXPAVidEntity@@@Z 100de2a0 f   sbship.obj
 0001:000dd6e0       ?Event_ShouldHailThePlayerShip@sbShip@@QAEXXZ 100de6e0 f   sbship.obj
 0001:000ddaa0       ?Event_ReturnWaitToHailOrderNum@sbShip@@QAEXXZ 100deaa0 f   sbship.obj
 0001:000ddae0       ?Event_PlayerIsInStarGridStoryWindowOrHailOrItIsNotOurTurnToHail@sbShip@@QAEXXZ 100deae0 f   sbship.obj
 0001:000ddbd0       ?Event_AttemptToHailThePlayerShip@sbShip@@QAEXXZ 100debd0 f   sbship.obj
 0001:000ddbe0       ?Event_InNoActionHailMode@sbShip@@QAEXXZ 100debe0 f   sbship.obj
 0001:000ddc60       ?Event_PutAllShipsAtTheSameSGPosIntoNoActionHailMode@sbShip@@QAEXXZ 100dec60 f   sbship.obj
 0001:000ddd70       ?Event_ExitAllShipsAtTheSameSGPosFromNoActionHailMode@sbShip@@QAEXXZ 100ded70 f   sbship.obj
 0001:000ddeb0       ?Event_HasFledFromShip@sbShip@@QAEXPAVidEntity@@@Z 100deeb0 f   sbship.obj
 0001:000ddf40       ?Event_HasEscapedFromUs@sbShip@@QAEXPAVidEntity@@@Z 100def40 f   sbship.obj
 0001:000de000       ?Event_GoToRedAlert@sbShip@@QAEXXZ 100df000 f   sbship.obj
 0001:000de020       ?Event_CancelRedAlert@sbShip@@QAEXXZ 100df020 f   sbship.obj
 0001:000de040       ?Event_RaiseShields@sbShip@@QAEXXZ 100df040 f   sbship.obj
 0001:000de050       ?Event_LowerShields@sbShip@@QAEXXZ 100df050 f   sbship.obj
 0001:000de050       ?LowerShields@sbShip@@QAEXXZ 100df050 f   sbship.obj
 0001:000de1a0       ?Event_BattleStations@sbShip@@QAEXXZ 100df1a0 f   sbship.obj
 0001:000de1a0       ?Event_SendCrewToStations@sbShip@@QAEXXZ 100df1a0 f   sbship.obj
 0001:000de1c0       ?Event_ShouldAlwaysMoveToPrioritySpaceEntityToTarget@sbShip@@QAEXXZ 100df1c0 f   sbship.obj
 0001:000de200       ?Event_ReturnPrioritySpaceEntityToTarget@sbShip@@QAEXXZ 100df200 f   sbship.obj
 0001:000de250       ?Event_ShouldAlwaysMoveToSpaceEntityToProtect@sbShip@@QAEXXZ 100df250 f   sbship.obj
 0001:000de290       ?Event_ShouldAlwaysMoveToPrioritySpaceEntityToProtect@sbShip@@QAEXXZ 100df290 f   sbship.obj
 0001:000de2d0       ?Event_ReturnPrioritySpaceEntityToProtect@sbShip@@QAEXXZ 100df2d0 f   sbship.obj
 0001:000de320       ?Event_OptimizeModuleQueuesForIdleness@sbShip@@QAEXXZ 100df320 f   sbship.obj
 0001:000de460       ?Event_OptimizeModuleQueuesForFleeing@sbShip@@QAEXXZ 100df460 f   sbship.obj
 0001:000de680       ?Event_OptimizeModuleQueuesForDefending@sbShip@@QAEXXZ 100df680 f   sbship.obj
 0001:000de8a0       ?Event_OptimizeModuleQueuesForAttacking@sbShip@@QAEXXZ 100df8a0 f   sbship.obj
 0001:000deac0       ?Event_OptimizeModuleQueuesForSeekingAndDestroying@sbShip@@QAEXXZ 100dfac0 f   sbship.obj
 0001:000dece0       ?Event_OptimizeModuleQueuesForMoving@sbShip@@QAEXXZ 100dfce0 f   sbship.obj
 0001:000ded70       ?Event_OptimizeModuleQueuesForBoarding@sbShip@@QAEXXZ 100dfd70 f   sbship.obj
 0001:000ded70       ?Event_OptimizeModuleQueuesForRetrievingCrew@sbShip@@QAEXXZ 100dfd70 f   sbship.obj
 0001:000dee00       ?Event_ReturnExtraShipAIWaitTimeForLowSensorsModuleEfficiency@sbShip@@QAEXXZ 100dfe00 f   sbship.obj
 0001:000dee90       ?Event_IsDormantShip@sbShip@@QAEXXZ 100dfe90 f   sbship.obj
 0001:000deeb0       ?Event_ShouldBecomeDormantShip@sbShip@@QAEXXZ 100dfeb0 f   sbship.obj
 0001:000df050       ?Event_BecomeDormantShip@sbShip@@QAEXXZ 100e0050 f   sbship.obj
 0001:000df0b0       ?Event_BecomeNonDormantShip@sbShip@@QAEXXZ 100e00b0 f   sbship.obj
 0001:000df270       ?Event_ActivateShipAutoPower@sbShip@@QAEXXZ 100e0270 f   sbship.obj
 0001:000df2e0       ?Event_AttemptWarpTowardsShipPlayerIsOnBoard@sbShip@@QAEXXZ 100e02e0 f   sbship.obj
 0001:000df6b0       ?Event_DetermineDefensiveActionsForSpareCrewOnBoard@sbShip@@QAEXXZ 100e06b0 f   sbship.obj
 0001:000df9e0       ?Event_AllModulesAreFullyRepaired@sbShip@@QAEXXZ 100e09e0 f   sbship.obj
 0001:000dfa40       ?Event_ActivateAutoModeForAllCrewAboardShip@sbShip@@QAEXXZ 100e0a40 f   sbship.obj
 0001:000dfb60       ?Event_DeactivateAutoModeForAllCrewAboardShip@sbShip@@QAEXXZ 100e0b60 f   sbship.obj
 0001:000dfcf0       ?Event_DoPhenomenonActions@sbShip@@QAEXXZ 100e0cf0 f   sbship.obj
 0001:000e1780       ?Event_ShipShouldFlee@sbShip@@QAEXXZ 100e2780 f   sbship.obj
 0001:000e18d0       ??$_Allocate_at_least_helper@V?$allocator@D@std@@@std@@YAPADAAV?$allocator@D@0@AAI@Z 100e28d0 f i sbship.obj
 0001:000e1920       ??$_Allocate_at_least_helper@V?$allocator@H@std@@@std@@YAPAHAAV?$allocator@H@0@AAI@Z 100e2920 f i sbship.obj
 0001:000e1920       ??$_Allocate_at_least_helper@V?$allocator@PAVidAI@@@std@@@std@@YAPAPAVidAI@@AAV?$allocator@PAVidAI@@@0@AAI@Z 100e2920 f i sbship.obj
 0001:000e1920       ??$_Allocate_at_least_helper@V?$allocator@PAVsbShip@@@std@@@std@@YAPAPAVsbShip@@AAV?$allocator@PAVsbShip@@@0@AAI@Z 100e2920 f i sbship.obj
 0001:000e1980       ??$_Allocate_at_least_helper@V?$allocator@Uai_ship_goal@@@std@@@std@@YAPAUai_ship_goal@@AAV?$allocator@Uai_ship_goal@@@0@AAI@Z 100e2980 f i sbship.obj
 0001:000e19e0       ??$_Allocate_at_least_helper@V?$allocator@VidDict@@@std@@@std@@YAPAVidDict@@AAV?$allocator@VidDict@@@0@AAI@Z 100e29e0 f i sbship.obj
 0001:000e1a40       ??$_Allocate_for_capacity@$0A@@?$basic_string@DU?$char_traits@D@std@@V?$allocator@D@2@@std@@CAPADAAV?$allocator@D@1@AAI@Z 100e2a40 f i sbship.obj
 0001:000e1aa0       ??$_Assign_counted_range@PAH@?$vector@HV?$allocator@H@std@@@std@@AAEXPAHI@Z 100e2aa0 f i sbship.obj
 0001:000e1c10       ??$_Construct@$00PBD@?$basic_string@DU?$char_traits@D@std@@V?$allocator@D@2@@std@@AAEXQBDI@Z 100e2c10 f i sbship.obj
 0001:000e1ca0       ??$_Destroy_range@V?$allocator@VidDict@@@std@@@std@@YAXPAVidDict@@QAV1@AAV?$allocator@VidDict@@@0@@Z 100e2ca0 f i sbship.obj
 0001:000e1d40       ??$_Emplace_reallocate@ABH@?$vector@HV?$allocator@H@std@@@std@@AAEPAHQAHABH@Z 100e2d40 f i sbship.obj
 0001:000e1d40       ??$_Emplace_reallocate@ABQAVidAI@@@?$vector@PAVidAI@@V?$allocator@PAVidAI@@@std@@@std@@AAEPAPAVidAI@@QAPAV2@ABQAV2@@Z 100e2d40 f i sbship.obj
 0001:000e1d40       ??$_Emplace_reallocate@H@?$vector@HV?$allocator@H@std@@@std@@AAEPAHQAH$$QAH@Z 100e2d40 f i sbship.obj
 0001:000e1d40       ??$_Emplace_reallocate@PAVidAI@@@?$vector@PAVidAI@@V?$allocator@PAVidAI@@@std@@@std@@AAEPAPAVidAI@@QAPAV2@$$QAPAV2@@Z 100e2d40 f i sbship.obj
 0001:000e1d40       ??$_Emplace_reallocate@PAVsbShip@@@?$vector@PAVsbShip@@V?$allocator@PAVsbShip@@@std@@@std@@AAEPAPAVsbShip@@QAPAV2@$$QAPAV2@@Z 100e2d40 f i sbship.obj
 0001:000e1e20       ??$_Emplace_reallocate@ABQAVidPortalSky@@@?$vector@PAVidPortalSky@@V?$allocator@PAVidPortalSky@@@std@@@std@@AAEPAPAVidPortalSky@@QAPAV2@ABQAV2@@Z 100e2e20 f i Game_local.obj
 0001:000e1e20       ??$_Emplace_reallocate@ABQAVsbModule@@@?$vector@PAVsbModule@@V?$allocator@PAVsbModule@@@std@@@std@@AAEPAPAVsbModule@@QAPAV2@ABQAV2@@Z 100e2e20 f i sbship.obj
 0001:000e1e20       ??$_Emplace_reallocate@ABQAVsbShip@@@?$vector@PAVsbShip@@V?$allocator@PAVsbShip@@@std@@@std@@AAEPAPAVsbShip@@QAPAV2@ABQAV2@@Z 100e2e20 f i Game_local.obj
 0001:000e1e20       ??$_Emplace_reallocate@PAVidProjectile@@@?$vector@PAVidProjectile@@V?$allocator@PAVidProjectile@@@std@@@std@@AAEPAPAVidProjectile@@QAPAV2@$$QAPAV2@@Z 100e2e20 f i Projectile.obj
 0001:000e1f80       ??$_Emplace_reallocate@ABVidDict@@@?$vector@VidDict@@V?$allocator@VidDict@@@std@@@std@@AAEPAVidDict@@QAV2@ABV2@@Z 100e2f80 f i sbship.obj
 0001:000e2120       ??$_Emplace_reallocate@Uai_ship_goal@@@?$vector@Uai_ship_goal@@V?$allocator@Uai_ship_goal@@@std@@@std@@AAEPAUai_ship_goal@@QAU2@$$QAU2@@Z 100e3120 f i sbship.obj
 0001:000e2210       ??$_Emplace_reallocate@VidVec2@@@?$vector@VidVec2@@V?$allocator@VidVec2@@@std@@@std@@AAEPAVidVec2@@QAV2@$$QAV2@@Z 100e3210 f i sbship.obj
 0001:000e2370       ??$_Resize_reallocate@U_Value_init_tag@std@@@?$vector@HV?$allocator@H@std@@@std@@AAEXIABU_Value_init_tag@1@@Z 100e3370 f i sbship.obj
 0001:000e2370       ??$_Resize_reallocate@U_Value_init_tag@std@@@?$vector@PAVidAI@@V?$allocator@PAVidAI@@@std@@@std@@AAEXIABU_Value_init_tag@1@@Z 100e3370 f i sbship.obj
 0001:000e2370       ??$_Resize_reallocate@U_Value_init_tag@std@@@?$vector@PAVsbShip@@V?$allocator@PAVsbShip@@@std@@@std@@AAEXIABU_Value_init_tag@1@@Z 100e3370 f i sbship.obj
 0001:000e2410       ??$_Resize_reallocate@U_Value_init_tag@std@@@?$vector@Uai_ship_goal@@V?$allocator@Uai_ship_goal@@@std@@@std@@AAEXIABU_Value_init_tag@1@@Z 100e3410 f i sbship.obj
 0001:000e24d0       ??$_Resize_reallocate@U_Value_init_tag@std@@@?$vector@VidDict@@V?$allocator@VidDict@@@std@@@std@@AAEXIABU_Value_init_tag@1@@Z 100e34d0 f i sbship.obj
 0001:000e25f0       ??$_Uninitialized_copy@PAVidDict@@PAV1@V?$allocator@VidDict@@@std@@@std@@YAPAVidDict@@PAV1@00AAV?$allocator@VidDict@@@0@@Z 100e35f0 f i sbship.obj
 0001:000e25f0       ??$_Uninitialized_move@PAVidDict@@V?$allocator@VidDict@@@std@@@std@@YAPAVidDict@@QAV1@0PAV1@AAV?$allocator@VidDict@@@0@@Z 100e35f0 f i sbship.obj
 0001:000e26b0       ??$_Uninitialized_value_construct_n@V?$allocator@Uai_ship_goal@@@std@@@std@@YAPAUai_ship_goal@@PAU1@IAAV?$allocator@Uai_ship_goal@@@0@@Z 100e36b0 f i sbship.obj
 0001:000e26e0       ??$_Uninitialized_value_construct_n@V?$allocator@VidDict@@@std@@@std@@YAPAVidDict@@PAV1@IAAV?$allocator@VidDict@@@0@@Z 100e36e0 f i sbship.obj
 0001:000e2750       ??$getline@DU?$char_traits@D@std@@V?$allocator@D@2@@std@@YAAAV?$basic_istream@DU?$char_traits@D@std@@@0@$$QAV10@AAV?$basic_string@DU?$char_traits@D@std@@V?$allocator@D@2@@0@D@Z 100e3750 f i sbship.obj
 0001:000e2a50       ??$use_facet@V?$ctype@D@std@@@std@@YAABV?$ctype@D@0@ABVlocale@0@@Z 100e3a50 f i sbship.obj
 0001:000e2b70       ??0?$basic_ios@DU?$char_traits@D@std@@@std@@IAE@XZ 100e3b70 f i sbship.obj
 0001:000e2be0       ??0?$basic_stringbuf@DU?$char_traits@D@std@@V?$allocator@D@2@@std@@QAE@ABV?$basic_string@DU?$char_traits@D@std@@V?$allocator@D@2@@1@H@Z 100e3be0 f i sbship.obj
 0001:000e2db0       ??0?$fpos@U_Mbstatet@@@std@@QAE@_J@Z 100e3db0 f i sbship.obj
 0001:000e2de0       ??0_System_error@std@@IAE@Verror_code@1@ABV?$basic_string@DU?$char_traits@D@std@@V?$allocator@D@2@@1@@Z 100e3de0 f i sbship.obj
 0001:000e2fd0       ??0_System_error@std@@QAE@ABV01@@Z 100e3fd0 f i sbship.obj
 0001:000e3010       ??0bad_alloc@std@@QAE@ABV01@@Z 100e4010 f i sbship.obj
 0001:000e3040       ??0bad_array_new_length@std@@QAE@ABV01@@Z 100e4040 f i sbship.obj
 0001:000e3070       ??0bad_array_new_length@std@@QAE@XZ 100e4070 f i sbship.obj
 0001:000e3090       ??0bad_cast@std@@QAE@ABV01@@Z 100e4090 f i sbship.obj
 0001:000e30c0       ??0bad_cast@std@@QAE@XZ    100e40c0 f i sbship.obj
 0001:000e30e0       ??0exception@std@@QAE@ABV01@@Z 100e40e0 f i sbship.obj
 0001:000e3110       ??0failure@ios_base@std@@QAE@ABV012@@Z 100e4110 f i sbship.obj
 0001:000e3160       ??0failure@ios_base@std@@QAE@PBDABVerror_code@2@@Z 100e4160 f i sbship.obj
 0001:000e3230       ??0idStr@@QAE@H@Z          100e4230 f i sbship.obj
 0001:000e32a0       ??0runtime_error@std@@QAE@ABV01@@Z 100e42a0 f i sbship.obj
 0001:000e32d0       ??0sbShip@@QAE@XZ          100e42d0 f   sbship.obj
 0001:000e3e50       ??0system_error@std@@QAE@ABV01@@Z 100e4e50 f i sbship.obj
 0001:000e3ea0       ??1?$_Uninitialized_backout_al@V?$allocator@VidDict@@@std@@@std@@QAE@XZ 100e4ea0 f i sbship.obj
 0001:000e3ec0       ??1?$_Yarn@D@std@@QAE@XZ   100e4ec0 f i sbship.obj
 0001:000e3ec0       ??1?$_Yarn@_W@std@@QAE@XZ  100e4ec0 f i sbship.obj
 0001:000e3ee0       ??1?$basic_ios@DU?$char_traits@D@std@@@std@@UAE@XZ 100e4ee0 f i sbship.obj
 0001:000e3f30       ??1?$basic_iostream@DU?$char_traits@D@std@@@std@@UAE@XZ 100e4f30 f i sbship.obj
 0001:000e3f90       ??1?$basic_istream@DU?$char_traits@D@std@@@std@@UAE@XZ 100e4f90 f i sbship.obj
 0001:000e3fb0       ??1?$basic_streambuf@DU?$char_traits@D@std@@@std@@UAE@XZ 100e4fb0 f i sbship.obj
 0001:000e3ff0       ??1?$basic_stringbuf@DU?$char_traits@D@std@@V?$allocator@D@2@@std@@UAE@XZ 100e4ff0 f i sbship.obj
 0001:000e4100       ??1?$unique_ptr@V_Facet_base@std@@U?$default_delete@V_Facet_base@std@@@2@@std@@QAE@XZ 100e5100 f i sbship.obj
 0001:000e4110       ??1?$vector@HV?$allocator@H@std@@@std@@QAE@XZ 100e5110 f i sbship.obj
 0001:000e4110       ??1?$vector@PAVidAI@@V?$allocator@PAVidAI@@@std@@@std@@QAE@XZ 100e5110 f i sbship.obj
 0001:000e4110       ??1?$vector@PAVidPortalSky@@V?$allocator@PAVidPortalSky@@@std@@@std@@QAE@XZ 100e5110 f i Game_local.obj
 0001:000e4110       ??1?$vector@PAVidProjectile@@V?$allocator@PAVidProjectile@@@std@@@std@@QAE@XZ 100e5110 f i Actor.obj
 0001:000e4110       ??1?$vector@PAVsbModule@@V?$allocator@PAVsbModule@@@std@@@std@@QAE@XZ 100e5110 f i sbship.obj
 0001:000e4110       ??1?$vector@PAVsbShip@@V?$allocator@PAVsbShip@@@std@@@std@@QAE@XZ 100e5110 f i sbship.obj
 0001:000e4110       ?_Tidy@?$vector@HV?$allocator@H@std@@@std@@AAEXXZ 100e5110 f i sbship.obj
 0001:000e4170       ??1?$vector@Uai_ship_goal@@V?$allocator@Uai_ship_goal@@@std@@@std@@QAE@XZ 100e5170 f i sbship.obj
 0001:000e4170       ??1?$vector@VidVec2@@V?$allocator@VidVec2@@@std@@@std@@QAE@XZ 100e5170 f i sbship.obj
 0001:000e41d0       ??1?$vector@VidDict@@V?$allocator@VidDict@@@std@@@std@@QAE@XZ 100e51d0 f i sbship.obj
 0001:000e4250       ??1_Sentry_base@?$basic_istream@DU?$char_traits@D@std@@@std@@QAE@XZ 100e5250 f i sbship.obj
 0001:000e4250       ??1_Sentry_base@?$basic_ostream@DU?$char_traits@D@std@@@std@@QAE@XZ 100e5250 f i sbship.obj
 0001:000e4290       ??1__non_rtti_object@std@@UAE@XZ 100e5290 f i libvcruntime:rtti.obj
 0001:000e4290       ??1bad_alloc@std@@UAE@XZ   100e5290 f i libcmt:throw_bad_alloc.obj
 0001:000e4290       ??1bad_array_new_length@std@@UAE@XZ 100e5290 f i sbship.obj
 0001:000e4290       ??1bad_cast@std@@UAE@XZ    100e5290 f i sbship.obj
 0001:000e4290       ??1bad_exception@std@@UAE@XZ 100e5290 f i libvcruntime:frame.obj
 0001:000e4290       ??1failure@ios_base@std@@UAE@XZ 100e5290 f i sbship.obj
 0001:000e4290       ??1invalid_argument@std@@UAE@XZ 100e5290 f i libcpmt:xthrow.obj
 0001:000e4290       ??1length_error@std@@UAE@XZ 100e5290 f i libcpmt:xthrow.obj
 0001:000e4290       ??1out_of_range@std@@UAE@XZ 100e5290 f i libcpmt:xthrow.obj
 0001:000e4290       ??1runtime_error@std@@UAE@XZ 100e5290 f i libcpmt:xthrow.obj
 0001:000e42b0       ??1locale@std@@QAE@XZ      100e52b0 f i sbship.obj
 0001:000e42d0       ??1sbShip@@UAE@XZ          100e52d0 f   sbship.obj
 0001:000e4a00       ??1sbSpaceEntity@@UAE@XZ   100e5a00 f i sbship.obj
 0001:000e4a10       ??1sentry@?$basic_istream@DU?$char_traits@D@std@@@std@@QAE@XZ 100e5a10 f i sbship.obj
 0001:000e4a60       ??1sentry@?$basic_ostream@DU?$char_traits@D@std@@@std@@QAE@XZ 100e5a60 f i sbship.obj
 0001:000e4aba       ??_9sbShip@@$BBFE@AE       100e5aba f i sbship.obj
 0001:000e4aba       ??_9sbStationarySpaceEntity@@$BBFE@AE 100e5aba f i sbship.obj
 0001:000e4ac2       ??_9sbShip@@$BBFI@AE       100e5ac2 f i sbship.obj
 0001:000e4aca       ??_9sbShip@@$BBFM@AE       100e5aca f i sbship.obj
 0001:000e4ae0       ??_D?$basic_stringstream@DU?$char_traits@D@std@@V?$allocator@D@2@@std@@QAEXXZ 100e5ae0 f i sbship.obj
 0001:000e4b98       ??_E?$basic_iostream@DU?$char_traits@D@std@@@std@@$4PPPPPPPM@A@AEPAXI@Z 100e5b98 f i sbship.obj
 0001:000e4ba0       ??_E?$basic_istream@DU?$char_traits@D@std@@@std@@$4PPPPPPPM@A@AEPAXI@Z 100e5ba0 f i sbship.obj
 0001:000e4ba8       ??_E?$basic_ostream@DU?$char_traits@D@std@@@std@@$4PPPPPPPM@A@AEPAXI@Z 100e5ba8 f i sbship.obj
 0001:000e4bb0       ??_E?$basic_stringstream@DU?$char_traits@D@std@@V?$allocator@D@2@@std@@$4PPPPPPPM@A@AEPAXI@Z 100e5bb0 f i sbship.obj
 0001:000e4bc0       ??_E?$basic_ios@DU?$char_traits@D@std@@@std@@UAEPAXI@Z 100e5bc0 f i sbship.obj
 0001:000e4bc0       ??_G?$basic_ios@DU?$char_traits@D@std@@@std@@UAEPAXI@Z 100e5bc0 f i sbship.obj
 0001:000e4c20       ??_E?$basic_iostream@DU?$char_traits@D@std@@@std@@UAEPAXI@Z 100e5c20 f i sbship.obj
 0001:000e4c20       ??_G?$basic_iostream@DU?$char_traits@D@std@@@std@@UAEPAXI@Z 100e5c20 f i sbship.obj
 0001:000e4cd0       ??_E?$basic_istream@DU?$char_traits@D@std@@@std@@UAEPAXI@Z 100e5cd0 f i sbship.obj
 0001:000e4cd0       ??_G?$basic_istream@DU?$char_traits@D@std@@@std@@UAEPAXI@Z 100e5cd0 f i sbship.obj
 0001:000e4d50       ??_E?$basic_ostream@DU?$char_traits@D@std@@@std@@UAEPAXI@Z 100e5d50 f i sbship.obj
 0001:000e4d50       ??_G?$basic_ostream@DU?$char_traits@D@std@@@std@@UAEPAXI@Z 100e5d50 f i sbship.obj
 0001:000e4dd0       ??_E?$basic_streambuf@DU?$char_traits@D@std@@@std@@UAEPAXI@Z 100e5dd0 f i sbship.obj
 0001:000e4dd0       ??_G?$basic_streambuf@DU?$char_traits@D@std@@@std@@UAEPAXI@Z 100e5dd0 f i sbship.obj
 0001:000e4e20       ??_E?$basic_stringbuf@DU?$char_traits@D@std@@V?$allocator@D@2@@std@@UAEPAXI@Z 100e5e20 f i sbship.obj
 0001:000e4e20       ??_G?$basic_stringbuf@DU?$char_traits@D@std@@V?$allocator@D@2@@std@@UAEPAXI@Z 100e5e20 f i sbship.obj
 0001:000e4e40       ??_E?$basic_stringstream@DU?$char_traits@D@std@@V?$allocator@D@2@@std@@UAEPAXI@Z 100e5e40 f i sbship.obj
 0001:000e4e40       ??_G?$basic_stringstream@DU?$char_traits@D@std@@V?$allocator@D@2@@std@@UAEPAXI@Z 100e5e40 f i sbship.obj
 0001:000e4e70       ??_E?$ctype@D@std@@MAEPAXI@Z 100e5e70 f i sbship.obj
 0001:000e4e70       ??_G?$ctype@D@std@@MAEPAXI@Z 100e5e70 f i sbship.obj
 0001:000e4ec0       ??_E_Facet_base@std@@UAEPAXI@Z 100e5ec0 f i sbship.obj
 0001:000e4ec0       ??_G_Facet_base@std@@UAEPAXI@Z 100e5ec0 f i sbship.obj
 0001:000e4ef0       ??_E_Iostream_error_category2@std@@UAEPAXI@Z 100e5ef0 f i sbship.obj
 0001:000e4ef0       ??_G_Iostream_error_category2@std@@UAEPAXI@Z 100e5ef0 f i sbship.obj
 0001:000e4f10       ??_E_System_error@std@@UAEPAXI@Z 100e5f10 f i sbship.obj
 0001:000e4f10       ??_Efailure@ios_base@std@@UAEPAXI@Z 100e5f10 f i sbship.obj
 0001:000e4f10       ??_Esystem_error@std@@UAEPAXI@Z 100e5f10 f i sbship.obj
 0001:000e4f10       ??_G_System_error@std@@UAEPAXI@Z 100e5f10 f i sbship.obj
 0001:000e4f10       ??_Gfailure@ios_base@std@@UAEPAXI@Z 100e5f10 f i sbship.obj
 0001:000e4f10       ??_Gsystem_error@std@@UAEPAXI@Z 100e5f10 f i sbship.obj
 0001:000e4f40       ??_Ebad_alloc@std@@UAEPAXI@Z 100e5f40 f i sbship.obj
 0001:000e4f40       ??_Ebad_array_new_length@std@@UAEPAXI@Z 100e5f40 f i sbship.obj
 0001:000e4f40       ??_Ebad_cast@std@@UAEPAXI@Z 100e5f40 f i sbship.obj
 0001:000e4f40       ??_Eexception@std@@UAEPAXI@Z 100e5f40 f i sbship.obj
 0001:000e4f40       ??_Eruntime_error@std@@UAEPAXI@Z 100e5f40 f i sbship.obj
 0001:000e4f40       ??_Gbad_alloc@std@@UAEPAXI@Z 100e5f40 f i sbship.obj
 0001:000e4f40       ??_Gbad_array_new_length@std@@UAEPAXI@Z 100e5f40 f i sbship.obj
 0001:000e4f40       ??_Gbad_cast@std@@UAEPAXI@Z 100e5f40 f i sbship.obj
 0001:000e4f40       ??_Gexception@std@@UAEPAXI@Z 100e5f40 f i sbship.obj
 0001:000e4f40       ??_Gruntime_error@std@@UAEPAXI@Z 100e5f40 f i sbship.obj
 0001:000e4f70       ??_Eios_base@std@@UAEPAXI@Z 100e5f70 f i sbship.obj
 0001:000e4f70       ??_Gios_base@std@@UAEPAXI@Z 100e5f70 f i sbship.obj
 0001:000e4fd0       ??_EidSound@@UAEPAXI@Z     100e5fd0 f i Sound.obj
 0001:000e4fd0       ??_EsbCaptainChair@@UAEPAXI@Z 100e5fd0 f i sbship.obj
 0001:000e4fd0       ??_GidSound@@UAEPAXI@Z     100e5fd0 f i Sound.obj
 0001:000e4fd0       ??_GsbCaptainChair@@UAEPAXI@Z 100e5fd0 f i sbship.obj
 0001:000e5010       ??_EsbEnemyShip@@UAEPAXI@Z 100e6010 f i sbship.obj
 0001:000e5010       ??_EsbFriendlyShip@@UAEPAXI@Z 100e6010 f i sbship.obj
 0001:000e5010       ??_EsbPlayerShip@@UAEPAXI@Z 100e6010 f i sbship.obj
 0001:000e5010       ??_EsbShip@@UAEPAXI@Z      100e6010 f i sbship.obj
 0001:000e5010       ??_GsbEnemyShip@@UAEPAXI@Z 100e6010 f i sbship.obj
 0001:000e5010       ??_GsbFriendlyShip@@UAEPAXI@Z 100e6010 f i sbship.obj
 0001:000e5010       ??_GsbPlayerShip@@UAEPAXI@Z 100e6010 f i sbship.obj
 0001:000e5010       ??_GsbShip@@UAEPAXI@Z      100e6010 f i sbship.obj
 0001:000e5050       ??_EsbPhenomenon@@UAEPAXI@Z 100e6050 f i sbship.obj
 0001:000e5050       ??_EsbPlanetaryBody@@UAEPAXI@Z 100e6050 f i sbship.obj
 0001:000e5050       ??_EsbStationarySpaceEntity@@UAEPAXI@Z 100e6050 f i sbship.obj
 0001:000e5050       ??_GsbPhenomenon@@UAEPAXI@Z 100e6050 f i sbship.obj
 0001:000e5050       ??_GsbPlanetaryBody@@UAEPAXI@Z 100e6050 f i sbship.obj
 0001:000e5050       ??_GsbStationarySpaceEntity@@UAEPAXI@Z 100e6050 f i sbship.obj
 0001:000e5090       ??_EidEntity@@UAEPAXI@Z    100e6090 f i Entity.obj
 0001:000e5090       ??_EidExplodable@@UAEPAXI@Z 100e6090 f i Misc.obj
 0001:000e5090       ??_EidItemRemover@@UAEPAXI@Z 100e6090 f i Item.obj
 0001:000e5090       ??_EidLocationEntity@@UAEPAXI@Z 100e6090 f i Misc.obj
 0001:000e5090       ??_EidLocationSeparatorEntity@@UAEPAXI@Z 100e6090 f i Misc.obj
 0001:000e5090       ??_EidPathCorner@@UAEPAXI@Z 100e6090 f i Misc.obj
 0001:000e5090       ??_EidSpawnableEntity@@UAEPAXI@Z 100e6090 f i Misc.obj
 0001:000e5090       ??_EidSplinePath@@UAEPAXI@Z 100e6090 f i Mover.obj
 0001:000e5090       ??_EidTarget@@UAEPAXI@Z    100e6090 f i Target.obj
 0001:000e5090       ??_EidTarget_CallObjectFunction@@UAEPAXI@Z 100e6090 f i Target.obj
 0001:000e5090       ??_EidTarget_Damage@@UAEPAXI@Z 100e6090 f i Target.obj
 0001:000e5090       ??_EidTarget_DisplayCaptainGui@@UAEPAXI@Z 100e6090 f i Target.obj
 0001:000e5090       ??_EidTarget_DisplayGui@@UAEPAXI@Z 100e6090 f i Target.obj
 0001:000e5090       ??_EidTarget_EnableLevelWeapons@@UAEPAXI@Z 100e6090 f i Target.obj
 0001:000e5090       ??_EidTarget_EnableStamina@@UAEPAXI@Z 100e6090 f i Target.obj
 0001:000e5090       ??_EidTarget_EndLevel@@UAEPAXI@Z 100e6090 f i Target.obj
 0001:000e5090       ??_EidTarget_FadeSoundClass@@UAEPAXI@Z 100e6090 f i Target.obj
 0001:000e5090       ??_EidTarget_Give@@UAEPAXI@Z 100e6090 f i Target.obj
 0001:000e5090       ??_EidTarget_GiveEmail@@UAEPAXI@Z 100e6090 f i Target.obj
 0001:000e5090       ??_EidTarget_GiveSecurity@@UAEPAXI@Z 100e6090 f i Target.obj
 0001:000e5090       ??_EidTarget_LevelTrigger@@UAEPAXI@Z 100e6090 f i Target.obj
 0001:000e5090       ??_EidTarget_LightFadeIn@@UAEPAXI@Z 100e6090 f i Target.obj
 0001:000e5090       ??_EidTarget_LightFadeOut@@UAEPAXI@Z 100e6090 f i Target.obj
 0001:000e5090       ??_EidTarget_LockDoor@@UAEPAXI@Z 100e6090 f i Target.obj
 0001:000e5090       ??_EidTarget_Remove@@UAEPAXI@Z 100e6090 f i Target.obj
 0001:000e5090       ??_EidTarget_RemoveWeapons@@UAEPAXI@Z 100e6090 f i Target.obj
 0001:000e5090       ??_EidTarget_SessionCommand@@UAEPAXI@Z 100e6090 f i Target.obj
 0001:000e5090       ??_EidTarget_SetGlobalShaderTime@@UAEPAXI@Z 100e6090 f i Target.obj
 0001:000e5090       ??_EidTarget_SetKeyVal@@UAEPAXI@Z 100e6090 f i Target.obj
 0001:000e5090       ??_EidTarget_SetModel@@UAEPAXI@Z 100e6090 f i Target.obj
 0001:000e5090       ??_EidTarget_SetPrimaryObjective@@UAEPAXI@Z 100e6090 f i Target.obj
 0001:000e5090       ??_EidTarget_SetShaderParm@@UAEPAXI@Z 100e6090 f i Target.obj
 0001:000e5090       ??_EidTarget_SetShaderTime@@UAEPAXI@Z 100e6090 f i Target.obj
 0001:000e5090       ??_EidTarget_Show@@UAEPAXI@Z 100e6090 f i Target.obj
 0001:000e5090       ??_EidTarget_WaitForButton@@UAEPAXI@Z 100e6090 f i Target.obj
 0001:000e5090       ??_EidVacuumEntity@@UAEPAXI@Z 100e6090 f i Misc.obj
 0001:000e5090       ??_EsbSpaceEntity@@UAEPAXI@Z 100e6090 f i sbship.obj
 0001:000e5090       ??_GidEntity@@UAEPAXI@Z    100e6090 f i Entity.obj
 0001:000e5090       ??_GidExplodable@@UAEPAXI@Z 100e6090 f i Misc.obj
 0001:000e5090       ??_GidItemRemover@@UAEPAXI@Z 100e6090 f i Item.obj
 0001:000e5090       ??_GidLocationEntity@@UAEPAXI@Z 100e6090 f i Misc.obj
 0001:000e5090       ??_GidLocationSeparatorEntity@@UAEPAXI@Z 100e6090 f i Misc.obj
 0001:000e5090       ??_GidPathCorner@@UAEPAXI@Z 100e6090 f i Misc.obj
 0001:000e5090       ??_GidSpawnableEntity@@UAEPAXI@Z 100e6090 f i Misc.obj
 0001:000e5090       ??_GidSplinePath@@UAEPAXI@Z 100e6090 f i Mover.obj
 0001:000e5090       ??_GidTarget@@UAEPAXI@Z    100e6090 f i Target.obj
 0001:000e5090       ??_GidTarget_CallObjectFunction@@UAEPAXI@Z 100e6090 f i Target.obj
 0001:000e5090       ??_GidTarget_Damage@@UAEPAXI@Z 100e6090 f i Target.obj
 0001:000e5090       ??_GidTarget_DisplayCaptainGui@@UAEPAXI@Z 100e6090 f i Target.obj
 0001:000e5090       ??_GidTarget_DisplayGui@@UAEPAXI@Z 100e6090 f i Target.obj
 0001:000e5090       ??_GidTarget_EnableLevelWeapons@@UAEPAXI@Z 100e6090 f i Target.obj
 0001:000e5090       ??_GidTarget_EnableStamina@@UAEPAXI@Z 100e6090 f i Target.obj
 0001:000e5090       ??_GidTarget_EndLevel@@UAEPAXI@Z 100e6090 f i Target.obj
 0001:000e5090       ??_GidTarget_FadeSoundClass@@UAEPAXI@Z 100e6090 f i Target.obj
 0001:000e5090       ??_GidTarget_Give@@UAEPAXI@Z 100e6090 f i Target.obj
 0001:000e5090       ??_GidTarget_GiveEmail@@UAEPAXI@Z 100e6090 f i Target.obj
 0001:000e5090       ??_GidTarget_GiveSecurity@@UAEPAXI@Z 100e6090 f i Target.obj
 0001:000e5090       ??_GidTarget_LevelTrigger@@UAEPAXI@Z 100e6090 f i Target.obj
 0001:000e5090       ??_GidTarget_LightFadeIn@@UAEPAXI@Z 100e6090 f i Target.obj
 0001:000e5090       ??_GidTarget_LightFadeOut@@UAEPAXI@Z 100e6090 f i Target.obj
 0001:000e5090       ??_GidTarget_LockDoor@@UAEPAXI@Z 100e6090 f i Target.obj
 0001:000e5090       ??_GidTarget_Remove@@UAEPAXI@Z 100e6090 f i Target.obj
 0001:000e5090       ??_GidTarget_RemoveWeapons@@UAEPAXI@Z 100e6090 f i Target.obj
 0001:000e5090       ??_GidTarget_SessionCommand@@UAEPAXI@Z 100e6090 f i Target.obj
 0001:000e5090       ??_GidTarget_SetGlobalShaderTime@@UAEPAXI@Z 100e6090 f i Target.obj
 0001:000e5090       ??_GidTarget_SetKeyVal@@UAEPAXI@Z 100e6090 f i Target.obj
 0001:000e5090       ??_GidTarget_SetModel@@UAEPAXI@Z 100e6090 f i Target.obj
 0001:000e5090       ??_GidTarget_SetPrimaryObjective@@UAEPAXI@Z 100e6090 f i Target.obj
 0001:000e5090       ??_GidTarget_SetShaderParm@@UAEPAXI@Z 100e6090 f i Target.obj
 0001:000e5090       ??_GidTarget_SetShaderTime@@UAEPAXI@Z 100e6090 f i Target.obj
 0001:000e5090       ??_GidTarget_Show@@UAEPAXI@Z 100e6090 f i Target.obj
 0001:000e5090       ??_GidTarget_WaitForButton@@UAEPAXI@Z 100e6090 f i Target.obj
 0001:000e5090       ??_GidVacuumEntity@@UAEPAXI@Z 100e6090 f i Misc.obj
 0001:000e5090       ??_GsbSpaceEntity@@UAEPAXI@Z 100e6090 f i sbship.obj
 0001:000e50d0       ??_EidActivator@@UAEPAXI@Z 100e60d0 f i Misc.obj
 0001:000e50d0       ??_EidFuncAASObstacle@@UAEPAXI@Z 100e60d0 f i Misc.obj
 0001:000e50d0       ??_EidFuncAASPortal@@UAEPAXI@Z 100e60d0 f i Misc.obj
 0001:000e50d0       ??_EidFuncRadioChatter@@UAEPAXI@Z 100e60d0 f i Misc.obj
 0001:000e50d0       ??_EidLiquid@@UAEPAXI@Z    100e60d0 f i Misc.obj
 0001:000e50d0       ??_EidPlayerStart@@UAEPAXI@Z 100e60d0 f i Misc.obj
 0001:000e50d0       ??_EidTrigger@@UAEPAXI@Z   100e60d0 f i Trigger.obj
 0001:000e50d0       ??_EidTrigger_Fade@@UAEPAXI@Z 100e60d0 f i Trigger.obj
 0001:000e50d0       ??_EidVacuumSeparatorEntity@@UAEPAXI@Z 100e60d0 f i Misc.obj
 0001:000e50d0       ??_EsbTransporterPad@@UAEPAXI@Z 100e60d0 f i sbship.obj
 0001:000e50d0       ??_GidActivator@@UAEPAXI@Z 100e60d0 f i Misc.obj
 0001:000e50d0       ??_GidFuncAASObstacle@@UAEPAXI@Z 100e60d0 f i Misc.obj
 0001:000e50d0       ??_GidFuncAASPortal@@UAEPAXI@Z 100e60d0 f i Misc.obj
 0001:000e50d0       ??_GidFuncRadioChatter@@UAEPAXI@Z 100e60d0 f i Misc.obj
 0001:000e50d0       ??_GidLiquid@@UAEPAXI@Z    100e60d0 f i Misc.obj
 0001:000e50d0       ??_GidPlayerStart@@UAEPAXI@Z 100e60d0 f i Misc.obj
 0001:000e50d0       ??_GidTrigger@@UAEPAXI@Z   100e60d0 f i Trigger.obj
 0001:000e50d0       ??_GidTrigger_Fade@@UAEPAXI@Z 100e60d0 f i Trigger.obj
 0001:000e50d0       ??_GidVacuumSeparatorEntity@@UAEPAXI@Z 100e60d0 f i Misc.obj
 0001:000e50d0       ??_GsbTransporterPad@@UAEPAXI@Z 100e60d0 f i sbship.obj
 0001:000e5110       ?AddCrewMemberToSelection@sbShip@@UAEXPAVidAI@@@Z 100e6110 f   sbship.obj
 0001:000e51a0       ?ArrivingAtStargridPosition@sbShip@@QAEXHH@Z 100e61a0 f   sbship.obj
 0001:000e5700       ?AttemptWarp@sbShip@@UAE_NHH@Z 100e6700 f   sbship.obj
 0001:000e5d60       ?AutoManageModulePowerlevels@sbShip@@QAEXXZ 100e6d60 f   sbship.obj
 0001:000e5f10       ?BecomeASpacePirateShip@sbShip@@QAEXXZ 100e6f10 f   sbship.obj
 0001:000e6170       ?BecomeDerelict@sbShip@@QAEXXZ 100e7170 f   sbship.obj
 0001:000e6700       ?BecomeNonDerelict@sbShip@@QAEXXZ 100e7700 f   sbship.obj
 0001:000e6750       ?BeginRetrievalTransportSequence@sbShip@@UAEXXZ 100e7750 f   sbship.obj
 0001:000e6db0       ?BeginShipDestructionSequence@sbShip@@QAEXXZ 100e7db0 f   sbship.obj
 0001:000e7fe0       ?BeginTransporterSequence@sbShip@@UAEXXZ 100e8fe0 f   sbship.obj
 0001:000e8760       ?CanBeTakenCommandOfByPlayer@sbShip@@QAE_NXZ 100e9760 f   sbship.obj
 0001:000e87f0       ?CanHireCrew@sbShip@@QAE_NXZ 100e97f0 f   sbship.obj
 0001:000e8820       ?CanHireReserveCrew@sbShip@@QAE_NXZ 100e9820 f   sbship.obj
 0001:000e8850       ?CancelRedAlert@sbShip@@UAEXXZ 100e9850 f   sbship.obj
 0001:000e8880       ?CancelSelfDestructSequence@sbShip@@QAEXXZ 100e9880 f   sbship.obj
 0001:000e8960       ?CancelShipRepairMode@sbShip@@QAEXXZ 100e9960 f   sbship.obj
 0001:000e8970       ?CeaseFiringWeaponsAndTorpedos@sbShip@@UAEXXZ 100e9970 f   sbship.obj
 0001:000e89e0       ?ChangeTeam@sbShip@@QAEXH@Z 100e99e0 f   sbship.obj
 0001:000e8c80       ?CheckForHostileEntitiesAtCurrentStarGridPosition@sbShip@@QAE_NXZ 100e9c80 f   sbship.obj
 0001:000e8d10       ?CheckForHostileEntitiesOnBoard@sbShip@@QAE_NXZ 100e9d10 f   sbship.obj
 0001:000e8db0       ?CheckForModuleActions@sbShip@@UAEXXZ 100e9db0 f   sbship.obj
 0001:000eb780       ?CheckTorpedoLaunchPoint@sbShip@@QAE_NVidVec3@@0@Z 100ec780 f   sbship.obj
 0001:000eb990       ?CheckTorpedosTargetQueue@sbShip@@QAEXXZ 100ec990 f   sbship.obj
 0001:000ebcb0       ?CheckWeaponsOrTorpedoTargetPointForMiss@sbShip@@QAE_NVidVec3@@0@Z 100eccb0 f   sbship.obj
 0001:000ebf00       ?CheckWeaponsTargetQueue@sbShip@@QAEXXZ 100ecf00 f   sbship.obj
 0001:000ec220       ?ClaimSpecifiedSkyPortalEntity@sbShip@@UAEXPAVidPortalSky@@@Z 100ed220 f   sbship.obj
 0001:000ec320       ?ClaimUnnoccupiedPlayerSkyPortalEntity@sbShip@@UAEXXZ 100ed320 f   sbship.obj
 0001:000ec450       ?ClaimUnnoccupiedSkyPortalEntity@sbShip@@UAEXXZ 100ed450 f   sbship.obj
 0001:000ec5b0       ?ClampInt@idMath@@SAHHHH@Z 100ed5b0 f i sbship.obj
 0001:000ec5d0       ?ClearCrewMemberMultiSelection@sbShip@@UAEXXZ 100ed5d0 f   sbship.obj
 0001:000ec620       ?ClearCrewMemberSelection@sbShip@@UAEXXZ 100ed620 f   sbship.obj
 0001:000ec690       ?ClearModuleSelection@sbShip@@UAEXXZ 100ed690 f   sbship.obj
 0001:000ec6b0       ?CreateBeamToEnt@sbShip@@QAEXPAVidEntity@@@Z 100ed6b0 f   sbship.obj
 0001:000ec8f0       ?CreateInstance@sbCaptainChair@@SAPAVidClass@@XZ 100ed8f0 f   sbship.obj
 0001:000eca40       ?CreateInstance@sbEnemyShip@@SAPAVidClass@@XZ 100eda40 f   sbship.obj
 0001:000ecaf0       ?CreateInstance@sbFriendlyShip@@SAPAVidClass@@XZ 100edaf0 f   sbship.obj
 0001:000ecba0       ?CreateInstance@sbPhenomenon@@SAPAVidClass@@XZ 100edba0 f   sbship.obj
 0001:000ecc80       ?CreateInstance@sbPlanetaryBody@@SAPAVidClass@@XZ 100edc80 f   sbship.obj
 0001:000ecd60       ?CreateInstance@sbPlayerShip@@SAPAVidClass@@XZ 100edd60 f   sbship.obj
 0001:000ece10       ?CreateInstance@sbShip@@SAPAVidClass@@XZ 100ede10 f   sbship.obj
 0001:000eceb0       ?CreateInstance@sbSpaceEntity@@SAPAVidClass@@XZ 100edeb0 f   sbship.obj
 0001:000ecf60       ?CreateInstance@sbStationarySpaceEntity@@SAPAVidClass@@XZ 100edf60 f   sbship.obj
 0001:000ed040       ?CreateInstance@sbTransporterPad@@SAPAVidClass@@XZ 100ee040 f   sbship.obj
 0001:000ed0f0       ?CreateProjectile@sbShip@@QAEPAVidProjectile@@ABVidVec3@@0@Z 100ee0f0 f   sbship.obj
 0001:000ed270       ?DealShipToShipDamageWithTorpedos@sbShip@@UAEXXZ 100ee270 f   sbship.obj
 0001:000ee300       ?DealShipToShipDamageWithWeapons@sbShip@@UAEXXZ 100ef300 f   sbship.obj
 0001:000ef070       ?DecreaseAutomanageTargetModulePower@sbShip@@UAEXPAVsbModule@@@Z 100f0070 f   sbship.obj
 0001:000ef0a0       ?DecreaseModulePower@sbShip@@UAEXPAVsbModule@@@Z 100f00a0 f   sbship.obj
 0001:000ef0d0       ?DespawnShipInteriorEntities@sbShip@@UAEXXZ 100f00d0 f   sbship.obj
 0001:000f0b00       ?DimRandomShipLightsOff@sbShip@@UAEXXZ 100f1b00 f   sbship.obj
 0001:000f0dd0       ?DimShipLightsOff@sbShip@@UAEXXZ 100f1dd0 f   sbship.obj
 0001:000f1050       ?DoStuffAfterAllMapEntitiesHaveSpawned@sbShip@@UAEXXZ 100f2050 f   sbship.obj
 0001:000f2430       ?DoStuffAfterPlayerHasSpawned@sbShip@@UAEXXZ 100f3430 f   sbship.obj
 0001:000f2a80       ?EndNeutralityWithShip@sbShip@@QAEXPAV1@@Z 100f3a80 f   sbship.obj
 0001:000f2ab0       ?EndNeutralityWithTeam@sbShip@@QAEXH@Z 100f3ab0 f   sbship.obj
 0001:000f2bd0       ?EngageWarp@sbShip@@UAEXHH@Z 100f3bd0 f   sbship.obj
 0001:000f3c10       ?EntityEncroaching@sbShip@@UAEXPAVidEntity@@@Z 100f4c10 f   sbship.obj
 0001:000f3c30       ?EvaluateCurrentOxygenLevelAndOxygenActions@sbShip@@UAEXXZ 100f4c30 f   sbship.obj
 0001:000f3f00       ?EvaluateSelfDestructSequenceTimer@sbShip@@QAEXXZ 100f4f00 f   sbship.obj
 0001:000f40b0       ?Find@?$idList@VidStr@@@@QBEPAVidStr@@ABV2@@Z 100f50b0 f i sbship.obj
 0001:000f4100       ?FlashShieldDamageFX@sbShip@@UAEXH@Z 100f5100 f   sbship.obj
 0001:000f4140       ?GetInt@idDict@@QBEHPBD0@Z 100f5140 f i sbship.obj
 0001:000f4170       ?GetType@sbCaptainChair@@UBEPAVidTypeInfo@@XZ 100f5170 f   sbship.obj
 0001:000f4180       ?GetType@sbEnemyShip@@UBEPAVidTypeInfo@@XZ 100f5180 f   sbship.obj
 0001:000f4190       ?GetType@sbFriendlyShip@@UBEPAVidTypeInfo@@XZ 100f5190 f   sbship.obj
 0001:000f41a0       ?GetType@sbPhenomenon@@UBEPAVidTypeInfo@@XZ 100f51a0 f   sbship.obj
 0001:000f41b0       ?GetType@sbPlanetaryBody@@UBEPAVidTypeInfo@@XZ 100f51b0 f   sbship.obj
 0001:000f41c0       ?GetType@sbPlayerShip@@UBEPAVidTypeInfo@@XZ 100f51c0 f   sbship.obj
 0001:000f41d0       ?GetType@sbShip@@UBEPAVidTypeInfo@@XZ 100f51d0 f   sbship.obj
 0001:000f41e0       ?GetType@sbSpaceEntity@@UBEPAVidTypeInfo@@XZ 100f51e0 f   sbship.obj
 0001:000f41f0       ?GetType@sbStationarySpaceEntity@@UBEPAVidTypeInfo@@XZ 100f51f0 f   sbship.obj
 0001:000f4200       ?GetType@sbTransporterPad@@UBEPAVidTypeInfo@@XZ 100f5200 f   sbship.obj
 0001:000f4210       ?GiveCrewMoveCommand@sbShip@@UAEXPAVidEntity@@PAV1@@Z 100f5210 f   sbship.obj
 0001:000f4310       ?GivePlayerAppropriatePDAEmailsAndVideosForStargridPosition@sbShip@@UAEXHH@Z 100f5310 f   sbship.obj
 0001:000f5090       ?GiveThisShipCurrency@sbShip@@QAEXH@Z 100f6090 f   sbship.obj
 0001:000f5140       ?GiveThisShipMaterials@sbShip@@QAEXH@Z 100f6140 f   sbship.obj
 0001:000f51f0       ?GoToRedAlert@sbShip@@UAEXXZ 100f61f0 f   sbship.obj
 0001:000f5220       ?HandleEmergencyOxygenSituation@sbShip@@QAEXXZ 100f6220 f   sbship.obj
 0001:000f54c0       ?HandleModuleAndConsoleGUITimeCommandsEvenIfGUIsNotActive@sbShip@@QAEXXZ 100f64c0 f   sbship.obj
 0001:000f56e0       ?HandleSingleGuiCommand@sbCaptainChair@@UAE_NPAVidEntity@@PAVidLexer@@@Z 100f66e0 f   sbship.obj
 0001:000f6800       ?HandleSingleGuiCommand@sbTransporterPad@@UAE_NPAVidEntity@@PAVidLexer@@@Z 100f7800 f   sbship.obj
 0001:000f69f0       ?HandleTransporterEventsOnPlayerGuis@sbShip@@QAEXXZ 100f79f0 f   sbship.obj
 0001:000f6b20       ?HasNeutralityWithAI@sbShip@@QAE_NPAVidAI@@@Z 100f7b20 f   sbship.obj
 0001:000f6b70       ?HasNeutralityWithShip@sbShip@@QAE_NPAV1@@Z 100f7b70 f   sbship.obj
 0001:000f6bc0       ?HasNeutralityWithTeam@sbShip@@QAE_NH@Z 100f7bc0 f   sbship.obj
 0001:000f6c10       ?HireCrew@sbShip@@QAEHPBD@Z 100f7c10 f   sbship.obj
 0001:000f6e10       ?IncreaseAutomanageTargetModulePower@sbShip@@UAEXPAVsbModule@@@Z 100f7e10 f   sbship.obj
 0001:000f6e50       ?IncreaseModulePower@sbShip@@UAEXPAVsbModule@@@Z 100f7e50 f   sbship.obj
 0001:000f6e90       ?InitiateRetrievalTransport@sbShip@@UAEXXZ 100f7e90 f   sbship.obj
 0001:000f7be0       ?InitiateSelfDestructSequence@sbShip@@QAEXXZ 100f8be0 f   sbship.obj
 0001:000f7cc0       ?InitiateShipRepairMode@sbShip@@QAEXXZ 100f8cc0 f   sbship.obj
 0001:000f7e40       ?InitiateTransporter@sbShip@@UAEXXZ 100f8e40 f   sbship.obj
 0001:000f8c80       ?InviteAIToJoinCrew@sbShip@@QAE_NPAVidAI@@_N11H@Z 100f9c80 f   sbship.obj
 0001:000f99a0       ?IsHostileShip@sbShip@@QAE_NPAVidEntity@@@Z 100fa9a0 f   sbship.obj
 0001:000f9a00       ?IsThisAIACrewmember@sbShip@@QAE_NPAVidAI@@@Z 100faa00 f   sbship.obj
 0001:000f9a30       ?LeavingStargridPosition@sbShip@@QAEXHH@Z 100faa30 f   sbship.obj
 0001:000f9e30       ?LowOxygenDamageToAIOnBoard@sbShip@@UAEXM@Z 100fae30 f   sbship.obj
 0001:000f9fc0       ?MaybeSpawnAWreck@sbShip@@QAEXXZ 100fafc0 f   sbship.obj
 0001:000fa410       ?MoveDownModuleInModulesPowerQueue@sbShip@@QAEXH@Z 100fb410 f   sbship.obj
 0001:000fa450       ?MoveDownModuleInTorpedosTargetQueue@sbShip@@QAEXH@Z 100fb450 f   sbship.obj
 0001:000fa490       ?MoveDownModuleInWeaponsTargetQueue@sbShip@@QAEXH@Z 100fb490 f   sbship.obj
 0001:000fa4d0       ?MoveUpModuleInModulesPowerQueue@sbShip@@QAEXH@Z 100fb4d0 f   sbship.obj
 0001:000fa510       ?MoveUpModuleInTorpedosTargetQueue@sbShip@@QAEXH@Z 100fb510 f   sbship.obj
 0001:000fa550       ?MoveUpModuleInWeaponsTargetQueue@sbShip@@QAEXH@Z 100fb550 f   sbship.obj
 0001:000fa590       ?OpenHailWithLocalPlayer@sbShip@@QAEXXZ 100fb590 f   sbship.obj
 0001:000fa830       ?PhenomenonDealShipToShipDamage@sbShip@@QAEXPAV1@HH@Z 100fb830 f   sbship.obj
 0001:000fb5e0       ?PopulateCaptainLaptop@sbCaptainChair@@QAEXXZ 100fc5e0 f   sbship.obj
 0001:000fba30       ?PrintShipAttributes@sbShip@@UAEXXZ 100fca30 f   sbship.obj
 0001:000fdd50       ?RaiseShields@sbShip@@QAEXXZ 100fed50 f   sbship.obj
 0001:000fde80       ?RecalculateAllModuleEfficiencies@sbShip@@UAEXXZ 100fee80 f   sbship.obj
 0001:000fdec0       ?RecieveVolley@sbShip@@UAEXXZ 100feec0 f   sbship.obj
 0001:000fdf20       ?ReduceAllModuleChargesToZero@sbShip@@QAEXXZ 100fef20 f   sbship.obj
 0001:000fe030       ?ReleasePlayerCaptain@sbCaptainChair@@QAEXXZ 100ff030 f   sbship.obj
 0001:000fe250       ?RepairShipWithMaterials@sbShip@@QAEXH@Z 100ff250 f   sbship.obj
 0001:000fe4b0       ?ResetAutomanagePowerReserves@sbShip@@UAEXXZ 100ff4b0 f   sbship.obj
 0001:000fe510       ?RespawnShipInteriorEntities@sbShip@@UAEXXZ 100ff510 f   sbship.obj
 0001:000ff870       ?Restore@sbCaptainChair@@UAEXPAVidRestoreGame@@@Z 10100870 f   sbship.obj
 0001:000ff900       ?Restore@sbShip@@UAEXPAVidRestoreGame@@@Z 10100900 f   sbship.obj
 0001:00100c00       ?Restore@sbTransporterPad@@UAEXPAVidRestoreGame@@@Z 10101c00 f   sbship.obj
 0001:00100c20       ?ReturnOnBoardEntityDiagramPositionX@sbShip@@QAEHPAVidEntity@@@Z 10101c20 f   sbship.obj
 0001:00100c90       ?ReturnOnBoardEntityDiagramPositionY@sbShip@@QAEHPAVidEntity@@@Z 10101c90 f   sbship.obj
 0001:00100d00       ?ReturnOnBoardEntityDiagramPositionZ@sbShip@@QAEHPAVidEntity@@@Z 10101d00 f   sbship.obj
 0001:00100d70       ?ReturnSuitableTorpedoLaunchPoint@sbShip@@QAE?AVidVec3@@XZ 10101d70 f   sbship.obj
 0001:001017d0       ?ReturnSuitableWeaponsOrTorpedoTargetPointForMiss@sbShip@@QAE?AVidVec3@@XZ 101027d0 f   sbship.obj
 0001:00101b80       ?ReturnToReserveExcessPowerFromDamagedModules@sbShip@@UAEXXZ 10102b80 f   sbship.obj
 0001:00101be0       ?Rint@idMath@@SAMM@Z       10102be0 f i sbship.obj
 0001:00101c20       ?Save@sbCaptainChair@@UBEXPAVidSaveGame@@@Z 10102c20 f   sbship.obj
 0001:00101cb0       ?Save@sbShip@@UBEXPAVidSaveGame@@@Z 10102cb0 f   sbship.obj
 0001:00102f90       ?Save@sbTransporterPad@@UBEXPAVidSaveGame@@@Z 10103f90 f   sbship.obj
 0001:00102fb0       ?ScheduleUpdateViewscreenCamera@sbShip@@QAEXH@Z 10103fb0 f   sbship.obj
 0001:00102fd0       ?SendCrewToBattlestations@sbShip@@UAEXXZ 10103fd0 f   sbship.obj
 0001:00103220       ?SetInitialShipAttributes@sbShip@@UAEXXZ 10104220 f   sbship.obj
 0001:00103b80       ?SetSelectedCrewMember@sbShip@@UAEXPAVidAI@@@Z 10104b80 f   sbship.obj
 0001:00103bb0       ?SetSelectedModule@sbShip@@UAEXPAVsbModule@@@Z 10104bb0 f   sbship.obj
 0001:00103bf0       ?SetTargetEntityInSpace@sbShip@@QAEXPAV1@@Z 10104bf0 f   sbship.obj
 0001:00104200       ?SetToNullAllPointersToThisEntity@sbShip@@QAEXXZ 10105200 f   sbship.obj
 0001:001046f0       ?SetupWarpInVisualEffects@sbShip@@QAEXH@Z 101056f0 f   sbship.obj
 0001:00104840       ?ShouldConstructScriptObjectAtSpawn@sbShip@@UBE_NXZ 10105840 f   sbship.obj
 0001:00104880       ?Spawn@sbCaptainChair@@UAEXXZ 10105880 f   sbship.obj
 0001:00104ab0       ?Spawn@sbShip@@UAEXXZ      10105ab0 f   sbship.obj
 0001:00106d20       ?Spawn@sbStationarySpaceEntity@@UAEXXZ 10107d20 f   sbship.obj
 0001:00106dd0       ?SpawnShipInteriorEntityFromAdjustedidDict@sbShip@@QAEPAVidEntity@@ABVidDict@@@Z 10107dd0 f   sbship.obj
 0001:00106df0       ?SplitStringToInts@sbShip@@QAE?AV?$vector@HV?$allocator@H@std@@@std@@ABV?$basic_string@DU?$char_traits@D@std@@V?$allocator@D@2@@3@D@Z 10107df0 f   sbship.obj
 0001:00107090       ?StartNeutralityWithTeam@sbShip@@QAEXH@Z 10108090 f   sbship.obj
 0001:001071d0       ?StopRedAlertSpecialFX@sbShip@@UAEXXZ 101081d0 f   sbship.obj
 0001:00107460       ?SyncUpOurBrokenNeutralityWithThisTeam@sbShip@@QAEXH@Z 10108460 f   sbship.obj
 0001:00107640       ?SyncUpOurNeutralityWithThisTeam@sbShip@@QAEXH@Z 10108640 f   sbship.obj
 0001:001078e0       ?SynchronizeRedAlertSpecialFX@sbShip@@UAEXXZ 101088e0 f   sbship.obj
 0001:00107920       ?Think@sbShip@@UAEXXZ      10108920 f   sbship.obj
 0001:00107b90       ?Think@sbStationarySpaceEntity@@UAEXXZ 10108b90 f   sbship.obj
 0001:00107ba0       ?TriggerShipTransporterPadFX@sbShip@@UAEXXZ 10108ba0 f   sbship.obj
 0001:00107ed0       ?TurnShipLightsOff@sbShip@@UAEXXZ 10108ed0 f   sbship.obj
 0001:00108150       ?TurnShipLightsOn@sbShip@@UAEXXZ 10109150 f   sbship.obj
 0001:00108170       ?UpdateCurrentComputerModuleBuffModifiers@sbShip@@UAEXXZ 10109170 f   sbship.obj
 0001:001082d0       ?UpdateGuisOnCaptainChair@sbShip@@QAEXXZ 101092d0 f   sbship.obj
 0001:00108610       ?UpdateGuisOnConsolesAndModules@sbShip@@UAEXXZ 10109610 f   sbship.obj
 0001:00108d70       ?UpdateGuisOnTransporterPad@sbShip@@QAEXXZ 10109d70 f   sbship.obj
 0001:00108ec0       ?UpdateGuisOnTransporterPadEveryFrame@sbShip@@QAEXXZ 10109ec0 f   sbship.obj
 0001:00109070       ?UpdateModuleCharges@sbShip@@UAEXXZ 1010a070 f   sbship.obj
 0001:00109120       ?UpdatePlayerShipQuickWarpStatus@sbShip@@QAEXXZ 1010a120 f   sbship.obj
 0001:001094d0       ?UpdateShipAttributes@sbShip@@UAEXXZ 1010a4d0 f   sbship.obj
 0001:00109f10       ?UpdateShipDoorHealths@sbShip@@UAEXXZ 1010af10 f   sbship.obj
 0001:0010a120       ?ValidEntity@sbShip@@UAE_NPAVidEntity@@@Z 1010b120 f   sbship.obj
 0001:0010a160       ?VerifyCrewMemberPointers@sbShip@@UAEXXZ 1010b160 f   sbship.obj
 0001:0010a2e0       ?_Change_array@?$vector@HV?$allocator@H@std@@@std@@AAEXQAHII@Z 1010b2e0 f i sbship.obj
 0001:0010a2e0       ?_Change_array@?$vector@PAVidAI@@V?$allocator@PAVidAI@@@std@@@std@@AAEXQAPAVidAI@@II@Z 1010b2e0 f i sbship.obj
 0001:0010a2e0       ?_Change_array@?$vector@PAVsbShip@@V?$allocator@PAVsbShip@@@std@@@std@@AAEXQAPAVsbShip@@II@Z 1010b2e0 f i sbship.obj
 0001:0010a340       ?_Change_array@?$vector@Uai_ship_goal@@V?$allocator@Uai_ship_goal@@@std@@@std@@AAEXQAUai_ship_goal@@II@Z 1010b340 f i sbship.obj
 0001:0010a3a0       ?_Change_array@?$vector@VidDict@@V?$allocator@VidDict@@@std@@@std@@AAEXQAVidDict@@II@Z 1010b3a0 f i sbship.obj
 0001:0010a420       ?_Decref@facet@locale@std@@UAEPAV_Facet_base@3@XZ 1010b420 f i sbship.obj
 0001:0010a440       ?_Getcat@?$ctype@D@std@@SAIPAPBVfacet@locale@2@PBV42@@Z 1010b440 f i sbship.obj
 0001:0010a610       ?_Gnavail@?$basic_streambuf@DU?$char_traits@D@std@@@std@@IBE_JXZ 1010b610 f i sbship.obj
 0001:0010a630       ?_Incref@facet@locale@std@@UAEXXZ 1010b630 f i sbship.obj
 0001:0010a640       ?_Init@?$basic_streambuf@DU?$char_traits@D@std@@@std@@IAEXXZ 1010b640 f i sbship.obj
 0001:0010a6a0       ?_Ipfx@?$basic_istream@DU?$char_traits@D@std@@@std@@QAE_N_N@Z 1010b6a0 f i sbship.obj
 0001:0010a8d0       ?_Osfx@?$basic_ostream@DU?$char_traits@D@std@@@std@@QAEXXZ 1010b8d0 f i sbship.obj
 0001:0010a9a0       ?_Pnavail@?$basic_streambuf@DU?$char_traits@D@std@@@std@@IBE_JXZ 1010b9a0 f i sbship.obj
 0001:0010a9c0       ?_Throw_bad_array_new_length@std@@YAXXZ 1010b9c0 f i sbship.obj
 0001:0010a9e0       ?_Throw_bad_cast@std@@YAXXZ 1010b9e0 f i sbship.obj
 0001:0010aa00       ?_Xlen_string@std@@YAXXZ   1010ba00 f i sbship.obj
 0001:0010aa10       ?_Xlength@?$vector@HV?$allocator@H@std@@@std@@CAXXZ 1010ba10 f i sbship.obj
 0001:0010aa10       ?_Xlength@?$vector@PAVidAI@@V?$allocator@PAVidAI@@@std@@@std@@CAXXZ 1010ba10 f i sbship.obj
 0001:0010aa10       ?_Xlength@?$vector@PAVidPortalSky@@V?$allocator@PAVidPortalSky@@@std@@@std@@CAXXZ 1010ba10 f i Game_local.obj
 0001:0010aa10       ?_Xlength@?$vector@PAVidProjectile@@V?$allocator@PAVidProjectile@@@std@@@std@@CAXXZ 1010ba10 f i Actor.obj
 0001:0010aa10       ?_Xlength@?$vector@PAVsbModule@@V?$allocator@PAVsbModule@@@std@@@std@@CAXXZ 1010ba10 f i sbship.obj
 0001:0010aa10       ?_Xlength@?$vector@PAVsbShip@@V?$allocator@PAVsbShip@@@std@@@std@@CAXXZ 1010ba10 f i sbship.obj
 0001:0010aa10       ?_Xlength@?$vector@Uai_ship_goal@@V?$allocator@Uai_ship_goal@@@std@@@std@@CAXXZ 1010ba10 f i sbship.obj
 0001:0010aa10       ?_Xlength@?$vector@VidDict@@V?$allocator@VidDict@@@std@@@std@@CAXXZ 1010ba10 f i sbship.obj
 0001:0010aa10       ?_Xlength@?$vector@VidStr@@V?$allocator@VidStr@@@std@@@std@@CAXXZ 1010ba10 f i Player.obj
 0001:0010aa10       ?_Xlength@?$vector@VidVec2@@V?$allocator@VidVec2@@@std@@@std@@CAXXZ 1010ba10 f i sbship.obj
 0001:0010aa20       ?append@?$basic_string@DU?$char_traits@D@std@@V?$allocator@D@2@@std@@QAEAAV12@QBDI@Z 1010ba20 f i sbship.obj
 0001:0010ab80       ?clear@ios_base@std@@QAEXH@Z 1010bb80 f i sbship.obj
 0001:0010abf0       ?clear@ios_base@std@@QAEXH_N@Z 1010bbf0 f i sbship.obj
 0001:0010ac70       ?deallocate@?$allocator@D@std@@QAEXQADI@Z 1010bc70 f i sbship.obj
 0001:0010acb0       ?deallocate@?$allocator@VidDict@@@std@@QAEXQAVidDict@@I@Z 1010bcb0 f i sbship.obj
 0001:0010acf0       ?default_error_condition@error_category@std@@UBE?AVerror_condition@2@H@Z 1010bcf0 f i sbship.obj
 0001:0010ad00       ?do_narrow@?$ctype@D@std@@MBEDDD@Z 1010bd00 f i sbship.obj
 0001:0010ad10       ?do_narrow@?$ctype@D@std@@MBEPBDPBD0DPAD@Z 1010bd10 f i sbship.obj
 0001:0010ad30       ?do_tolower@?$ctype@D@std@@MBEDD@Z 1010bd30 f i sbship.obj
 0001:0010ad50       ?do_tolower@?$ctype@D@std@@MBEPBDPADPBD@Z 1010bd50 f i sbship.obj
 0001:0010ad80       ?do_toupper@?$ctype@D@std@@MBEDD@Z 1010bd80 f i sbship.obj
 0001:0010ada0       ?do_toupper@?$ctype@D@std@@MBEPBDPADPBD@Z 1010bda0 f i sbship.obj
 0001:0010add0       ?do_widen@?$ctype@D@std@@MBEDD@Z 1010bdd0 f i sbship.obj
 0001:0010ade0       ?do_widen@?$ctype@D@std@@MBEPBDPBD0PAD@Z 1010bde0 f i sbship.obj
 0001:0010ae00       ?equivalent@error_category@std@@UBE_NABVerror_code@2@H@Z 1010be00 f i sbship.obj
 0001:0010ae30       ?equivalent@error_category@std@@UBE_NHABVerror_condition@2@@Z 1010be30 f i sbship.obj
 0001:0010ae70       ?flush@?$basic_ostream@DU?$char_traits@D@std@@@std@@QAEAAV12@XZ 1010be70 f i sbship.obj
 0001:0010aff0       ?init@?$basic_ios@DU?$char_traits@D@std@@@std@@IAEXPAV?$basic_streambuf@DU?$char_traits@D@std@@@2@_N@Z 1010bff0 f i sbship.obj
 0001:0010b170       ?make_error_code@std@@YA?AVerror_code@1@W4io_errc@1@@Z 1010c170 f i sbship.obj
 0001:0010b190       ?message@_Iostream_error_category2@std@@UBE?AV?$basic_string@DU?$char_traits@D@std@@V?$allocator@D@2@@2@H@Z 1010c190 f i sbship.obj
 0001:0010b250       ?name@_Iostream_error_category2@std@@UBEPBDXZ 1010c250 f i sbship.obj
 0001:0010b260       ?overflow@?$basic_streambuf@DU?$char_traits@D@std@@@std@@MAEHH@Z 1010c260 f i sbship.obj
 0001:0010b260       ?pbackfail@?$basic_streambuf@DU?$char_traits@D@std@@@std@@MAEHH@Z 1010c260 f i sbship.obj
 0001:0010b270       ?overflow@?$basic_stringbuf@DU?$char_traits@D@std@@V?$allocator@D@2@@std@@MAEHH@Z 1010c270 f i sbship.obj
 0001:0010b3c0       ?pbackfail@?$basic_stringbuf@DU?$char_traits@D@std@@V?$allocator@D@2@@std@@MAEHH@Z 1010c3c0 f i sbship.obj
 0001:0010b410       ?push_back@?$vector@PAVidAI@@V?$allocator@PAVidAI@@@std@@@std@@QAEXABQAVidAI@@@Z 1010c410 f i sbship.obj
 0001:0010b440       ?push_back@?$vector@VidDict@@V?$allocator@VidDict@@@std@@@std@@QAEXABVidDict@@@Z 1010c440 f i sbship.obj
 0001:0010b4e0       ?resize@?$vector@HV?$allocator@H@std@@@std@@QAEXI@Z 1010c4e0 f i sbship.obj
 0001:0010b4e0       ?resize@?$vector@PAVidAI@@V?$allocator@PAVidAI@@@std@@@std@@QAEXI@Z 1010c4e0 f i sbship.obj
 0001:0010b550       ?resize@?$vector@VidDict@@V?$allocator@VidDict@@@std@@@std@@QAEXI@Z 1010c550 f i sbship.obj
 0001:0010b5e0       ?seekoff@?$basic_streambuf@DU?$char_traits@D@std@@@std@@MAE?AV?$fpos@U_Mbstatet@@@2@_JHH@Z 1010c5e0 f i sbship.obj
 0001:0010b610       ?seekoff@?$basic_stringbuf@DU?$char_traits@D@std@@V?$allocator@D@2@@std@@MAE?AV?$fpos@U_Mbstatet@@@2@_JHH@Z 1010c610 f i sbship.obj
 0001:0010b800       ?seekpos@?$basic_streambuf@DU?$char_traits@D@std@@@std@@MAE?AV?$fpos@U_Mbstatet@@@2@V32@H@Z 1010c800 f i sbship.obj
 0001:0010b830       ?seekpos@?$basic_stringbuf@DU?$char_traits@D@std@@V?$allocator@D@2@@std@@MAE?AV?$fpos@U_Mbstatet@@@2@V32@H@Z 1010c830 f i sbship.obj
 0001:0010b9a0       ?setbuf@?$basic_streambuf@DU?$char_traits@D@std@@@std@@MAEPAV12@PAD_J@Z 1010c9a0 f i sbship.obj
 0001:0010b9b0       ?setstate@?$basic_ios@DU?$char_traits@D@std@@@std@@QAEXH_N@Z 1010c9b0 f i sbship.obj
 0001:0010b9e0       ?showmanyc@?$basic_streambuf@DU?$char_traits@D@std@@@std@@MAE_JXZ 1010c9e0 f i sbship.obj
 0001:0010b9f0       ?snextc@?$basic_streambuf@DU?$char_traits@D@std@@@std@@QAEHXZ 1010c9f0 f i sbship.obj
 0001:0010ba60       ?uflow@?$basic_streambuf@DU?$char_traits@D@std@@@std@@MAEHXZ 1010ca60 f i sbship.obj
 0001:0010ba90       ?underflow@?$basic_stringbuf@DU?$char_traits@D@std@@V?$allocator@D@2@@std@@MAEHXZ 1010ca90 f i sbship.obj
 0001:0010baf0       ?what@exception@std@@UBEPBDXZ 1010caf0 f i sbship.obj
 0001:0010bb00       ?xsgetn@?$basic_streambuf@DU?$char_traits@D@std@@@std@@MAE_JPAD_J@Z 1010cb00 f i sbship.obj
 0001:0010bbe0       ?xsputn@?$basic_streambuf@DU?$char_traits@D@std@@@std@@MAE_JPBD_J@Z 1010cbe0 f i sbship.obj
 0001:0010bcb0       ??0idCompileError@@QAE@PBD@Z 1010ccb0 f i Script_Compiler.obj
 0001:0010bcd0       ??0idCompiler@@QAE@XZ      1010ccd0 f   Script_Compiler.obj
 0001:0010be00       ??1idTypeDef@@QAE@XZ       1010ce00 f i Script_Compiler.obj
 0001:0010bee0       ??8@YA_NABVidStr@@PBD@Z    1010cee0 f i Script_Compiler.obj
 0001:0010bf00       ?CheckToken@idCompiler@@AAE_NPBD@Z 1010cf00 f   Script_Compiler.obj
 0001:0010bf30       ?CheckType@idCompiler@@AAEPAVidTypeDef@@XZ 1010cf30 f   Script_Compiler.obj
 0001:0010c070       ?Compare@idVec3@@QBE_NABV1@@Z 1010d070 f i Script_Compiler.obj
 0001:0010c0b0       ?CompileFile@idCompiler@@QAEXPBD0_N@Z 1010d0b0 f   Script_Compiler.obj
 0001:0010c3c0       ?Divide@idCompiler@@AAEMMM@Z 1010d3c0 f i Script_Compiler.obj
 0001:0010c3f0       ?EmitFunctionParms@idCompiler@@AAEPAVidVarDef@@HPAV2@HH0@Z 1010d3f0 f   Script_Compiler.obj
 0001:0010c720       ?EmitOpcode@idCompiler@@AAEPAVidVarDef@@HPAV2@0@Z 1010d720 f i Script_Compiler.obj
 0001:0010c740       ?EmitOpcode@idCompiler@@AAEPAVidVarDef@@PBUopcode_s@@PAV2@1@Z 1010d740 f   Script_Compiler.obj
 0001:0010c850       ?EmitPush@idCompiler@@AAE_NPAVidVarDef@@PBVidTypeDef@@@Z 1010d850 f   Script_Compiler.obj
 0001:0010c910       ?Error@idCompiler@@ABAXPBDZZ 1010d910 f   Script_Compiler.obj
 0001:0010c960       ?ExpectToken@idCompiler@@AAEXPBD@Z 1010d960 f   Script_Compiler.obj
 0001:0010c9a0       ?GetExpression@idCompiler@@AAEPAVidVarDef@@H@Z 1010d9a0 f   Script_Compiler.obj
 0001:0010d020       ?GetFilename@idProgram@@QAEPBDH@Z 1010e020 f i Script_Compiler.obj
 0001:0010d040       ?GetFloatValue@idToken@@QAEMXZ 1010e040 f i Script_Compiler.obj
 0001:0010d090       ?GetImmediate@idCompiler@@AAEPAVidVarDef@@PAVidTypeDef@@PBTeval_s@@PBD@Z 1010e090 f   Script_Compiler.obj
 0001:0010d1e0       ?GetReturnType@idEventDef@@QBEDXZ 1010e1e0 f i Script_Compiler.obj
 0001:0010d1f0       ?GetTerm@idCompiler@@AAEPAVidVarDef@@XZ 1010e1f0 f   Script_Compiler.obj
 0001:0010d5c0       ?GetTypeForEventArg@idCompiler@@AAEPAVidTypeDef@@D@Z 1010e5c0 f   Script_Compiler.obj
 0001:0010d6a0       ?LookupDef@idCompiler@@AAEPAVidVarDef@@PBDPBV2@@Z 1010e6a0 f   Script_Compiler.obj
 0001:0010d9a0       ?NextToken@idCompiler@@AAEXXZ 1010e9a0 f   Script_Compiler.obj
 0001:0010de00       ?OptimizeOpcode@idCompiler@@AAEPAVidVarDef@@PBUopcode_s@@PAV2@1@Z 1010ee00 f   Script_Compiler.obj
 0001:0010e440       ?ParseDefs@idCompiler@@AAEXXZ 1010f440 f   Script_Compiler.obj
 0001:0010e660       ?ParseEventCall@idCompiler@@AAEPAVidVarDef@@PAV2@0@Z 1010f660 f   Script_Compiler.obj
 0001:0010e710       ?ParseEventDef@idCompiler@@AAEXPAVidTypeDef@@PBD@Z 1010f710 f   Script_Compiler.obj
 0001:0010ea80       ?ParseForStatement@idCompiler@@AAEXXZ 1010fa80 f   Script_Compiler.obj
 0001:0010ed60       ?ParseFunction@idCompiler@@AAEPAVidTypeDef@@PAV2@PBD@Z 1010fd60 f   Script_Compiler.obj
 0001:0010ef30       ?ParseFunctionCall@idCompiler@@AAEPAVidVarDef@@PAV2@@Z 1010ff30 f   Script_Compiler.obj
 0001:0010f060       ?ParseFunctionDef@idCompiler@@AAEXPAVidTypeDef@@PBD@Z 10110060 f   Script_Compiler.obj
 0001:0010f510       ?ParseImmediate@idCompiler@@AAEPAVidVarDef@@XZ 10110510 f   Script_Compiler.obj
 0001:0010f540       ?ParseName@idCompiler@@AAEXAAVidStr@@@Z 10110540 f   Script_Compiler.obj
 0001:0010f5b0       ?ParseNamespace@idCompiler@@AAEXPAVidVarDef@@@Z 101105b0 f   Script_Compiler.obj
 0001:0010f670       ?ParseObjectCall@idCompiler@@AAEPAVidVarDef@@PAV2@0@Z 10110670 f   Script_Compiler.obj
 0001:0010f6d0       ?ParseObjectDef@idCompiler@@AAEXPBD@Z 101106d0 f   Script_Compiler.obj
 0001:0010fa50       ?ParseReturnStatement@idCompiler@@AAEXXZ 10110a50 f   Script_Compiler.obj
 0001:0010fc20       ?ParseStatement@idCompiler@@AAEXXZ 10110c20 f   Script_Compiler.obj
 0001:001100c0       ?ParseType@idCompiler@@AAEPAVidTypeDef@@XZ 101110c0 f   Script_Compiler.obj
 0001:00110140       ?ParseValue@idCompiler@@AAEPAVidVarDef@@XZ 10111140 f   Script_Compiler.obj
 0001:00110390       ?ParseVariableDef@idCompiler@@AAEXPAVidTypeDef@@PBD@Z 10111390 f   Script_Compiler.obj
 0001:001107b0       ?ParseWhileStatement@idCompiler@@AAEXXZ 101117b0 f   Script_Compiler.obj
 0001:00110940       ?PatchLoop@idCompiler@@AAEXHH@Z 10111940 f   Script_Compiler.obj
 0001:001109e0       ?SizeConstant@idCompiler@@AAEPAVidVarDef@@H@Z 101119e0 f i Script_Compiler.obj
 0001:00110a10       ?TypeDef@idVarDef@@QBEPAVidTypeDef@@XZ 10111a10 f i Script_Compiler.obj
 0001:00110a20       _vsprintf                  10111a20 f i Script_Compiler.obj
 0001:00110a50       ??0idInterpreter@@QAE@XZ   10111a50 f   Script_Interpreter.obj
 0001:00110aa0       ?BeginMultiFrameEvent@idInterpreter@@QAE_NPAVidEntity@@PBVidEventDef@@@Z 10111aa0 f   Script_Interpreter.obj
 0001:00110b00       ?CallEvent@idInterpreter@@AAEXPBVfunction_t@@H@Z 10111b00 f   Script_Interpreter.obj
 0001:00110f50       ?CallSysEvent@idInterpreter@@AAEXPBVfunction_t@@H@Z 10111f50 f   Script_Interpreter.obj
 0001:00111170       ?CurrentFile@idInterpreter@@QBEPBDXZ 10112170 f   Script_Interpreter.obj
 0001:001111a0       ?CurrentLine@idInterpreter@@QBEHXZ 101121a0 f   Script_Interpreter.obj
 0001:001111c0       ?EndMultiFrameEvent@idInterpreter@@QAEXPAVidEntity@@PBVidEventDef@@@Z 101121c0 f   Script_Interpreter.obj
 0001:001111f0       ?EnterFunction@idInterpreter@@QAEXPBVfunction_t@@_N@Z 101121f0 f   Script_Interpreter.obj
 0001:001113b0       ?EnterObjectFunction@idInterpreter@@QAEXPAVidEntity@@PBVfunction_t@@_N@Z 101123b0 f   Script_Interpreter.obj
 0001:00111440       ?Error@idInterpreter@@QBAXPADZZ 10112440 f   Script_Interpreter.obj
 0001:001115e0       ?Execute@idInterpreter@@QAE_NXZ 101125e0 f   Script_Interpreter.obj
 0001:00114830       ?LeaveFunction@idInterpreter@@AAEXPAVidVarDef@@@Z 10115830 f   Script_Interpreter.obj
 0001:00114a20       ?MultiFrameEventInProgress@idInterpreter@@QBE_NXZ 10115a20 f   Script_Interpreter.obj
 0001:00114a30       ?PopParms@idInterpreter@@AAEXH@Z 10115a30 f i Script_Interpreter.obj
 0001:00114a60       ?Reset@idInterpreter@@QAEXXZ 10115a60 f   Script_Interpreter.obj
 0001:00114ad0       ?Restore@idInterpreter@@QAEXPAVidRestoreGame@@@Z 10115ad0 f   Script_Interpreter.obj
 0001:00114ca0       ?Save@idInterpreter@@QBEXPAVidSaveGame@@@Z 10115ca0 f   Script_Interpreter.obj
 0001:00114e30       ?SetThread@idInterpreter@@QAEXPAVidThread@@@Z 10115e30 f   Script_Interpreter.obj
 0001:00114e40       ?ThreadCall@idInterpreter@@QAEXPAV1@PBVfunction_t@@H@Z 10115e40 f   Script_Interpreter.obj
 0001:00114ec0       ?Warning@idInterpreter@@QBAXPADZZ 10115ec0 f   Script_Interpreter.obj
 0001:00114f90       ??0function_t@@QAE@XZ      10115f90 f   Script_Program.obj
 0001:00115010       ??0idProgram@@QAE@XZ       10116010 f   Script_Program.obj
 0001:00115170       ??0idScriptObject@@QAE@XZ  10116170 f   Script_Program.obj
 0001:00115180       ??0idTypeDef@@QAE@W4etype_t@@PAVidVarDef@@PBDHPAV0@@Z 10116180 f   Script_Program.obj
 0001:001152b0       ??1?$idStaticList@Vfunction_t@@$0OAA@@@QAE@XZ 101162b0 f i Script_Program.obj
 0001:001152f0       ??1function_t@@QAE@XZ      101162f0 f i Script_Program.obj
 0001:00115360       ??1idCompiler@@QAE@XZ      10116360 f i Script_Program.obj
 0001:001153b0       ??1idProgram@@QAE@XZ       101163b0 f   Script_Program.obj
 0001:00115510       ??1idScriptObject@@QAE@XZ  10116510 f   Script_Program.obj
 0001:00115560       ??1idVarDef@@QAE@XZ        10116560 f   Script_Program.obj
 0001:001155c0       ??4idTypeDef@@QAEXABV0@@Z  101165c0 f   Script_Program.obj
 0001:00115870       ?AddDefToNameList@idProgram@@QAEXPAVidVarDef@@PBD@Z 10116870 f   Script_Program.obj
 0001:00115a30       ?AddField@idTypeDef@@QAEXPAV1@PBD@Z 10116a30 f   Script_Program.obj
 0001:00115b30       ?AddFunction@idTypeDef@@QAEXPBVfunction_t@@@Z 10116b30 f   Script_Program.obj
 0001:00115c80       ?AddFunctionParm@idTypeDef@@QAEXPAV1@PBD@Z 10116c80 f   Script_Program.obj
 0001:00115d10       ?AddUnique@?$idList@VidStr@@@@QAEHABVidStr@@@Z 10116d10 f i Script_Program.obj
 0001:00115de0       ?AllocDef@idProgram@@QAEPAVidVarDef@@PAVidTypeDef@@PBDPAV2@_N@Z 10116de0 f   Script_Program.obj
 0001:001161f0       ?AllocFunction@idProgram@@QAEAAVfunction_t@@PAVidVarDef@@@Z 101171f0 f   Script_Program.obj
 0001:001162f0       ?AllocStatement@idProgram@@QAEPAUstatement_s@@XZ 101172f0 f   Script_Program.obj
 0001:00116350       ?AllocType@idProgram@@QAEPAVidTypeDef@@AAV2@@Z 10117350 f   Script_Program.obj
 0001:00116440       ?AllocType@idProgram@@QAEPAVidTypeDef@@W4etype_t@@PAVidVarDef@@PBDHPAV2@@Z 10117440 f   Script_Program.obj
 0001:001164c0       ?BeginCompilation@idProgram@@QAEXXZ 101174c0 f   Script_Program.obj
 0001:001165f0       ?CalculateChecksum@idProgram@@QBEHXZ 101175f0 f   Script_Program.obj
 0001:001166c0       ?Clear@function_t@@QAEXXZ  101176c0 f   Script_Program.obj
 0001:00116740       ?ClearObject@idScriptObject@@QAEXXZ 10117740 f   Script_Program.obj
 0001:00116760       ?CompileFile@idProgram@@QAEXPBD@Z 10117760 f   Script_Program.obj
 0001:001167f0       ?CompileStats@idProgram@@AAEXXZ 101177f0 f   Script_Program.obj
 0001:00116a60       ?CompileText@idProgram@@QAE_NPBD0_N@Z 10117a60 f   Script_Program.obj
 0001:00116cf0       ?Disassemble@idProgram@@QBEXXZ 10117cf0 f   Script_Program.obj
 0001:00116e70       ?FieldType@idTypeDef@@QBEPAV1@XZ 10117e70 f   Script_Program.obj
 0001:00116eb0       ?FindFreeResultDef@idProgram@@QAEPAVidVarDef@@PAVidTypeDef@@PBDPAV2@PBV2@3@Z 10117eb0 f   Script_Program.obj
 0001:00116f10       ?FindFunction@idProgram@@QBEPAVfunction_t@@PBD@Z 10117f10 f   Script_Program.obj
 0001:001170d0       ?FindType@idProgram@@QAEPAVidTypeDef@@PBD@Z 101180d0 f   Script_Program.obj
 0001:00117120       ?FinishCompilation@idProgram@@QAEXXZ 10118120 f   Script_Program.obj
 0001:001171a0       ?Free@idScriptObject@@QAEXXZ 101181a0 f   Script_Program.obj
 0001:001171d0       ?FreeData@idProgram@@QAEXXZ 101181d0 f   Script_Program.obj
 0001:001174a0       ?FreeDef@idProgram@@QAEXPAVidVarDef@@PBV2@@Z 101184a0 f   Script_Program.obj
 0001:00117620       ?GetConstructor@idScriptObject@@QBEPBVfunction_t@@XZ 10118620 f   Script_Program.obj
 0001:00117630       ?GetDef@idProgram@@QBEPAVidVarDef@@PBVidTypeDef@@PBDPBV2@@Z 10118630 f   Script_Program.obj
 0001:00117700       ?GetDefList@idProgram@@QBEPAVidVarDef@@PBD@Z 10118700 f   Script_Program.obj
 0001:001177b0       ?GetDestructor@idScriptObject@@QBEPBVfunction_t@@XZ 101187b0 f   Script_Program.obj
 0001:001177c0       ?GetFilenum@idProgram@@QAEHPBD@Z 101187c0 f   Script_Program.obj
 0001:001178b0       ?GetFunction@idScriptObject@@QBEPBVfunction_t@@PBD@Z 101188b0 f   Script_Program.obj
 0001:00117950       ?GetFunction@idTypeDef@@QBEPBVfunction_t@@H@Z 10118950 f   Script_Program.obj
 0001:00117960       ?GetFunctionNumber@idTypeDef@@QBEHPBVfunction_t@@@Z 10118960 f   Script_Program.obj
 0001:00117990       ?GetParmName@idTypeDef@@QBEPBDH@Z 10118990 f   Script_Program.obj
 0001:001179b0       ?GetParmType@idTypeDef@@QBEPAV1@H@Z 101189b0 f   Script_Program.obj
 0001:001179c0       ?GetType@idProgram@@QAEPAVidTypeDef@@AAV2@_N@Z 101189c0 f   Script_Program.obj
 0001:00117b80       ?GetTypeName@idScriptObject@@QBEPBDXZ 10118b80 f   Script_Program.obj
 0001:00117b90       ?GetVariable@idScriptObject@@QBEPAEPBDW4etype_t@@@Z 10118b90 f   Script_Program.obj
 0001:00117d20       ?GlobalName@idVarDef@@QBEPBDXZ 10118d20 f   Script_Program.obj
 0001:00117d50       ?HasObject@idScriptObject@@QBE_NXZ 10118d50 f   Script_Program.obj
 0001:00117d60       ?Inherits@idTypeDef@@QBE_NPBV1@@Z 10118d60 f   Script_Program.obj
 0001:00117d90       ?MatchesType@idTypeDef@@QBE_NABV1@@Z 10118d90 f   Script_Program.obj
 0001:00117df0       ?Max@?$idStaticList@Ustatement_s@@$0CAAAA@@@QBEHXZ 10118df0 f i Script_Program.obj
 0001:00117e00       ?Max@?$idStaticList@Vfunction_t@@$0OAA@@@QBEHXZ 10118e00 f i Script_Program.obj
 0001:00117e10       ?Name@idVarDef@@QBEPBDXZ   10118e10 f   Script_Program.obj
 0001:00117e20       ?NumFunctions@idTypeDef@@QBEHXZ 10118e20 f   Script_Program.obj
 0001:00117e30       ?GetBoundaryType@?$idCurve_Spline@VidVec3@@@@UBE?AW4boundary_t@1@XZ 10118e30 f   Entity.obj
 0001:00117e30       ?NumParameters@idTypeDef@@QBEHXZ 10118e30 f   Script_Program.obj
 0001:00117e40       ?PointerType@idTypeDef@@QBEPAV1@XZ 10118e40 f   Script_Program.obj
 0001:00117e80       ?PrintInfo@idVarDef@@QBEXPAVidFile@@H@Z 10118e80 f   Script_Program.obj
 0001:001180f0       ?Restart@idProgram@@QAEXXZ 101190f0 f   Script_Program.obj
 0001:00118270       ?Restore@idProgram@@QAE_NPAVidRestoreGame@@@Z 10119270 f   Script_Program.obj
 0001:001183a0       ?Restore@idScriptObject@@QAEXPAVidRestoreGame@@@Z 101193a0 f   Script_Program.obj
 0001:00118530       ?ReturnEntity@idProgram@@QAEXPAVidEntity@@@Z 10119530 f   Script_Program.obj
 0001:00118560       ?ReturnType@idTypeDef@@QBEPAV1@XZ 10119560 f   Script_Program.obj
 0001:001185a0       ?Save@idProgram@@QBEXPAVidSaveGame@@@Z 101195a0 f   Script_Program.obj
 0001:00118670       ?Save@idScriptObject@@QBEXPAVidSaveGame@@@Z 10119670 f   Script_Program.obj
 0001:001186d0       ?SetEntity@idProgram@@QAEXPBDPAVidEntity@@@Z 101196d0 f   Script_Program.obj
 0001:001187e0       ?SetFieldType@idTypeDef@@QAEXPAV1@@Z 101197e0 f   Script_Program.obj
 0001:00118820       ?SetName@idTypeDef@@QAEXPBD@Z 10119820 f   Script_Program.obj
 0001:00118830       ?SetObject@idVarDef@@QAEXPAVidScriptObject@@@Z 10119830 f   Script_Program.obj
 0001:00118840       ?SetPointerType@idTypeDef@@QAEXPAV1@@Z 10119840 f   Script_Program.obj
 0001:00118880       ?SetString@idVarDef@@QAEXPBD_N@Z 10119880 f   Script_Program.obj
 0001:001188a0       ?SetType@idScriptObject@@QAE_NPBD@Z 101198a0 f   Script_Program.obj
 0001:00118990       ?SetValue@idVarDef@@QAEXABTeval_s@@_N@Z 10119990 f   Script_Program.obj
 0001:00118aa0       ?Startup@idProgram@@QAEXPBD@Z 10119aa0 f   Script_Program.obj
 0001:00118b50       ?SuperClass@idTypeDef@@QBEPAV1@XZ 10119b50 f   Script_Program.obj
 0001:00118b90       ?Event_Execute@idThread@@AAEXXZ 10119b90 f   Script_Thread.obj
 0001:00118ba0       ?Event_SetThreadName@idThread@@AAEXPBD@Z 10119ba0 f   Script_Thread.obj
 0001:00118ba0       ?SetThreadName@idThread@@QAEXPBD@Z 10119ba0 f   Script_Thread.obj
 0001:00118bb0       ?Event_TerminateThread@idThread@@AAEXH@Z 10119bb0 f   Script_Thread.obj
 0001:00118c10       ?Event_Pause@idThread@@AAEXXZ 10119c10 f   Script_Thread.obj
 0001:00118c30       ?Event_Wait@idThread@@AAEXM@Z 10119c30 f   Script_Thread.obj
 0001:00118c30       ?WaitSec@idThread@@QAEXM@Z 10119c30 f   Script_Thread.obj
 0001:00118c80       ?Event_WaitFrame@idThread@@AAEXXZ 10119c80 f   Script_Thread.obj
 0001:00118c80       ?WaitFrame@idThread@@QAEXXZ 10119c80 f   Script_Thread.obj
 0001:00118cc0       ?Event_WaitFor@idThread@@AAEXPAVidEntity@@@Z 10119cc0 f   Script_Thread.obj
 0001:00118d20       ?Event_WaitForThread@idThread@@AAEXH@Z 10119d20 f   Script_Thread.obj
 0001:00118d90       ?Event_Print@idThread@@AAEXPBD@Z 10119d90 f   Script_Thread.obj
 0001:00118db0       ?Event_PrintLn@idThread@@AAEXPBD@Z 10119db0 f   Script_Thread.obj
 0001:00118dd0       ?Event_Say@idThread@@AAEXPBD@Z 10119dd0 f   Script_Thread.obj
 0001:00118e00       ?Event_Trigger@idThread@@AAEXPAVidEntity@@@Z 10119e00 f   Script_Thread.obj
 0001:00118e50       ?Event_SetCvar@idThread@@ABEXPBD0@Z 10119e50 f   Script_Thread.obj
 0001:00118e70       ?Event_GetCvar@idThread@@ABEXPBD@Z 10119e70 f   Script_Thread.obj
 0001:00118ea0       ?Event_Random@idThread@@ABEXM@Z 10119ea0 f   Script_Thread.obj
 0001:00118ee0       ?Event_RandomInt@idThread@@ABEXH@Z 10119ee0 f   Script_Thread.obj
 0001:00118f20       ?Event_GetTime@idThread@@AAEXXZ 10119f20 f   Script_Thread.obj
 0001:00118f40       ?Event_KillThread@idThread@@AAEXPBD@Z 10119f40 f   Script_Thread.obj
 0001:00118fd0       ?Event_GetEntity@idThread@@AAEXPBD@Z 10119fd0 f   Script_Thread.obj
 0001:00119040       ?Event_Spawn@idThread@@AAEXPBD@Z 1011a040 f   Script_Thread.obj
 0001:00119090       ?Event_CopySpawnArgs@idThread@@AAEXPAVidEntity@@@Z 1011a090 f   Script_Thread.obj
 0001:001190a0       ?Event_SetSpawnArg@idThread@@AAEXPBD0@Z 1011a0a0 f   Script_Thread.obj
 0001:001190b0       ?Event_SpawnString@idThread@@AAEXPBD0@Z 1011a0b0 f   Script_Thread.obj
 0001:001190f0       ?Event_SpawnFloat@idThread@@AAEXPBDM@Z 1011a0f0 f   Script_Thread.obj
 0001:00119140       ?Event_SpawnVector@idThread@@AAEXPBDAAVidVec3@@@Z 1011a140 f   Script_Thread.obj
 0001:001191d0       ?Event_ClearPersistantArgs@idThread@@AAEXXZ 1011a1d0 f   Script_Thread.obj
 0001:001191e0       ?Event_SetPersistantArg@idThread@@AAEXPBD0@Z 1011a1e0 f   Script_Thread.obj
 0001:001191f0       ?Event_GetPersistantString@idThread@@AAEXPBD@Z 1011a1f0 f   Script_Thread.obj
 0001:00119230       ?Event_GetPersistantFloat@idThread@@AAEXPBD@Z 1011a230 f   Script_Thread.obj
 0001:00119260       ?Event_GetPersistantVector@idThread@@AAEXPBD@Z 1011a260 f   Script_Thread.obj
 0001:001192b0       ?Event_AngToForward@idThread@@AAEXAAVidAngles@@@Z 1011a2b0 f   Script_Thread.obj
 0001:001192e0       ?Event_AngToRight@idThread@@AAEXAAVidAngles@@@Z 1011a2e0 f   Script_Thread.obj
 0001:00119330       ?Event_AngToUp@idThread@@AAEXAAVidAngles@@@Z 1011a330 f   Script_Thread.obj
 0001:00119380       ?Event_GetSine@idThread@@AAEXM@Z 1011a380 f   Script_Thread.obj
 0001:001193b0       ?Event_GetCosine@idThread@@AAEXM@Z 1011a3b0 f   Script_Thread.obj
 0001:001193e0       ?Event_GetArcSine@idThread@@AAEXM@Z 1011a3e0 f   Script_Thread.obj
 0001:00119440       ?Event_GetArcCosine@idThread@@AAEXM@Z 1011a440 f   Script_Thread.obj
 0001:00119490       ?Event_GetSquareRoot@idThread@@AAEXM@Z 1011a490 f   Script_Thread.obj
 0001:00119530       ?Event_VecNormalize@idThread@@AAEXAAVidVec3@@@Z 1011a530 f   Script_Thread.obj
 0001:00119590       ?Event_VecLength@idThread@@AAEXAAVidVec3@@@Z 1011a590 f   Script_Thread.obj
 0001:00119650       ?Event_VecDotProduct@idThread@@AAEXAAVidVec3@@0@Z 1011a650 f   Script_Thread.obj
 0001:00119690       ?Event_VecCrossProduct@idThread@@AAEXAAVidVec3@@0@Z 1011a690 f   Script_Thread.obj
 0001:00119700       ?Event_VecToAngles@idThread@@AAEXAAVidVec3@@@Z 1011a700 f   Script_Thread.obj
 0001:00119740       ?Event_VecToOrthoBasisAngles@idThread@@AAEXAAVidVec3@@@Z 1011a740 f   Script_Thread.obj
 0001:00119800       ?Event_RotateVector@idThread@@AAEXAAVidVec3@@0@Z 1011a800 f   Script_Thread.obj
 0001:001198d0       ?Event_OnSignal@idThread@@AAEXHPAVidEntity@@PBD@Z 1011a8d0 f   Script_Thread.obj
 0001:00119950       ?Event_ClearSignalThread@idThread@@AAEXHPAVidEntity@@@Z 1011a950 f   Script_Thread.obj
 0001:001199a0       ?Event_SetCamera@idThread@@AAEXPAVidEntity@@@Z 1011a9a0 f   Script_Thread.obj
 0001:00119a00       ?Event_FirstPerson@idThread@@AAEXXZ 1011aa00 f   Script_Thread.obj
 0001:00119a10       ?Event_Trace@idThread@@AAEXABVidVec3@@000HPAVidEntity@@@Z 1011aa10 f   Script_Thread.obj
 0001:00119b70       ?Event_TracePoint@idThread@@AAEXABVidVec3@@0HPAVidEntity@@@Z 1011ab70 f   Script_Thread.obj
 0001:00119bb0       ?Event_GetTraceFraction@idThread@@AAEXXZ 1011abb0 f   Script_Thread.obj
 0001:00119bd0       ?Event_GetTraceEndPos@idThread@@AAEXXZ 1011abd0 f   Script_Thread.obj
 0001:00119c00       ?Event_GetTraceNormal@idThread@@AAEXXZ 1011ac00 f   Script_Thread.obj
 0001:00119c70       ?Event_GetTraceEntity@idThread@@AAEXXZ 1011ac70 f   Script_Thread.obj
 0001:00119cb0       ?Event_GetTraceJoint@idThread@@AAEXXZ 1011acb0 f   Script_Thread.obj
 0001:00119d60       ?Event_GetTraceBody@idThread@@AAEXXZ 1011ad60 f   Script_Thread.obj
 0001:00119e10       ?Event_FadeIn@idThread@@AAEXAAVidVec3@@M@Z 1011ae10 f   Script_Thread.obj
 0001:00119e90       ?Event_FadeOut@idThread@@AAEXAAVidVec3@@M@Z 1011ae90 f   Script_Thread.obj
 0001:00119f10       ?Event_FadeTo@idThread@@AAEXAAVidVec3@@MM@Z 1011af10 f   Script_Thread.obj
 0001:00119f90       ?Event_SetShaderParm@idThread@@AAEXHM@Z 1011af90 f   Script_Thread.obj
 0001:00119fc0       ?Event_StartMusic@idThread@@AAEXPBD@Z 1011afc0 f   Script_Thread.obj
 0001:00119fe0       ?Event_Warning@idThread@@AAEXPBD@Z 1011afe0 f   Script_Thread.obj
 0001:0011a000       ?Event_Error@idThread@@AAEXPBD@Z 1011b000 f   Script_Thread.obj
 0001:0011a020       ?Event_StrLen@idThread@@AAEXPBD@Z 1011b020 f   Script_Thread.obj
 0001:0011a050       ?Event_StrLeft@idThread@@AAEXPBDH@Z 1011b050 f   Script_Thread.obj
 0001:0011a130       ?Event_StrRight@idThread@@AAEXPBDH@Z 1011b130 f   Script_Thread.obj
 0001:0011a180       ?Event_StrSkip@idThread@@AAEXPBDH@Z 1011b180 f   Script_Thread.obj
 0001:0011a1f0       ?Event_StrMid@idThread@@AAEXPBDHH@Z 1011b1f0 f   Script_Thread.obj
 0001:0011a2c0       ?Event_StrToFloat@idThread@@AAEXPBD@Z 1011b2c0 f   Script_Thread.obj
 0001:0011a2f0       ?Event_RadiusDamage@idThread@@AAEXABVidVec3@@PAVidEntity@@11PBDM@Z 1011b2f0 f   Script_Thread.obj
 0001:0011a320       ?Event_IsClient@idThread@@AAEXXZ 1011b320 f   Script_Thread.obj
 0001:0011a340       ?Event_IsMultiplayer@idThread@@AAEXXZ 1011b340 f   Script_Thread.obj
 0001:0011a360       ?Event_GetFrameTime@idThread@@AAEXXZ 1011b360 f   Script_Thread.obj
 0001:0011a380       ?Event_GetTicsPerSecond@idThread@@AAEXXZ 1011b380 f   Script_Thread.obj
 0001:0011a390       ?Event_CacheSoundShader@idEntity@@AAEXPBD@Z 1011b390 f   Entity.obj
 0001:0011a390       ?Event_CacheSoundShader@idThread@@AAEXPBD@Z 1011b390 f   Script_Thread.obj
 0001:0011a3b0       ?Event_DebugLine@idThread@@AAEXABVidVec3@@00M@Z 1011b3b0 f   Script_Thread.obj
 0001:0011a430       ?Event_DebugArrow@idThread@@AAEXABVidVec3@@00HM@Z 1011b430 f   Script_Thread.obj
 0001:0011a4b0       ?Event_DebugCircle@idThread@@AAEXABVidVec3@@00MHM@Z 1011b4b0 f   Script_Thread.obj
 0001:0011a540       ?Event_DebugBounds@idThread@@AAEXABVidVec3@@00M@Z 1011b540 f   Script_Thread.obj
 0001:0011a600       ?Event_DrawText@idThread@@AAEXPBDABVidVec3@@M1HM@Z 1011b600 f   Script_Thread.obj
 0001:0011a6b0       ?Event_InfluenceActive@idThread@@AAEXXZ 1011b6b0 f   Script_Thread.obj
 0001:0011a6f0       ??0idStr@@QAE@PBDHH@Z      1011b6f0 f i Script_Thread.obj
 0001:0011a780       ??0idThread@@QAE@PAVidInterpreter@@PAVidEntity@@PBVfunction_t@@H@Z 1011b780 f   Script_Thread.obj
 0001:0011a860       ??0idThread@@QAE@PAVidInterpreter@@PBVfunction_t@@H@Z 1011b860 f   Script_Thread.obj
 0001:0011a930       ??0idThread@@QAE@PBVfunction_t@@@Z 1011b930 f   Script_Thread.obj
 0001:0011aa20       ??0idThread@@QAE@XZ        1011ba20 f   Script_Thread.obj
 0001:0011aaf0       ??_EidThread@@UAEPAXI@Z    1011baf0 f i Script_Thread.obj
 0001:0011aaf0       ??_GidThread@@UAEPAXI@Z    1011baf0 f i Script_Thread.obj
 0001:0011acd0       ?BeginMultiFrameEvent@idThread@@SA_NPAVidEntity@@PBVidEventDef@@@Z 1011bcd0 f   Script_Thread.obj
 0001:0011ad10       ?CallFunction@idThread@@QAEXPAVidEntity@@PBVfunction_t@@_N@Z 1011bd10 f   Script_Thread.obj
 0001:0011ad30       ?CreateInstance@idThread@@SAPAVidClass@@XZ 1011bd30 f   Script_Thread.obj
 0001:0011ae70       ?CurrentThread@idThread@@SAPAV1@XZ 1011be70 f   Script_Thread.obj
 0001:0011ae80       ?CurrentThreadNum@idThread@@SAHXZ 1011be80 f   Script_Thread.obj
 0001:0011aea0       ?DelayedStart@idThread@@QAEXH@Z 1011bea0 f   Script_Thread.obj
 0001:0011aed0       ?EndMultiFrameEvent@idThread@@SAXPAVidEntity@@PBVidEventDef@@@Z 1011bed0 f   Script_Thread.obj
 0001:0011af10       ?Error@idThread@@QBAXPBDZZ 1011bf10 f   Script_Thread.obj
 0001:0011af60       ?Execute@idThread@@QAE_NXZ 1011bf60 f   Script_Thread.obj
 0001:0011b030       ?GetThread@idThread@@SAPAV1@H@Z 1011c030 f   Script_Thread.obj
 0001:0011b070       ?GetType@idThread@@UBEPAVidTypeInfo@@XZ 1011c070 f   Script_Thread.obj
 0001:0011b080       ?Init@idThread@@AAEXXZ     1011c080 f   Script_Thread.obj
 0001:0011b180       ?IsWaiting@idThread@@QAE_NXZ 1011c180 f   Script_Thread.obj
 0001:0011b1b0       ?ListThreads_f@idThread@@SAXABVidCmdArgs@@@Z 1011c1b0 f   Script_Thread.obj
 0001:0011b220       ?ManualDelete@idThread@@QAEXXZ 1011c220 f   Script_Thread.obj
 0001:0011b230       ?ObjectMoveDone@idThread@@SAXHPAVidEntity@@@Z 1011c230 f   Script_Thread.obj
 0001:0011b2b0       ?Restart@idThread@@SAXXZ   1011c2b0 f   Script_Thread.obj
 0001:0011b340       ?Restore@idThread@@QAEXPAVidRestoreGame@@@Z 1011c340 f   Script_Thread.obj
 0001:0011b3d0       ?ReturnEntity@idThread@@SAXPAVidEntity@@@Z 1011c3d0 f   Script_Thread.obj
 0001:0011b3e0       ?ReturnFloat@idThread@@SAXM@Z 1011c3e0 f   Script_Thread.obj
 0001:0011b400       ?ReturnInt@idThread@@SAXH@Z 1011c400 f   Script_Thread.obj
 0001:0011b420       ?ReturnString@idThread@@SAXPBD@Z 1011c420 f   Script_Thread.obj
 0001:0011b440       ?ReturnVector@idThread@@SAXABVidVec3@@@Z 1011c440 f   Script_Thread.obj
 0001:0011b460       ?Save@idThread@@QBEXPAVidSaveGame@@@Z 1011c460 f   Script_Thread.obj
 0001:0011b4f0       ?Start@idThread@@QAE_NXZ   1011c4f0 f   Script_Thread.obj
 0001:0011b510       ?Warning@idThread@@QBAXPBDZZ 1011c510 f   Script_Thread.obj
 0001:0011b560       ?Event_EnableEyeFocus@idActor@@AAEXXZ 1011c560 f   Actor.obj
 0001:0011b5d0       ?Event_DisableEyeFocus@idActor@@AAEXXZ 1011c5d0 f   Actor.obj
 0001:0011b630       ?Event_Footstep@idActor@@AAEXXZ 1011c630 f   Actor.obj
 0001:0011b6f0       ?Event_EnableWalkIK@idActor@@AAEXXZ 1011c6f0 f   Actor.obj
 0001:0011b700       ?Event_DisableWalkIK@idActor@@AAEXXZ 1011c700 f   Actor.obj
 0001:0011b710       ?Event_EnableLegIK@idActor@@AAEXH@Z 1011c710 f   Actor.obj
 0001:0011b720       ?Event_DisableLegIK@idActor@@AAEXH@Z 1011c720 f   Actor.obj
 0001:0011b730       ?Event_SetAnimPrefix@idActor@@AAEXPBD@Z 1011c730 f   Actor.obj
 0001:0011b740       ?Event_PreventPain@idActor@@AAEXM@Z 1011c740 f   Actor.obj
 0001:0011b770       ?Event_DisablePain@idActor@@AAEXXZ 1011c770 f   Actor.obj
 0001:0011b780       ?Event_EnablePain@idActor@@AAEXXZ 1011c780 f   Actor.obj
 0001:0011b790       ?Event_GetPainAnim@idActor@@AAEXXZ 1011c790 f   Actor.obj
 0001:0011b7b0       ?Event_StopAnim@idActor@@AAEXHH@Z 1011c7b0 f   Actor.obj
 0001:0011b8a0       ?Event_PlayAnim@idActor@@AAEXHPBD@Z 1011c8a0 f   Actor.obj
 0001:0011bbb0       ?Event_PlayCycle@idActor@@AAEXHPBD@Z 1011cbb0 f   Actor.obj
 0001:0011bea0       ?Event_IdleAnim@idActor@@AAEXHPBD@Z 1011cea0 f   Actor.obj
 0001:0011c2a0       ?Event_SetSyncedAnimWeight@idActor@@AAEXHHM@Z 1011d2a0 f   Actor.obj
 0001:0011c480       ?Event_OverrideAnim@idActor@@AAEXH@Z 1011d480 f   Actor.obj
 0001:0011c5b0       ?Event_EnableAnim@idActor@@AAEXHH@Z 1011d5b0 f   Actor.obj
 0001:0011c620       ?Event_SetBlendFrames@idActor@@AAEXHH@Z 1011d620 f   Actor.obj
 0001:0011c690       ?Event_GetBlendFrames@idActor@@AAEXH@Z 1011d690 f   Actor.obj
 0001:0011c6f0       ?Event_AnimState@idActor@@AAEXHPBDH@Z 1011d6f0 f   Actor.obj
 0001:0011c6f0       ?SetAnimState@idActor@@QAEXHPBDH@Z 1011d6f0 f   Actor.obj
 0001:0011c7d0       ?Event_GetAnimState@idActor@@AAEXH@Z 1011d7d0 f   Actor.obj
 0001:0011c840       ?Event_InAnimState@idActor@@AAEXHPBD@Z 1011d840 f   Actor.obj
 0001:0011c8b0       ?Event_FinishAction@idActor@@AAEXPBD@Z 1011d8b0 f   Actor.obj
 0001:0011c8e0       ?Event_AnimDone@idActor@@AAEXHH@Z 1011d8e0 f   Actor.obj
 0001:0011c950       ?Event_HasAnim@idActor@@AAEXHPBD@Z 1011d950 f   Actor.obj
 0001:0011c990       ?Event_CheckAnim@idActor@@AAEXHPBD@Z 1011d990 f   Actor.obj
 0001:0011c9f0       ?Event_ChooseAnim@idActor@@AAEXHPBD@Z 1011d9f0 f   Actor.obj
 0001:0011ca80       ?Event_AnimLength@idActor@@AAEXHPBD@Z 1011da80 f   Actor.obj
 0001:0011cb40       ?Event_AnimDistance@idActor@@AAEXHPBD@Z 1011db40 f   Actor.obj
 0001:0011cc00       ?Event_HasEnemies@idActor@@AAEXXZ 1011dc00 f   Actor.obj
 0001:0011cc60       ?Event_NextEnemy@idActor@@AAEXPAVidEntity@@@Z 1011dc60 f   Actor.obj
 0001:0011cd20       ?Event_ClosestEnemyToPoint@idActor@@AAEXABVidVec3@@@Z 1011dd20 f   Actor.obj
 0001:0011cdf0       ?Event_StopSound@idActor@@AAEXHH@Z 1011ddf0 f   Actor.obj
 0001:0011ce50       ?Event_SetNextState@idActor@@AAEXPBD@Z 1011de50 f   Actor.obj
 0001:0011ceb0       ?Event_SetState@idActor@@AAEXPBD@Z 1011deb0 f   Actor.obj
 0001:0011cf20       ?Event_GetState@idActor@@AAEXXZ 1011df20 f   Actor.obj
 0001:0011cf50       ?Event_GetHead@idActor@@AAEXXZ 1011df50 f   Actor.obj
 0001:0011cf90       ?Event_SetDamageGroupScale@idActor@@AAEXPBDM@Z 1011df90 f   Actor.obj
 0001:0011cff0       ?Event_SetDamageGroupScaleAll@idActor@@AAEXM@Z 1011dff0 f   Actor.obj
 0001:0011d020       ?Event_GetDamageGroupScale@idActor@@AAEXPBD@Z 1011e020 f   Actor.obj
 0001:0011d090       ?Event_SetDamageCap@idActor@@AAEXM@Z 1011e090 f   Actor.obj
 0001:0011d0a0       ?Event_SetWaitState@idActor@@AAEXPBD@Z 1011e0a0 f   Actor.obj
 0001:0011d0a0       ?SetWaitState@idActor@@QAEXPBD@Z 1011e0a0 f   Actor.obj
 0001:0011d0b0       ?Event_GetWaitState@idActor@@AAEXXZ 1011e0b0 f   Actor.obj
 0001:0011d0d0       ??$_Resize_reallocate@U_Value_init_tag@std@@@?$vector@PAVidProjectile@@V?$allocator@PAVidProjectile@@@std@@@std@@AAEXIABU_Value_init_tag@1@@Z 1011e0d0 f i Actor.obj
 0001:0011d1f0       ??0idActor@@QAE@XZ         1011e1f0 f   Actor.obj
 0001:0011d750       ??1idActor@@UAE@XZ         1011e750 f   Actor.obj
 0001:0011dba0       ??1idAnimState@@QAE@XZ     1011eba0 f   Actor.obj
 0001:0011dbf0       ??_EidActor@@UAEPAXI@Z     1011ebf0 f i Actor.obj
 0001:0011dbf0       ??_GidActor@@UAEPAXI@Z     1011ebf0 f i Actor.obj
 0001:0011dc30       ?AnimDone@idAnimState@@QBE_NH@Z 1011ec30 f   Actor.obj
 0001:0011dc80       ?Attach@idActor@@QAEXPAVidEntity@@@Z 1011ec80 f   Actor.obj
 0001:0011e090       ?BecomeIdle@idAnimState@@QAEXXZ 1011f090 f   Actor.obj
 0001:0011e0a0       ?CanSee@idActor@@QBE_NPAVidEntity@@_N@Z 1011f0a0 f   Actor.obj
 0001:0011e2e0       ?CheckBlink@idActor@@QAEXXZ 1011f2e0 f   Actor.obj
 0001:0011e3b0       ?CheckFOV@idActor@@QBE_NABVidVec3@@@Z 1011f3b0 f   Actor.obj
 0001:0011e4e0       ?ClearPain@idActor@@QAEXXZ 1011f4e0 f   Actor.obj
 0001:0011e4f0       ?ConstructScriptObject@idActor@@UAEPAVidThread@@XZ 1011f4f0 f   Actor.obj
 0001:0011e610       ?CopyJointsFromBodyToHead@idActor@@IAEXXZ 1011f610 f   Actor.obj
 0001:0011ea30       ?CreateInstance@idActor@@SAPAVidClass@@XZ 1011fa30 f   Actor.obj
 0001:0011ead0       ?CycleAnim@idAnimState@@QAEXH@Z 1011fad0 f   Actor.obj
 0001:0011eb20       ?Damage@idActor@@UAEXPAVidEntity@@0ABVidVec3@@PBDMH@Z 1011fb20 f   Actor.obj
 0001:0011eeb0       ?Disabled@idAnimState@@QBE_NXZ 1011feb0 f   Actor.obj
 0001:0011eec0       ?EnemyWithMostHealth@idActor@@QAEPAV1@XZ 1011fec0 f   Actor.obj
 0001:0011ef20       ?EyeHeight@idActor@@QBEMXZ 1011ff20 f   Actor.obj
 0001:0011ef30       ?EyeOffset@idActor@@QBE?AVidVec3@@XZ 1011ff30 f   Actor.obj
 0001:0011ef90       ?FinishSetup@idActor@@AAEXXZ 1011ff90 f   Actor.obj
 0001:0011eff0       ?GetAASLocation@idActor@@UBEXPAVidAAS@@AAVidVec3@@AAH@Z 1011fff0 f   Actor.obj
 0001:0011f0a0       ?GetAIAimTargets@idActor@@UAEXABVidVec3@@AAV2@1@Z 101200a0 f   Actor.obj
 0001:0011f1a0       ?GetAnim@idActor@@QAEHHPBD@Z 101201a0 f   Actor.obj
 0001:0011f230       ?GetAnimFlags@idAnimState@@QBE?AUanimFlags_t@@XZ 10120230 f   Actor.obj
 0001:0011f290       ?GetDamageForLocation@idActor@@QAEHHH@Z 10120290 f   Actor.obj
 0001:0011f2e0       ?GetDamageGroup@idActor@@QAEPBDH@Z 101202e0 f   Actor.obj
 0001:0011f310       ?GetDefaultSurfaceType@idActor@@UBEHXZ 10120310 f   Actor.obj
 0001:0011f320       ?GetDeltaViewAngles@idActor@@QBEABVidAngles@@XZ 10120320 f   Actor.obj
 0001:0011f330       ?GetEyePosition@idActor@@QBE?AVidVec3@@XZ 10120330 f   Actor.obj
 0001:0011f3f0       ?GetPhysicsToSoundTransform@idActor@@UAE_NAAVidVec3@@AAVidMat3@@@Z 101203f0 f   Actor.obj
 0001:0011f590       ?GetPhysicsToVisualTransform@idActor@@UAE_NAAVidVec3@@AAVidMat3@@@Z 10120590 f   Actor.obj
 0001:0011f630       ?GetRenderView@idActor@@UAEPAUrenderView_s@@XZ 10120630 f   Actor.obj
 0001:0011f740       ?GetScriptFunction@idActor@@QAEPBVfunction_t@@PBD@Z 10120740 f   Actor.obj
 0001:0011f790       ?GetType@idActor@@UBEPAVidTypeInfo@@XZ 10120790 f   Actor.obj
 0001:0011f7a0       ?GetViewPos@idActor@@UBEXAAVidVec3@@AAVidMat3@@@Z 101207a0 f   Actor.obj
 0001:0011f8c0       ?Gib@idActor@@MAEXABVidVec3@@PBD@Z 101208c0 f   Actor.obj
 0001:0011f920       ?Hide@idActor@@UAEXXZ      10120920 f   Actor.obj
 0001:0011f9c0       ?Init@idAnimState@@QAEXPAVidActor@@PAVidAnimator@@H@Z 101209c0 f   Actor.obj
 0001:0011fa60       ?LinkCombat@idActor@@UAEXXZ 10120a60 f   Actor.obj
 0001:0011fad0       ?LoadAF@idActor@@UAE_NXZ   10120ad0 f   Actor.obj
 0001:0011fbb0       ?Pain@idActor@@UAE_NPAVidEntity@@0HABVidVec3@@H@Z 10120bb0 f   Actor.obj
 0001:0011fe60       ?PlayAnim@idAnimState@@QAEXH@Z 10120e60 f   Actor.obj
 0001:0011feb0       ?ProjectOverlay@idActor@@UAEXABVidVec3@@0MPBD@Z 10120eb0 f   Actor.obj
 0001:0011ff60       ?RemoveAttachments@idActor@@IAEXXZ 10120f60 f   Actor.obj
 0001:0011fff0       ?Resize@?$idList@VidAttachInfo@@@@QAEXH@Z 10120ff0 f i Actor.obj
 0001:001200b0       ?Restart@idActor@@UAEXXZ   101210b0 f   Actor.obj
 0001:001200c0       ?Restore@idActor@@QAEXPAVidRestoreGame@@@Z 101210c0 f   Actor.obj
 0001:00120760       ?Restore@idAnimState@@QAEXPAVidRestoreGame@@@Z 10121760 f   Actor.obj
 0001:001207f0       ?Save@idActor@@QBEXPAVidSaveGame@@@Z 101217f0 f   Actor.obj
 0001:00120fb0       ?SetCombatModel@idActor@@QAEXXZ 10121fb0 f   Actor.obj
 0001:00121070       ?SetDeltaViewAngles@idActor@@QAEXABVidAngles@@@Z 10122070 f   Actor.obj
 0001:001210a0       ?SetEyeHeight@idActor@@QAEXM@Z 101220a0 f   Actor.obj
 0001:001210c0       ?SetState@idActor@@QAEXPBD@Z 101220c0 f   Actor.obj
 0001:00121160       ?SetState@idActor@@QAEXPBVfunction_t@@@Z 10122160 f   Actor.obj
 0001:001211e0       ?SetState@idAnimState@@QAEXPBDH@Z 101221e0 f   Actor.obj
 0001:00121290       ?SetupBody@idActor@@QAEXXZ 10122290 f   Actor.obj
 0001:00121680       ?SetupDamageGroups@idActor@@QAEXXZ 10122680 f   Actor.obj
 0001:00121980       ?SetupHead@idActor@@AAEXXZ 10122980 f   Actor.obj
 0001:00121dc0       ?Show@idActor@@UAEXXZ      10122dc0 f   Actor.obj
 0001:00121e90       ?ShutdownThreads@idActor@@QAEXXZ 10122e90 f   Actor.obj
 0001:00121f30       ?Spawn@idActor@@QAEXXZ     10122f30 f   Actor.obj
 0001:00122830       ?SpawnGibs@idActor@@UAEXABVidVec3@@PBD@Z 10123830 f   Actor.obj
 0001:00122850       ?StartRagdoll@idActor@@QAE_NXZ 10123850 f   Actor.obj
 0001:00122b60       ?StopRagdoll@idActor@@QAEXXZ 10123b60 f   Actor.obj
 0001:00122b80       ?SyncAnimChannels@idActor@@AAEXHHH@Z 10123b80 f   Actor.obj
 0001:00122dd0       ?Teleport@idActor@@UAEXABVidVec3@@ABVidAngles@@PAVidEntity@@@Z 10123dd0 f   Actor.obj
 0001:00122ec0       ?TriggerHealFX@idActor@@UAEXVidStr@@@Z 10123ec0 f   Actor.obj
 0001:00123100       ?TriggerTransporterFX@idActor@@UAEXVidStr@@@Z 10124100 f   Actor.obj
 0001:00123340       ?UnlinkCombat@idActor@@UAEXXZ 10124340 f   Actor.obj
 0001:00123390       ?UpdateAnimState@idActor@@QAEXXZ 10124390 f   Actor.obj
 0001:00123440       ?UpdateAnimationControllers@idActor@@UAE_NXZ 10124440 f   Actor.obj
 0001:00123490       ?UpdateScript@idActor@@QAEXXZ 10124490 f   Actor.obj
 0001:00123580       ?WaitState@idActor@@QBEPBDXZ 10124580 f   Actor.obj
 0001:001235a0       ??0idAF@@QAE@XZ            101245a0 f   AF.obj
 0001:00123740       ??1idAF@@QAE@XZ            10124740 f   AF.obj
 0001:001237f0       ??D@YA?AVidVec3@@ABV0@ABVidRotation@@@Z 101247f0 f i AF.obj
 0001:001238a0       ?AddBindConstraints@idAF@@QAEXXZ 101248a0 f   AF.obj
 0001:00124170       ?AddBody@idAF@@IAEXPAVidAFBody@@PBVidJointMat@@PBDW4AFJointModType_t@@@Z 10125170 f   AF.obj
 0001:00124570       ?AddForce@idAF@@QAEXPAVidEntity@@HABVidVec3@@1@Z 10125570 f   AF.obj
 0001:001245d0       ?ApplyImpulse@idAF@@QAEXPAVidEntity@@HABVidVec3@@1@Z 101255d0 f   AF.obj
 0001:00124630       ?BodyForClipModelId@idAF@@QBEHH@Z 10125630 f   AF.obj
 0001:00124660       ?ChangePose@idAF@@QAEXPAVidEntity@@H@Z 10125660 f   AF.obj
 0001:00124cd0       ?EntitiesTouchingAF@idAF@@QBEHQAUafTouch_s@@@Z 10125cd0 f   AF.obj
 0001:00124ec0       ?GetBounds@idAF@@QBE?AVidBounds@@XZ 10125ec0 f   AF.obj
 0001:001256b0       ?GetImpactInfo@idAF@@QAEXPAVidEntity@@HABVidVec3@@PAUimpactInfo_s@@@Z 101266b0 f   AF.obj
 0001:001257d0       ?GetPhysicsToVisualTransform@idAF@@QBEXAAVidVec3@@AAVidMat3@@@Z 101267d0 f   AF.obj
 0001:00125890       ?Load@idAF@@QAE_NPAVidEntity@@PBD@Z 10126890 f   AF.obj
 0001:00125f70       ?LoadBody@idAF@@IAE_NPBVidDeclAF_Body@@PBVidJointMat@@@Z 10126f70 f   AF.obj
 0001:001269d0       ?LoadConstraint@idAF@@IAE_NPBVidDeclAF_Constraint@@@Z 101279d0 f   AF.obj
 0001:00127110       ?LoadState@idAF@@QAEXABVidDict@@@Z 10128110 f   AF.obj
 0001:001272d0       ?RemoveBindConstraints@idAF@@QAEXXZ 101282d0 f   AF.obj
 0001:00127400       ?Rest@idAF@@QAEXXZ         10128400 f   AF.obj
 0001:00127410       ?Restore@idAF@@QAEXPAVidRestoreGame@@@Z 10128410 f   AF.obj
 0001:00127530       ?Save@idAF@@QBEXPAVidSaveGame@@@Z 10128530 f   AF.obj
 0001:001275d0       ?SaveState@idAF@@QBEXAAVidDict@@@Z 101285d0 f   AF.obj
 0001:00127860       ?SetConstraintPosition@idAF@@QAEXPBDABVidVec3@@@Z 10128860 f   AF.obj
 0001:00127950       ?SetNum@?$idList@UjointConversion_s@@@@QAEXH_N@Z 10128950 f i AF.obj
 0001:00127a70       ?SetupPose@idAF@@QAEXPAVidEntity@@H@Z 10128a70 f   AF.obj
 0001:00128080       ?Start@idAF@@QAEXXZ        10129080 f   AF.obj
 0001:001280e0       ?StartFromCurrentPose@idAF@@QAEXH@Z 101290e0 f   AF.obj
 0001:001281d0       ?Stop@idAF@@QAEXXZ         101291d0 f   AF.obj
 0001:001281f0       ?TestSolid@idAF@@IBE_NXZ   101291f0 f   AF.obj
 0001:001283d0       ?UpdateAnimation@idAF@@QAE_NXZ 101293d0 f   AF.obj
 0001:00128df0       ___local_stdio_scanf_options 10129df0 f i AF.obj
 0001:00128e00       _sscanf                    10129e00 f i AF.obj
 0001:00128e30       ?Event_SetConstraintPosition@idAFEntity_Base@@IAEXPBDABVidVec3@@@Z 10129e30 f   AFEntity.obj
 0001:00128e40       ?Event_Gib@idAFEntity_Gibbable@@IAEXPBD@Z 10129e40 f   AFEntity.obj
 0001:00128e40       ?Event_Gib@idAFEntity_WithAttachedHead@@AAEXPBD@Z 10129e40 f   AFEntity.obj
 0001:00128e80       ?Event_Activate@idAFEntity_Generic@@AAEXPAVidEntity@@@Z 10129e80 f   AFEntity.obj
 0001:00128e80       ?Event_Activate@idAFEntity_WithAttachedHead@@AAEXPAVidEntity@@@Z 10129e80 f   AFEntity.obj
 0001:00128fd0       ?PostSpawn@idAFEntity_VehicleAutomated@@QAEXXZ 10129fd0 f   AFEntity.obj
 0001:00129010       ?Event_SetVelocity@idAFEntity_VehicleAutomated@@AAEXM@Z 1012a010 f   AFEntity.obj
 0001:00129030       ?Event_SetTorque@idAFEntity_VehicleAutomated@@AAEXM@Z 1012a030 f   AFEntity.obj
 0001:00129050       ?Event_SetSteeringSpeed@idAFEntity_VehicleAutomated@@AAEXM@Z 1012a050 f   AFEntity.obj
 0001:00129070       ?Event_SetWayPoint@idAFEntity_VehicleAutomated@@AAEXPAVidEntity@@@Z 1012a070 f   AFEntity.obj
 0001:00129080       ?Event_SetFingerAngle@idAFEntity_ClawFourFingers@@AAEXM@Z 1012a080 f   AFEntity.obj
 0001:001290d0       ?Event_StopFingers@idAFEntity_ClawFourFingers@@AAEXXZ 1012a0d0 f   AFEntity.obj
 0001:00129100       ?Event_SpawnHarvestTrigger@idHarvestable@@IAEXXZ 1012a100 f   AFEntity.obj
 0001:00129300       ?Event_Touch@idHarvestable@@IAEXPAVidEntity@@PAUtrace_s@@@Z 1012a300 f   AFEntity.obj
 0001:00129690       ?Event_SpawnHarvestEntity@idAFEntity_Harvest@@IAEXXZ 1012a690 f   AFEntity.obj
 0001:00129760       ??0idAFEntity_Gibbable@@QAE@XZ 1012a760 f   AFEntity.obj
 0001:001298a0       ??0idAFEntity_Vehicle@@QAE@XZ 1012a8a0 f   AFEntity.obj
 0001:00129a10       ??0idAFEntity_VehicleSixWheels@@QAE@XZ 1012aa10 f   AFEntity.obj
 0001:00129b10       ??0idAFEntity_WithAttachedHead@@QAE@XZ 1012ab10 f   AFEntity.obj
 0001:00129c60       ??1idAFEntity_Base@@UAE@XZ 1012ac60 f   AFEntity.obj
 0001:00129cb0       ??1idAFEntity_Gibbable@@UAE@XZ 1012acb0 f   AFEntity.obj
 0001:00129d50       ??1idAFEntity_WithAttachedHead@@UAE@XZ 1012ad50 f   AFEntity.obj
 0001:00129e00       ??1idMultiModelAF@@UAE@XZ  1012ae00 f   AFEntity.obj
 0001:00129ef0       ??_EidAFAttachment@@UAEPAXI@Z 1012aef0 f i AFEntity.obj
 0001:00129ef0       ??_GidAFAttachment@@UAEPAXI@Z 1012aef0 f i AFEntity.obj
 0001:00129fb0       ??_EidAFEntity_Base@@UAEPAXI@Z 1012afb0 f i AFEntity.obj
 0001:00129fb0       ??_GidAFEntity_Base@@UAEPAXI@Z 1012afb0 f i AFEntity.obj
 0001:0012a030       ??_EidAFEntity_ClawFourFingers@@UAEPAXI@Z 1012b030 f i AFEntity.obj
 0001:0012a030       ??_GidAFEntity_ClawFourFingers@@UAEPAXI@Z 1012b030 f i AFEntity.obj
 0001:0012a0b0       ??_EidAFEntity_Generic@@UAEPAXI@Z 1012b0b0 f i AFEntity.obj
 0001:0012a0b0       ??_GidAFEntity_Generic@@UAEPAXI@Z 1012b0b0 f i AFEntity.obj
 0001:0012a0f0       ??_EidAFEntity_Gibbable@@UAEPAXI@Z 1012b0f0 f i AFEntity.obj
 0001:0012a0f0       ??_GidAFEntity_Gibbable@@UAEPAXI@Z 1012b0f0 f i AFEntity.obj
 0001:0012a130       ??_EidAFEntity_Harvest@@UAEPAXI@Z 1012b130 f i AFEntity.obj
 0001:0012a130       ??_GidAFEntity_Harvest@@UAEPAXI@Z 1012b130 f i AFEntity.obj
 0001:0012a1e0       ??_EidAFEntity_SteamPipe@@UAEPAXI@Z 1012b1e0 f i AFEntity.obj
 0001:0012a1e0       ??_GidAFEntity_SteamPipe@@UAEPAXI@Z 1012b1e0 f i AFEntity.obj
 0001:0012a2c0       ??_EidAFEntity_Vehicle@@UAEPAXI@Z 1012b2c0 f i AFEntity.obj
 0001:0012a2c0       ??_GidAFEntity_Vehicle@@UAEPAXI@Z 1012b2c0 f i AFEntity.obj
 0001:0012a340       ??_EidAFEntity_VehicleAutomated@@UAEPAXI@Z 1012b340 f i AFEntity.obj
 0001:0012a340       ??_GidAFEntity_VehicleAutomated@@UAEPAXI@Z 1012b340 f i AFEntity.obj
 0001:0012a3c0       ??_EidAFEntity_VehicleFourWheels@@UAEPAXI@Z 1012b3c0 f i AFEntity.obj
 0001:0012a3c0       ??_GidAFEntity_VehicleFourWheels@@UAEPAXI@Z 1012b3c0 f i AFEntity.obj
 0001:0012a440       ??_EidAFEntity_VehicleSimple@@UAEPAXI@Z 1012b440 f i AFEntity.obj
 0001:0012a440       ??_GidAFEntity_VehicleSimple@@UAEPAXI@Z 1012b440 f i AFEntity.obj
 0001:0012a4f0       ??_EidAFEntity_VehicleSixWheels@@UAEPAXI@Z 1012b4f0 f i AFEntity.obj
 0001:0012a4f0       ??_GidAFEntity_VehicleSixWheels@@UAEPAXI@Z 1012b4f0 f i AFEntity.obj
 0001:0012a570       ??_EidAFEntity_WithAttachedHead@@UAEPAXI@Z 1012b570 f i AFEntity.obj
 0001:0012a570       ??_GidAFEntity_WithAttachedHead@@UAEPAXI@Z 1012b570 f i AFEntity.obj
 0001:0012a5b0       ??_EidChain@@UAEPAXI@Z     1012b5b0 f i AFEntity.obj
 0001:0012a5b0       ??_EidMultiModelAF@@UAEPAXI@Z 1012b5b0 f i AFEntity.obj
 0001:0012a5b0       ??_GidChain@@UAEPAXI@Z     1012b5b0 f i AFEntity.obj
 0001:0012a5b0       ??_GidMultiModelAF@@UAEPAXI@Z 1012b5b0 f i AFEntity.obj
 0001:0012a5f0       ??_EidHarvestable@@UAEPAXI@Z 1012b5f0 f i AFEntity.obj
 0001:0012a5f0       ??_GidHarvestable@@UAEPAXI@Z 1012b5f0 f i AFEntity.obj
 0001:0012a6b0       ?AF_CreateMesh@idGameEdit@@UAEPAVidRenderModel@@ABVidDict@@AAVidVec3@@AAVidMat3@@AA_N@Z 1012b6b0 f   AFEntity.obj
 0001:0012c220       ?AF_SpawnEntity@idGameEdit@@UAE_NPBD@Z 1012d220 f   AFEntity.obj
 0001:0012c480       ?AF_UndoChanges@idGameEdit@@UAEXXZ 1012d480 f   AFEntity.obj
 0001:0012c560       ?AF_UpdateEntities@idGameEdit@@UAEXPBD@Z 1012d560 f   AFEntity.obj
 0001:0012c650       ?AddBindConstraints@idAFEntity_Base@@QAEXXZ 1012d650 f   AFEntity.obj
 0001:0012c660       ?AddDamageEffect@idAFAttachment@@UAEXABUtrace_s@@ABVidVec3@@PBD@Z 1012d660 f   AFEntity.obj
 0001:0012c6c0       ?AddForce@idAFAttachment@@UAEXPAVidEntity@@HABVidVec3@@1@Z 1012d6c0 f   AFEntity.obj
 0001:0012c700       ?AddForce@idAFEntity_Base@@UAEXPAVidEntity@@HABVidVec3@@1@Z 1012d700 f   AFEntity.obj
 0001:0012c760       ?ApplyImpulse@idAFAttachment@@UAEXPAVidEntity@@HABVidVec3@@1@Z 1012d760 f   AFEntity.obj
 0001:0012c7a0       ?ApplyImpulse@idAFEntity_Base@@UAEXPAVidEntity@@HABVidVec3@@1@Z 1012d7a0 f   AFEntity.obj
 0001:0012c800       ?BeginBurn@idHarvestable@@IAEXXZ 1012d800 f   AFEntity.obj
 0001:0012ca30       ?BodyForClipModelId@idAFEntity_Base@@QBEHH@Z 1012da30 f   AFEntity.obj
 0001:0012ca40       ?BuildChain@idChain@@IAEXABVidStr@@ABVidVec3@@MMMH_N@Z 1012da40 f   AFEntity.obj
 0001:0012d1c0       ?ClearBody@idAFAttachment@@QAEXXZ 1012e1c0 f   AFEntity.obj
 0001:0012d1e0       ?Collide@idAFEntity_Base@@UAE_NABUtrace_s@@ABVidVec3@@@Z 1012e1e0 f   AFEntity.obj
 0001:0012d2e0       ?Collide@idAFEntity_Gibbable@@UAE_NABUtrace_s@@ABVidVec3@@@Z 1012e2e0 f   AFEntity.obj
 0001:0012d540       ?CreateInstance@idAFAttachment@@SAPAVidClass@@XZ 1012e540 f   AFEntity.obj
 0001:0012d610       ?CreateInstance@idAFEntity_Base@@SAPAVidClass@@XZ 1012e610 f   AFEntity.obj
 0001:0012d7a0       ?CreateInstance@idAFEntity_ClawFourFingers@@SAPAVidClass@@XZ 1012e7a0 f   AFEntity.obj
 0001:0012d960       ?CreateInstance@idAFEntity_Generic@@SAPAVidClass@@XZ 1012e960 f   AFEntity.obj
 0001:0012db10       ?CreateInstance@idAFEntity_Gibbable@@SAPAVidClass@@XZ 1012eb10 f   AFEntity.obj
 0001:0012dbb0       ?CreateInstance@idAFEntity_Harvest@@SAPAVidClass@@XZ 1012ebb0 f   AFEntity.obj
 0001:0012dc60       ?CreateInstance@idAFEntity_SteamPipe@@SAPAVidClass@@XZ 1012ec60 f   AFEntity.obj
 0001:0012de40       ?CreateInstance@idAFEntity_Vehicle@@SAPAVidClass@@XZ 1012ee40 f   AFEntity.obj
 0001:0012dee0       ?CreateInstance@idAFEntity_VehicleAutomated@@SAPAVidClass@@XZ 1012eee0 f   AFEntity.obj
 0001:0012df90       ?CreateInstance@idAFEntity_VehicleFourWheels@@SAPAVidClass@@XZ 1012ef90 f   AFEntity.obj
 0001:0012e0d0       ?CreateInstance@idAFEntity_VehicleSimple@@SAPAVidClass@@XZ 1012f0d0 f   AFEntity.obj
 0001:0012e1a0       ?CreateInstance@idAFEntity_VehicleSixWheels@@SAPAVidClass@@XZ 1012f1a0 f   AFEntity.obj
 0001:0012e240       ?CreateInstance@idAFEntity_WithAttachedHead@@SAPAVidClass@@XZ 1012f240 f   AFEntity.obj
 0001:0012e2e0       ?CreateInstance@idChain@@SAPAVidClass@@XZ 1012f2e0 f   AFEntity.obj
 0001:0012e3f0       ?CreateInstance@idHarvestable@@SAPAVidClass@@XZ 1012f3f0 f   AFEntity.obj
 0001:0012e4f0       ?CreateInstance@idMultiModelAF@@SAPAVidClass@@XZ 1012f4f0 f   AFEntity.obj
 0001:0012e600       ?Damage@idAFAttachment@@UAEXPAVidEntity@@0ABVidVec3@@PBDMH@Z 1012f600 f   AFEntity.obj
 0001:0012e640       ?Damage@idAFEntity_Gibbable@@UAEXPAVidEntity@@0ABVidVec3@@PBDMH@Z 1012f640 f   AFEntity.obj
 0001:0012e6c0       ?DropAFs@idAFEntity_Base@@SAXPAVidEntity@@PBDPAV?$idList@PAVidEntity@@@@@Z 1012f6c0 f   AFEntity.obj
 0001:0012e900       ?FreeModelDef@idAFEntity_Base@@UAEXXZ 1012f900 f   AFEntity.obj
 0001:0012e920       ?GetBody@idAFAttachment@@QBEPAVidEntity@@XZ 1012f920 f   AFEntity.obj
 0001:0012e930       ?GetFxOrientationAxis@idHarvestable@@IAE_NAAVidMat3@@@Z 1012f930 f   AFEntity.obj
 0001:0012ee20       ?GetImpactInfo@idAFAttachment@@UAEXPAVidEntity@@HABVidVec3@@PAUimpactInfo_s@@@Z 1012fe20 f   AFEntity.obj
 0001:0012ee60       ?GetImpactInfo@idAFEntity_Base@@UAEXPAVidEntity@@HABVidVec3@@PAUimpactInfo_s@@@Z 1012fe60 f   AFEntity.obj
 0001:0012ef70       ?GetPhysicsToVisualTransform@idAFEntity_Base@@UAE_NAAVidVec3@@AAVidMat3@@@Z 1012ff70 f   AFEntity.obj
 0001:0012efa0       ?GetSteerAngle@idAFEntity_Vehicle@@IAEMXZ 1012ffa0 f   AFEntity.obj
 0001:0012f030       ?GetType@idAFAttachment@@UBEPAVidTypeInfo@@XZ 10130030 f   AFEntity.obj
 0001:0012f040       ?GetType@idAFEntity_Base@@UBEPAVidTypeInfo@@XZ 10130040 f   AFEntity.obj
 0001:0012f050       ?GetType@idAFEntity_ClawFourFingers@@UBEPAVidTypeInfo@@XZ 10130050 f   AFEntity.obj
 0001:0012f060       ?GetType@idAFEntity_Generic@@UBEPAVidTypeInfo@@XZ 10130060 f   AFEntity.obj
 0001:0012f070       ?GetType@idAFEntity_Gibbable@@UBEPAVidTypeInfo@@XZ 10130070 f   AFEntity.obj
 0001:0012f080       ?GetType@idAFEntity_Harvest@@UBEPAVidTypeInfo@@XZ 10130080 f   AFEntity.obj
 0001:0012f090       ?GetType@idAFEntity_SteamPipe@@UBEPAVidTypeInfo@@XZ 10130090 f   AFEntity.obj
 0001:0012f0a0       ?GetType@idAFEntity_Vehicle@@UBEPAVidTypeInfo@@XZ 101300a0 f   AFEntity.obj
 0001:0012f0b0       ?GetType@idAFEntity_VehicleAutomated@@UBEPAVidTypeInfo@@XZ 101300b0 f   AFEntity.obj
 0001:0012f0c0       ?GetType@idAFEntity_VehicleFourWheels@@UBEPAVidTypeInfo@@XZ 101300c0 f   AFEntity.obj
 0001:0012f0d0       ?GetType@idAFEntity_VehicleSimple@@UBEPAVidTypeInfo@@XZ 101300d0 f   AFEntity.obj
 0001:0012f0e0       ?GetType@idAFEntity_VehicleSixWheels@@UBEPAVidTypeInfo@@XZ 101300e0 f   AFEntity.obj
 0001:0012f0f0       ?GetType@idAFEntity_WithAttachedHead@@UBEPAVidTypeInfo@@XZ 101300f0 f   AFEntity.obj
 0001:0012f100       ?GetType@idChain@@UBEPAVidTypeInfo@@XZ 10130100 f   AFEntity.obj
 0001:0012f110       ?GetType@idHarvestable@@UBEPAVidTypeInfo@@XZ 10130110 f   AFEntity.obj
 0001:0012f120       ?GetType@idMultiModelAF@@UBEPAVidTypeInfo@@XZ 10130120 f   AFEntity.obj
 0001:0012f130       ?Gib@idAFEntity_Gibbable@@MAEXABVidVec3@@PBD@Z 10130130 f   AFEntity.obj
 0001:0012f280       ?Gib@idAFEntity_Harvest@@UAEXABVidVec3@@PBD@Z 10130280 f   AFEntity.obj
 0001:0012f3d0       ?Gib@idAFEntity_WithAttachedHead@@MAEXABVidVec3@@PBD@Z 101303d0 f   AFEntity.obj
 0001:0012f550       ?Gib@idHarvestable@@QAEXXZ 10130550 f   AFEntity.obj
 0001:0012f660       ?Hide@idAFAttachment@@UAEXXZ 10130660 f   AFEntity.obj
 0001:0012f680       ?Hide@idAFEntity_WithAttachedHead@@UAEXXZ 10130680 f   AFEntity.obj
 0001:0012f6c0       ?Init@idHarvestable@@QAEXPAVidEntity@@@Z 101306c0 f   AFEntity.obj
 0001:0012fa10       ?InitSkeletonModel@idAFEntity_Gibbable@@IAEXXZ 10130a10 f   AFEntity.obj
 0001:0012fae0       ?InitSteamRenderEntity@idAFEntity_SteamPipe@@AAEXXZ 10130ae0 f   AFEntity.obj
 0001:0012fcd0       ?LinkCombat@idAFAttachment@@UAEXXZ 10130cd0 f   AFEntity.obj
 0001:0012fd10       ?LinkCombat@idAFEntity_Base@@UAEXXZ 10130d10 f   AFEntity.obj
 0001:0012fd50       ?LinkCombat@idAFEntity_WithAttachedHead@@UAEXXZ 10130d50 f   AFEntity.obj
 0001:0012fdc0       ?LoadAF@idAFEntity_Base@@UAE_NXZ 10130dc0 f   AFEntity.obj
 0001:0012ff40       ?PlayIdleAnim@idAFAttachment@@QAEXH@Z 10130f40 f   AFEntity.obj
 0001:0012ff90       ?Present@idAFEntity_Gibbable@@UAEXXZ 10130f90 f   AFEntity.obj
 0001:001301f0       ?Present@idMultiModelAF@@UAEXXZ 101311f0 f   AFEntity.obj
 0001:00130310       ?ProjectOverlay@idAFEntity_WithAttachedHead@@UAEXABVidVec3@@0MPBD@Z 10131310 f   AFEntity.obj
 0001:00130380       ?RemoveBindConstraints@idAFEntity_Base@@QAEXXZ 10131380 f   AFEntity.obj
 0001:00130390       ?Restore@idAFAttachment@@QAEXPAVidRestoreGame@@@Z 10131390 f   AFEntity.obj
 0001:001303e0       ?Restore@idAFEntity_Base@@QAEXPAVidRestoreGame@@@Z 101313e0 f   AFEntity.obj
 0001:00130450       ?Restore@idAFEntity_ClawFourFingers@@QAEXPAVidRestoreGame@@@Z 10131450 f   AFEntity.obj
 0001:00130530       ?Restore@idAFEntity_Generic@@QAEXPAVidRestoreGame@@@Z 10131530 f   AFEntity.obj
 0001:00130550       ?Restore@idAFEntity_Gibbable@@QAEXPAVidRestoreGame@@@Z 10131550 f   AFEntity.obj
 0001:001305b0       ?Restore@idAFEntity_Harvest@@QAEXPAVidRestoreGame@@@Z 101315b0 f   AFEntity.obj
 0001:001305d0       ?Restore@idAFEntity_SteamPipe@@QAEXPAVidRestoreGame@@@Z 101315d0 f   AFEntity.obj
 0001:001305e0       ?Restore@idAFEntity_WithAttachedHead@@QAEXPAVidRestoreGame@@@Z 101315e0 f   AFEntity.obj
 0001:00130600       ?Restore@idHarvestable@@QAEXPAVidRestoreGame@@@Z 10131600 f   AFEntity.obj
 0001:001306b0       ?Save@idAFAttachment@@QBEXPAVidSaveGame@@@Z 101316b0 f   AFEntity.obj
 0001:001306f0       ?Save@idAFEntity_Base@@QBEXPAVidSaveGame@@@Z 101316f0 f   AFEntity.obj
 0001:00130750       ?Save@idAFEntity_ClawFourFingers@@QBEXPAVidSaveGame@@@Z 10131750 f   AFEntity.obj
 0001:00130780       ?Save@idAFEntity_Generic@@QBEXPAVidSaveGame@@@Z 10131780 f   AFEntity.obj
 0001:001307a0       ?Save@idAFEntity_Gibbable@@QBEXPAVidSaveGame@@@Z 101317a0 f   AFEntity.obj
 0001:001307e0       ?Save@idAFEntity_Harvest@@QBEXPAVidSaveGame@@@Z 101317e0 f   AFEntity.obj
 0001:00130800       ?Save@idAFEntity_WithAttachedHead@@QBEXPAVidSaveGame@@@Z 10131800 f   AFEntity.obj
 0001:00130820       ?Save@idHarvestable@@QBEXPAVidSaveGame@@@Z 10131820 f   AFEntity.obj
 0001:001308e0       ?SaveState@idAFEntity_Base@@QBEXAAVidDict@@@Z 101318e0 f   AFEntity.obj
 0001:001309b0       ?SetBody@idAFAttachment@@QAEXPAVidEntity@@PBDW4jointHandle_t@@@Z 101319b0 f   AFEntity.obj
 0001:00130a30       ?SetCombatContents@idAFEntity_Base@@QAEX_N@Z 10131a30 f   AFEntity.obj
 0001:00130a80       ?SetCombatModel@idAFAttachment@@QAEXXZ 10131a80 f   AFEntity.obj
 0001:00130b10       ?SetCombatModel@idAFEntity_Base@@QAEXXZ 10131b10 f   AFEntity.obj
 0001:00130ba0       ?SetModelForId@idMultiModelAF@@IAEXHABVidStr@@@Z 10131ba0 f   AFEntity.obj
 0001:00130d30       ?SetThrown@idAFEntity_Gibbable@@QAEX_N@Z 10131d30 f   AFEntity.obj
 0001:00130da0       ?SetupHead@idAFEntity_WithAttachedHead@@QAEXXZ 10131da0 f   AFEntity.obj
 0001:00131070       ?Show@idAFAttachment@@UAEXXZ 10132070 f   AFEntity.obj
 0001:00131090       ?Show@idAFEntity_WithAttachedHead@@UAEXXZ 10132090 f   AFEntity.obj
 0001:001310d0       ?ShowEditingDialog@idAFEntity_Base@@UAEXXZ 101320d0 f   AFEntity.obj
 0001:001310f0       ?Spawn@idAFAttachment@@QAEXXZ 101320f0 f   AFEntity.obj
 0001:00131110       ?Spawn@idAFEntity_Base@@QAEXXZ 10132110 f   AFEntity.obj
 0001:001311b0       ?Spawn@idAFEntity_ClawFourFingers@@QAEXXZ 101321b0 f   AFEntity.obj
 0001:00131230       ?Spawn@idAFEntity_Generic@@QAEXXZ 10132230 f   AFEntity.obj
 0001:001312c0       ?Spawn@idAFEntity_Gibbable@@QAEXXZ 101322c0 f   AFEntity.obj
 0001:001312e0       ?Spawn@idAFEntity_Harvest@@QAEXXZ 101322e0 f   AFEntity.obj
 0001:001312f0       ?Spawn@idAFEntity_SteamPipe@@QAEXXZ 101322f0 f   AFEntity.obj
 0001:00131470       ?Spawn@idAFEntity_Vehicle@@QAEXXZ 10132470 f   AFEntity.obj
 0001:001315d0       ?Spawn@idAFEntity_VehicleAutomated@@QAEXXZ 101325d0 f   AFEntity.obj
 0001:00131690       ?Spawn@idAFEntity_VehicleFourWheels@@QAEXXZ 10132690 f   AFEntity.obj
 0001:00131870       ?Spawn@idAFEntity_VehicleSimple@@QAEXXZ 10132870 f   AFEntity.obj
 0001:00131b90       ?Spawn@idAFEntity_VehicleSixWheels@@QAEXXZ 10132b90 f   AFEntity.obj
 0001:00131d60       ?Spawn@idAFEntity_WithAttachedHead@@QAEXXZ 10132d60 f   AFEntity.obj
 0001:00131e50       ?Spawn@idChain@@QAEXXZ     10132e50 f   AFEntity.obj
 0001:001320d0       ?Spawn@idHarvestable@@QAEXXZ 101330d0 f   AFEntity.obj
 0001:001321f0       ?Spawn@idMultiModelAF@@QAEXXZ 101331f0 f   AFEntity.obj
 0001:00132210       ?SpawnGibs@idAFEntity_Gibbable@@UAEXABVidVec3@@PBD@Z 10133210 f   AFEntity.obj
 0001:001325e0       ?Think@idAFAttachment@@UAEXXZ 101335e0 f   AFEntity.obj
 0001:00132600       ?Think@idAFEntity_Base@@UAEXXZ 10133600 f   AFEntity.obj
 0001:00132600       ?Think@idAFEntity_Harvest@@UAEXXZ 10133600 f   AFEntity.obj
 0001:00132600       ?Think@idAFEntity_WithAttachedHead@@UAEXXZ 10133600 f   AFEntity.obj
 0001:00132630       ?Think@idAFEntity_Generic@@UAEXXZ 10133630 f   AFEntity.obj
 0001:00132670       ?Think@idAFEntity_SteamPipe@@UAEXXZ 10133670 f   AFEntity.obj
 0001:00132830       ?Think@idAFEntity_VehicleAutomated@@UAEXXZ 10133830 f   AFEntity.obj
 0001:00132ce0       ?Think@idAFEntity_VehicleFourWheels@@UAEXXZ 10133ce0 f   AFEntity.obj
 0001:00133200       ?Think@idAFEntity_VehicleSimple@@UAEXXZ 10134200 f   AFEntity.obj
 0001:001337e0       ?Think@idAFEntity_VehicleSixWheels@@UAEXXZ 101347e0 f   AFEntity.obj
 0001:00133dc0       ?Think@idHarvestable@@UAEXXZ 10134dc0 f   AFEntity.obj
 0001:00133f80       ?ClientPredictionThink@idEntity@@UAEXXZ 10134f80 f   Entity.obj
 0001:00133f80       ?Think@idEntity@@UAEXXZ    10134f80 f   Entity.obj
 0001:00133f80       ?Think@idMultiModelAF@@UAEXXZ 10134f80 f   AFEntity.obj
 0001:00133f90       ?UnlinkCombat@idAFAttachment@@UAEXXZ 10134f90 f   AFEntity.obj
 0001:00133fa0       ?UnlinkCombat@idAFEntity_Base@@UAEXXZ 10134fa0 f   AFEntity.obj
 0001:00133fb0       ?UnlinkCombat@idAFEntity_WithAttachedHead@@UAEXXZ 10134fb0 f   AFEntity.obj
 0001:00134000       ?UpdateAnimationControllers@idAFEntity_Base@@UAE_NXZ 10135000 f   AFEntity.obj
 0001:00134020       ?Use@idAFEntity_Vehicle@@QAEXPAVidPlayer@@@Z 10135020 f   AFEntity.obj
 0001:00134180       ?Event_Activate@idBrittleFracture@@AAEXPAVidEntity@@@Z 10135180 f   BrittleFracture.obj
 0001:001341b0       ?Event_Touch@idBrittleFracture@@AAEXPAVidEntity@@PAUtrace_s@@@Z 101351b0 f   BrittleFracture.obj
 0001:00134290       ??0shard_s@@QAE@XZ         10135290 f i BrittleFracture.obj
 0001:00134380       ??1idBrittleFracture@@UAE@XZ 10135380 f   BrittleFracture.obj
 0001:00134590       ??_EidBrittleFracture@@UAEPAXI@Z 10135590 f i BrittleFracture.obj
 0001:00134590       ??_GidBrittleFracture@@UAEPAXI@Z 10135590 f i BrittleFracture.obj
 0001:001345d0       ??_Gshard_s@@QAEPAXI@Z     101355d0 f i BrittleFracture.obj
 0001:001346b0       ?AddDamageEffect@idBrittleFracture@@UAEXABUtrace_s@@ABVidVec3@@PBD@Z 101356b0 f   BrittleFracture.obj
 0001:001346e0       ?AddForce@idBrittleFracture@@UAEXPAVidEntity@@HABVidVec3@@1@Z 101356e0 f   BrittleFracture.obj
 0001:00134750       ?AddShard@idBrittleFracture@@AAEXPAVidClipModel@@AAVidFixedWinding@@@Z 10135750 f   BrittleFracture.obj
 0001:00134940       ?ApplyImpulse@idBrittleFracture@@UAEXPAVidEntity@@HABVidVec3@@1@Z 10135940 f   BrittleFracture.obj
 0001:001349b0       ?ClientPredictionThink@idBrittleFracture@@UAEXXZ 101359b0 f   BrittleFracture.obj
 0001:001349b0       ?ClientPredictionThink@idItem@@UAEXXZ 101359b0 f   Item.obj
 0001:001349c0       ?ClientReceiveEvent@idBrittleFracture@@UAE_NHHABVidBitMsg@@@Z 101359c0 f   BrittleFracture.obj
 0001:00134ae0       ?CreateFractures@idBrittleFracture@@AAEXPBVidRenderModel@@@Z 10135ae0 f   BrittleFracture.obj
 0001:00134f70       ?CreateInstance@idBrittleFracture@@SAPAVidClass@@XZ 10135f70 f   BrittleFracture.obj
 0001:00135190       ?DeleteContents@?$idList@PAVidFixedWinding@@@@QAEX_N@Z 10136190 f i BrittleFracture.obj
 0001:00135190       ?DeleteContents@?$idList@PAVidMapPrimitive@@@@QAEX_N@Z 10136190 f i idLib:MapFile.obj
 0001:00135210       ?DropFloatingIslands@idBrittleFracture@@AAEXABVidVec3@@0H@Z 10136210 f   BrittleFracture.obj
 0001:001353e0       ?DropShard@idBrittleFracture@@AAEXPAUshard_s@@ABVidVec3@@1MH@Z 101363e0 f   BrittleFracture.obj
 0001:001358b0       ?FindNeighbours@idBrittleFracture@@AAEXXZ 101368b0 f   BrittleFracture.obj
 0001:001361e0       ?Fracture_r@idBrittleFracture@@AAEXAAVidFixedWinding@@@Z 101371e0 f   BrittleFracture.obj
 0001:00136850       ?GetType@idBrittleFracture@@UBEPAVidTypeInfo@@XZ 10137850 f   BrittleFracture.obj
 0001:00136860       ?Killed@idBrittleFracture@@UAEXPAVidEntity@@0HABVidVec3@@H@Z 10137860 f   BrittleFracture.obj
 0001:001368a0       ?ModelCallback@idBrittleFracture@@CA_NPAUrenderEntity_s@@PBUrenderView_s@@@Z 101378a0 f   BrittleFracture.obj
 0001:001368e0       ?Present@idBrittleFracture@@UAEXXZ 101378e0 f   BrittleFracture.obj
 0001:00136a40       ?ProjectDecal@idBrittleFracture@@QAEXABVidVec3@@0HPBD@Z 10137a40 f   BrittleFracture.obj
 0001:00137300       ?Resize@?$idList@_N@@QAEXH@Z 10138300 f i BrittleFracture.obj
 0001:00137380       ?Restore@idBrittleFracture@@QAEXPAVidRestoreGame@@@Z 10138380 f   BrittleFracture.obj
 0001:001378e0       ?Save@idBrittleFracture@@QBEXPAVidSaveGame@@@Z 101388e0 f   BrittleFracture.obj
 0001:00137c40       ?Shatter@idBrittleFracture@@AAEXABVidVec3@@0H@Z 10138c40 f   BrittleFracture.obj
 0001:00137ee0       ?Spawn@idBrittleFracture@@QAEXXZ 10138ee0 f   BrittleFracture.obj
 0001:00138340       ?Think@idBrittleFracture@@UAEXXZ 10139340 f   BrittleFracture.obj
 0001:00138640       ?UpdateRenderEntity@idBrittleFracture@@ABE_NPAUrenderEntity_s@@PBUrenderView_s@@@Z 10139640 f   BrittleFracture.obj
 0001:00139520       ?Event_Activate@idCameraView@@IAEXPAVidEntity@@@Z 1013a520 f   Camera.obj
 0001:001395e0       ?Event_SetAttachments@idCameraView@@IAEXXZ 1013a5e0 f   Camera.obj
 0001:00139680       ?Event_Start@idCameraAnim@@AAEXXZ 1013a680 f   Camera.obj
 0001:00139690       ?Event_SetCallback@idCameraAnim@@AAEXXZ 1013a690 f   Camera.obj
 0001:001396e0       ?Event_Activate@idCameraAnim@@AAEXPAVidEntity@@@Z 1013a6e0 f   Camera.obj
 0001:00139720       ??_EidCameraAnim@@UAEPAXI@Z 1013a720 f i Camera.obj
 0001:00139720       ??_GidCameraAnim@@UAEPAXI@Z 1013a720 f i Camera.obj
 0001:00139820       ??_EidCameraView@@UAEPAXI@Z 1013a820 f i Camera.obj
 0001:00139820       ??_EidFuncSmoke@@UAEPAXI@Z 1013a820 f i Misc.obj
 0001:00139820       ??_EidObjectiveComplete@@UAEPAXI@Z 1013a820 f i Item.obj
 0001:00139820       ??_EidTarget_Tip@@UAEPAXI@Z 1013a820 f i Target.obj
 0001:00139820       ??_GidCameraView@@UAEPAXI@Z 1013a820 f i Camera.obj
 0001:00139820       ??_GidFuncSmoke@@UAEPAXI@Z 1013a820 f i Misc.obj
 0001:00139820       ??_GidObjectiveComplete@@UAEPAXI@Z 1013a820 f i Item.obj
 0001:00139820       ??_GidTarget_Tip@@UAEPAXI@Z 1013a820 f i Target.obj
 0001:00139860       ?CreateInstance@idCamera@@SAPAVidClass@@XZ 1013a860 f   Camera.obj
 0001:00139880       ?CreateInstance@idCameraAnim@@SAPAVidClass@@XZ 1013a880 f   Camera.obj
 0001:001399d0       ?CreateInstance@idCameraView@@SAPAVidClass@@XZ 1013a9d0 f   Camera.obj
 0001:00139aa0       ?GetRenderView@idCamera@@UAEPAUrenderView_s@@XZ 1013aaa0 f   Camera.obj
 0001:00139ac0       ?GetType@idCameraAnim@@UBEPAVidTypeInfo@@XZ 1013aac0 f   Camera.obj
 0001:00139ad0       ?GetType@idCameraView@@UBEPAVidTypeInfo@@XZ 1013aad0 f   Camera.obj
 0001:00139ae0       ?GetViewParms@idCameraAnim@@UAEXPAUrenderView_s@@@Z 1013aae0 f   Camera.obj
 0001:0013a210       ?GetViewParms@idCameraView@@UAEXPAUrenderView_s@@@Z 1013b210 f   Camera.obj
 0001:0013a340       ?LoadAnim@idCameraAnim@@AAEXXZ 1013b340 f   Camera.obj
 0001:0013a7f0       ?Resize@?$idList@UcameraFrame_t@@@@QAEXH@Z 1013b7f0 f i Camera.obj
 0001:0013a8c0       ?Restore@idCameraAnim@@QAEXPAVidRestoreGame@@@Z 1013b8c0 f   Camera.obj
 0001:0013a930       ?Restore@idCameraView@@QAEXPAVidRestoreGame@@@Z 1013b930 f   Camera.obj
 0001:0013a970       ?Save@idCameraAnim@@QBEXPAVidSaveGame@@@Z 1013b970 f   Camera.obj
 0001:0013a9d0       ?Save@idCameraView@@QBEXPAVidSaveGame@@@Z 1013b9d0 f   Camera.obj
 0001:0013aa10       ?Spawn@idCameraAnim@@QAEXXZ 1013ba10 f   Camera.obj
 0001:0013aab0       ?Spawn@idCameraView@@QAEXXZ 1013bab0 f   Camera.obj
 0001:0013ab70       ?Start@idCameraAnim@@AAEXXZ 1013bb70 f   Camera.obj
 0001:0013ac30       ?Stop@idCameraAnim@@EAEXXZ 1013bc30 f   Camera.obj
 0001:0013ace0       ?Stop@idCameraView@@UAEXXZ 1013bce0 f   Camera.obj
 0001:0013ad30       ?Think@idCameraAnim@@EAEXXZ 1013bd30 f   Camera.obj
 0001:0013adf0       ?Event_GetName@idEntity@@AAEXXZ 1013bdf0 f   Entity.obj
 0001:0013ae00       ?Event_SetName@idEntity@@AAEXPBD@Z 1013be00 f   Entity.obj
 0001:0013ae10       ?Event_FindTargets@idEntity@@AAEXXZ 1013be10 f   Entity.obj
 0001:0013ae20       ?Event_ActivateTargets@idEntity@@AAEXPAV1@@Z 1013be20 f   Entity.obj
 0001:0013ae30       ?Event_NumTargets@idEntity@@AAEXXZ 1013be30 f   Entity.obj
 0001:0013ae50       ?Event_GetTarget@idEntity@@AAEXM@Z 1013be50 f   Entity.obj
 0001:0013aea0       ?Event_RandomTarget@idEntity@@AAEXPBD@Z 1013bea0 f   Entity.obj
 0001:0013b020       ?Event_Bind@idEntity@@AAEXPAV1@@Z 1013c020 f   Entity.obj
 0001:0013b030       ?Event_BindPosition@idEntity@@AAEXPAV1@@Z 1013c030 f   Entity.obj
 0001:0013b040       ?Event_BindToJoint@idEntity@@AAEXPAV1@PBDM@Z 1013c040 f   Entity.obj
 0001:0013b070       ?Event_Unbind@idEntity@@AAEXXZ 1013c070 f   Entity.obj
 0001:0013b080       ?Event_RemoveBinds@idEntity@@AAEXXZ 1013c080 f   Entity.obj
 0001:0013b090       ?Event_SpawnBind@idEntity@@AAEXXZ 1013c090 f   Entity.obj
 0001:0013b320       ?Event_SetOwner@idEntity@@AAEXPAV1@@Z 1013c320 f   Entity.obj
 0001:0013b370       ?Event_SetModel@idEntity@@AAEXPBD@Z 1013c370 f   Entity.obj
 0001:0013b380       ?Event_SetSkin@idEntity@@AAEXPBD@Z 1013c380 f   Entity.obj
 0001:0013b3b0       ?Event_GetShaderParm@idEntity@@AAEXH@Z 1013c3b0 f   Entity.obj
 0001:0013b3f0       ?Event_SetShaderParm@idEntity@@AAEXHM@Z 1013c3f0 f   Entity.obj
 0001:0013b3f0       ?SetShaderParm@idEntity@@QAEXHM@Z 1013c3f0 f   Entity.obj
 0001:0013b440       ?Event_SetShaderParms@idEntity@@AAEXMMMM@Z 1013c440 f   Entity.obj
 0001:0013b490       ?Event_SetColor@idEntity@@AAEXMMM@Z 1013c490 f   Entity.obj
 0001:0013b4c0       ?Event_GetColor@idEntity@@AAEXXZ 1013c4c0 f   Entity.obj
 0001:0013b4e0       ?Event_IsHidden@idEntity@@AAEXXZ 1013c4e0 f   Entity.obj
 0001:0013b500       ?Event_Hide@idEntity@@AAEXXZ 1013c500 f   Entity.obj
 0001:0013b500       ?Spawn@idExplodable@@QAEXXZ 1013c500 f   Misc.obj
 0001:0013b510       ?Event_Show@idEntity@@AAEXXZ 1013c510 f   Entity.obj
 0001:0013b520       ?Event_StartSoundShader@idEntity@@AAEXPBDH@Z 1013c520 f   Entity.obj
 0001:0013b600       ?Event_StopSound@idEntity@@AAEXHH@Z 1013c600 f   Entity.obj
 0001:0013b620       ?Event_StartSound@idEntity@@AAEXPBDHH@Z 1013c620 f   Entity.obj
 0001:0013b6b0       ?Event_FadeSound@idEntity@@AAEXHMM@Z 1013c6b0 f   Entity.obj
 0001:0013b6e0       ?Event_GetWorldOrigin@idEntity@@AAEXXZ 1013c6e0 f   Entity.obj
 0001:0013b700       ?Event_SetWorldOrigin@idEntity@@AAEXABVidVec3@@@Z 1013c700 f   Entity.obj
 0001:0013b740       ?Event_GetOrigin@idEntity@@AAEXXZ 1013c740 f   Entity.obj
 0001:0013b780       ?Event_SetOrigin@idEntity@@AAEXABVidVec3@@@Z 1013c780 f   Entity.obj
 0001:0013b780       ?SetOrigin@idEntity@@QAEXABVidVec3@@@Z 1013c780 f   Entity.obj
 0001:0013b7b0       ?Event_GetAngles@idEntity@@AAEXXZ 1013c7b0 f   Entity.obj
 0001:0013b7f0       ?Event_SetAngles@idEntity@@AAEXABVidAngles@@@Z 1013c7f0 f   Entity.obj
 0001:0013b7f0       ?SetAngles@idEntity@@QAEXABVidAngles@@@Z 1013c7f0 f   Entity.obj
 0001:0013b820       ?Event_SetLinearVelocity@idEntity@@AAEXABVidVec3@@@Z 1013c820 f   Entity.obj
 0001:0013b840       ?Event_GetLinearVelocity@idEntity@@AAEXXZ 1013c840 f   Entity.obj
 0001:0013b860       ?Event_SetAngularVelocity@idEntity@@AAEXABVidVec3@@@Z 1013c860 f   Entity.obj
 0001:0013b880       ?Event_GetAngularVelocity@idEntity@@AAEXXZ 1013c880 f   Entity.obj
 0001:0013b8a0       ?Event_SetSize@idEntity@@AAEXABVidVec3@@0@Z 1013c8a0 f   Entity.obj
 0001:0013b910       ?Event_GetSize@idEntity@@AAEXXZ 1013c910 f   Entity.obj
 0001:0013b960       ?Event_GetMins@idEntity@@AAEXXZ 1013c960 f   Entity.obj
 0001:0013b980       ?Event_GetMaxs@idEntity@@AAEXXZ 1013c980 f   Entity.obj
 0001:0013b9a0       ?Event_Touches@idEntity@@AAEXPAV1@@Z 1013c9a0 f   Entity.obj
 0001:0013ba40       ?Event_SetGuiParm@idEntity@@AAEXPBD0@Z 1013ca40 f   Entity.obj
 0001:0013bac0       ?Event_SetGuiFloat@idEntity@@AAEXPBDM@Z 1013cac0 f   Entity.obj
 0001:0013bb20       ?Event_GetNextKey@idEntity@@AAEXPBD0@Z 1013cb20 f   Entity.obj
 0001:0013bb70       ?Event_SetKey@idEntity@@AAEXPBD0@Z 1013cb70 f   Entity.obj
 0001:0013bba0       ?Event_GetKey@idEntity@@AAEXPBD@Z 1013cba0 f   Entity.obj
 0001:0013bbd0       ?Event_GetIntKey@idEntity@@AAEXPBD@Z 1013cbd0 f   Entity.obj
 0001:0013bc00       ?Event_GetFloatKey@idEntity@@AAEXPBD@Z 1013cc00 f   Entity.obj
 0001:0013bc30       ?Event_GetVectorKey@idEntity@@AAEXPBD@Z 1013cc30 f   Entity.obj
 0001:0013bc60       ?Event_GetEntityKey@idEntity@@AAEXPBD@Z 1013cc60 f   Entity.obj
 0001:0013bcd0       ?Event_RestorePosition@idEntity@@AAEXXZ 1013ccd0 f   Entity.obj
 0001:0013be30       ?Event_UpdateCameraTarget@idEntity@@AAEXXZ 1013ce30 f   Entity.obj
 0001:0013bfb0       ?Event_DistanceTo@idEntity@@AAEXPAV1@@Z 1013cfb0 f   Entity.obj
 0001:0013c090       ?Event_DistanceToPoint@idEntity@@AAEXABVidVec3@@@Z 1013d090 f   Entity.obj
 0001:0013c130       ?Event_StartFx@idEntity@@AAEXPBD@Z 1013d130 f   Entity.obj
 0001:0013c150       ?Event_WaitFrame@idEntity@@AAEXXZ 1013d150 f   Entity.obj
 0001:0013c170       ?Event_Wait@idEntity@@AAEXM@Z 1013d170 f   Entity.obj
 0001:0013c1b0       ?Event_HasFunction@idEntity@@AAEXPBD@Z 1013d1b0 f   Entity.obj
 0001:0013c1d0       ?Event_CallFunction@idEntity@@AAEXPBD@Z 1013d1d0 f   Entity.obj
 0001:0013c2a0       ?Event_SetNeverDormant@idEntity@@AAEXH@Z 1013d2a0 f   Entity.obj
 0001:0013c2d0       ?Event_SetGui@idEntity@@AAEXHPBD@Z 1013d2d0 f   Entity.obj
 0001:0013c360       ?Event_PrecacheGui@idEntity@@AAEXPBD@Z 1013d360 f   Entity.obj
 0001:0013c380       ?Event_GetGuiParm@idEntity@@AAEXHPBD@Z 1013d380 f   Entity.obj
 0001:0013c3c0       ?Event_GetGuiParmFloat@idEntity@@AAEXHPBD@Z 1013d3c0 f   Entity.obj
 0001:0013c410       ?Event_GuiNamedEvent@idEntity@@AAEXHPBD@Z 1013d410 f   Entity.obj
 0001:0013c430       ?Event_ResetGravity@idEntity@@AAEXXZ 1013d430 f   Entity.obj
 0001:0013c450       ?Event_EndTransporterMaterialShaderEffect@idEntity@@AAEXXZ 1013d450 f   Entity.obj
 0001:0013c460       ?Event_GetJointHandle@idAnimatedEntity@@AAEXPBD@Z 1013d460 f   Entity.obj
 0001:0013c480       ?Event_ClearAllJoints@idAnimatedEntity@@AAEXXZ 1013d480 f   Entity.obj
 0001:0013c490       ?Event_ClearJoint@idAnimatedEntity@@AAEXW4jointHandle_t@@@Z 1013d490 f   Entity.obj
 0001:0013c4a0       ?Event_SetJointPos@idAnimatedEntity@@AAEXW4jointHandle_t@@W4jointModTransform_t@@ABVidVec3@@@Z 1013d4a0 f   Entity.obj
 0001:0013c4b0       ?Event_SetJointAngle@idAnimatedEntity@@AAEXW4jointHandle_t@@W4jointModTransform_t@@ABVidAngles@@@Z 1013d4b0 f   Entity.obj
 0001:0013c550       ?Event_GetJointPos@idAnimatedEntity@@AAEXW4jointHandle_t@@@Z 1013d550 f   Entity.obj
 0001:0013c5a0       ?Event_GetJointAngle@idAnimatedEntity@@AAEXW4jointHandle_t@@@Z 1013d5a0 f   Entity.obj
 0001:0013c620       ??0?$idCurve_BSpline@VidVec3@@@@QAE@XZ 1013d620 f i Entity.obj
 0001:0013c690       ??0?$idCurve_NonUniformBSpline@VidVec3@@@@QAE@XZ 1013d690 f i Entity.obj
 0001:0013c700       ??0idAnimatedEntity@@QAE@XZ 1013d700 f   Entity.obj
 0001:0013c770       ??0idEntity@@QAE@XZ        1013d770 f   Entity.obj
 0001:0013c9c0       ??1?$idCurve@VidVec3@@@@UAE@XZ 1013d9c0 f i Entity.obj
 0001:0013ca20       ??1idAnimatedEntity@@UAE@XZ 1013da20 f   Entity.obj
 0001:0013ca70       ??1idEntity@@UAE@XZ        1013da70 f   Entity.obj
 0001:0013cdc0       ??_E?$idCurve@VidVec3@@@@UAEPAXI@Z 1013ddc0 f i Entity.obj
 0001:0013cdc0       ??_G?$idCurve@VidVec3@@@@UAEPAXI@Z 1013ddc0 f i Entity.obj
 0001:0013cde0       ??_E?$idCurve_BSpline@VidVec3@@@@UAEPAXI@Z 1013dde0 f i Entity.obj
 0001:0013cde0       ??_E?$idCurve_NonUniformBSpline@VidVec3@@@@UAEPAXI@Z 1013dde0 f i Entity.obj
 0001:0013cde0       ??_G?$idCurve_BSpline@VidVec3@@@@UAEPAXI@Z 1013dde0 f i Entity.obj
 0001:0013cde0       ??_G?$idCurve_NonUniformBSpline@VidVec3@@@@UAEPAXI@Z 1013dde0 f i Entity.obj
 0001:0013ce00       ??_E?$idCurve_CatmullRomSpline@VidVec3@@@@UAEPAXI@Z 1013de00 f i Entity.obj
 0001:0013ce00       ??_G?$idCurve_CatmullRomSpline@VidVec3@@@@UAEPAXI@Z 1013de00 f i Entity.obj
 0001:0013ce20       ??_E?$idCurve_NURBS@VidVec3@@@@UAEPAXI@Z 1013de20 f i Entity.obj
 0001:0013ce20       ??_G?$idCurve_NURBS@VidVec3@@@@UAEPAXI@Z 1013de20 f i Entity.obj
 0001:0013ce70       ??_EidAnimatedEntity@@UAEPAXI@Z 1013de70 f i Entity.obj
 0001:0013ce70       ??_GidAnimatedEntity@@UAEPAXI@Z 1013de70 f i Entity.obj
 0001:0013cef0       ?ActivateGuis@idEntity@@UAEX_NH@Z 1013def0 f   Entity.obj
 0001:0013cf30       ?ActivateGuisIfNotActive@idEntity@@UAEX_NH@Z 1013df30 f   Entity.obj
 0001:0013cf80       ?ActivatePhysics@idEntity@@UAEXPAV1@@Z 1013df80 f   Entity.obj
 0001:0013cf90       ?ActivateTargets@idEntity@@QBEXPAV1@@Z 1013df90 f   Entity.obj
 0001:0013d050       ?AddContactEntity@idEntity@@UAEXPAV1@@Z 1013e050 f   Entity.obj
 0001:0013d060       ?AddDamageEffect@idAnimatedEntity@@UAEXABUtrace_s@@ABVidVec3@@PBD@Z 1013e060 f   Entity.obj
 0001:0013d540       ?AddDamageEffect@idEntity@@UAEXABUtrace_s@@ABVidVec3@@PBD@Z 1013e540 f   Entity.obj
 0001:0013d710       ?AddForce@idEntity@@UAEXPAV1@HABVidVec3@@1@Z 1013e710 f   Entity.obj
 0001:0013d730       ?AddLocalDamageEffect@idAnimatedEntity@@QAEXW4jointHandle_t@@ABVidVec3@@11PBVidDeclEntityDef@@PBVidMaterial@@@Z 1013e730 f   Entity.obj
 0001:0013de10       ?AddValue@?$idCurve@VidVec3@@@@UAEHMABVidVec3@@@Z 1013ee10 f i Entity.obj
 0001:0013de50       ?AddValue@?$idCurve_NURBS@VidVec3@@@@UAEHMABVidVec3@@@Z 1013ee50 f i Entity.obj
 0001:0013dea0       ?AddValue@?$idCurve_NURBS@VidVec3@@@@UAEHMABVidVec3@@M@Z 1013eea0 f i Entity.obj
 0001:0013def0       ?ApplyImpulse@idEntity@@UAEXPAV1@HABVidVec3@@1@Z 1013eef0 f   Entity.obj
 0001:0013df10       ?Basis@?$idCurve_BSpline@VidVec3@@@@IBEMHHM@Z 1013ef10 f i Entity.obj
 0001:0013e090       ?Basis@?$idCurve_NonUniformBSpline@VidVec3@@@@IBEXHHMPAM@Z 1013f090 f i Entity.obj
 0001:0013e380       ?BasisFirstDerivative@?$idCurve_NonUniformBSpline@VidVec3@@@@IBEXHHMPAM@Z 1013f380 f i Entity.obj
 0001:0013e620       ?BasisSecondDerivative@?$idCurve_NonUniformBSpline@VidVec3@@@@IBEXHHMPAM@Z 1013f620 f i Entity.obj
 0001:0013e8c0       ?BecomeActive@idEntity@@QAEXH@Z 1013f8c0 f   Entity.obj
 0001:0013e990       ?BecomeInactive@idEntity@@QAEXH@Z 1013f990 f   Entity.obj
 0001:0013ea40       ?BeginTransporterMaterialShaderEffect@idEntity@@UAEXABVidVec3@@@Z 1013fa40 f   Entity.obj
 0001:0013eac0       ?Bind@idEntity@@QAEXPAV1@_N@Z 1013fac0 f   Entity.obj
 0001:0013eb90       ?BindToBody@idEntity@@QAEXPAV1@H_N@Z 1013fb90 f   Entity.obj
 0001:0013ec80       ?BindToJoint@idEntity@@QAEXPAV1@PBD_N@Z 1013fc80 f   Entity.obj
 0001:0013eda0       ?BindToJoint@idEntity@@QAEXPAV1@W4jointHandle_t@@_N@Z 1013fda0 f   Entity.obj
 0001:0013ee70       ?CanDamage@idEntity@@UBE_NABVidVec3@@AAV2@@Z 1013fe70 f   Entity.obj
 0001:0013f2a0       ?CheckDormant@idEntity@@QAE_NXZ 101402a0 f   Entity.obj
 0001:0013f350       ?Clear@?$idCurve@VidVec3@@@@UAEXXZ 10140350 f i Entity.obj
 0001:0013f3b0       ?Clear@?$idCurve_NURBS@VidVec3@@@@UAEXXZ 101403b0 f i Entity.obj
 0001:0013f430       ?ClearSignalThread@idEntity@@QAEXW4signalNum_t@@PAVidThread@@@Z 10140430 f   Entity.obj
 0001:0013f4c0       ?ClientPredictionThink@idAnimatedEntity@@UAEXXZ 101404c0 f   Entity.obj
 0001:0013f4e0       ?ClientReceiveEvent@idAnimatedEntity@@UAE_NHHABVidBitMsg@@@Z 101404e0 f   Entity.obj
 0001:0013f790       ?ClientReceiveEvent@idEntity@@UAE_NHHABVidBitMsg@@@Z 10140790 f   Entity.obj
 0001:0013f910       ?ClientSendEvent@idEntity@@QBEXHPBVidBitMsg@@@Z 10140910 f   Entity.obj
 0001:0013fa00       ?ConstructScriptObject@idEntity@@UAEPAVidThread@@XZ 10140a00 f   Entity.obj
 0001:0013fab0       ?CreateInstance@idAnimatedEntity@@SAPAVidClass@@XZ 10140ab0 f   Entity.obj
 0001:0013fb80       ?CreateInstance@idEntity@@SAPAVidClass@@XZ 10140b80 f   Entity.obj
 0001:0013fba0       ?Damage@idEntity@@UAEXPAV1@0ABVidVec3@@PBDMH@Z 10140ba0 f   Entity.obj
 0001:0013fcb0       ?DeconstructScriptObject@idEntity@@UAEXXZ 10140cb0 f   Entity.obj
 0001:0013fd60       ?DetermineTimeGroup@idEntity@@QAEX_N@Z 10140d60 f   Entity.obj
 0001:0013fd90       ?EndTransporterMaterialShaderEffect@idEntity@@UAEXXZ 10140d90 f   Entity.obj
 0001:0013fe00       ?FindTargets@idEntity@@QAEXXZ 10140e00 f   Entity.obj
 0001:0013fe80       ?FinishBind@idEntity@@AAEXXZ 10140e80 f   Entity.obj
 0001:0013ffd0       ?FreeModelDef@idEntity@@UAEXXZ 10140fd0 f   Entity.obj
 0001:00140000       ?FreeSoundEmitter@idEntity@@QAEX_N@Z 10141000 f   Entity.obj
 0001:00140030       ?GetAnimator@idAnimatedEntity@@UAEPAVidAnimator@@XZ 10141030 f   Entity.obj
 0001:00140040       ?GetBindBody@idEntity@@QBEHXZ 10141040 f   Entity.obj
 0001:00140050       ?GetBindMaster@idEntity@@QBEPAV1@XZ 10141050 f   Entity.obj
 0001:00140060       ?GetCloseTime@?$idCurve_Spline@VidVec3@@@@UAEMXZ 10141060 f i Entity.obj
 0001:00140090       ?GetColor@idEntity@@UBEXAAVidVec3@@@Z 10141090 f   Entity.obj
 0001:001400c0       ?GetColor@idEntity@@UBEXAAVidVec4@@@Z 101410c0 f   Entity.obj
 0001:001400f0       ?GetCurrentFirstDerivative@?$idCurve@VidVec3@@@@UBE?AVidVec3@@M@Z 101410f0 f i Entity.obj
 0001:001400f0       ?GetCurrentSecondDerivative@?$idCurve@VidVec3@@@@UBE?AVidVec3@@M@Z 101410f0 f i Entity.obj
 0001:00140130       ?GetCurrentFirstDerivative@?$idCurve_BSpline@VidVec3@@@@UBE?AVidVec3@@M@Z 10141130 f i Entity.obj
 0001:00140490       ?GetCurrentFirstDerivative@?$idCurve_CatmullRomSpline@VidVec3@@@@UBE?AVidVec3@@M@Z 10141490 f i Entity.obj
 0001:001407f0       ?GetCurrentFirstDerivative@?$idCurve_NURBS@VidVec3@@@@UBE?AVidVec3@@M@Z 101417f0 f i Entity.obj
 0001:00140ca0       ?GetCurrentFirstDerivative@?$idCurve_NonUniformBSpline@VidVec3@@@@UBE?AVidVec3@@M@Z 10141ca0 f i Entity.obj
 0001:00140f80       ?GetCurrentSecondDerivative@?$idCurve_BSpline@VidVec3@@@@UBE?AVidVec3@@M@Z 10141f80 f i Entity.obj
 0001:001413a0       ?GetCurrentSecondDerivative@?$idCurve_CatmullRomSpline@VidVec3@@@@UBE?AVidVec3@@M@Z 101423a0 f i Entity.obj
 0001:001416e0       ?GetCurrentSecondDerivative@?$idCurve_NURBS@VidVec3@@@@UBE?AVidVec3@@M@Z 101426e0 f i Entity.obj
 0001:00141cb0       ?GetCurrentSecondDerivative@?$idCurve_NonUniformBSpline@VidVec3@@@@UBE?AVidVec3@@M@Z 10142cb0 f i Entity.obj
 0001:00141f90       ?GetCurrentValue@?$idCurve@VidVec3@@@@UBE?AVidVec3@@M@Z 10142f90 f i Entity.obj
 0001:00141ff0       ?GetCurrentValue@?$idCurve_BSpline@VidVec3@@@@UBE?AVidVec3@@M@Z 10142ff0 f i Entity.obj
 0001:00142410       ?GetCurrentValue@?$idCurve_CatmullRomSpline@VidVec3@@@@UBE?AVidVec3@@M@Z 10143410 f i Entity.obj
 0001:00142790       ?GetCurrentValue@?$idCurve_NURBS@VidVec3@@@@UBE?AVidVec3@@M@Z 10143790 f i Entity.obj
 0001:00142af0       ?GetCurrentValue@?$idCurve_NonUniformBSpline@VidVec3@@@@UBE?AVidVec3@@M@Z 10143af0 f i Entity.obj
 0001:00142da0       ?GetEntityDefName@idEntity@@QBEPBDXZ 10143da0 f   Entity.obj
 0001:00142dd0       ?GetFloorPos@idEntity@@QBE_NMAAVidVec3@@@Z 10143dd0 f   Entity.obj
 0001:00142f00       ?GetImpactInfo@idEntity@@UAEXPAV1@HABVidVec3@@PAUimpactInfo_s@@@Z 10143f00 f   Entity.obj
 0001:00142f20       ?GetJointTransformForAnim@idAnimatedEntity@@QBE_NW4jointHandle_t@@HHAAVidVec3@@AAVidMat3@@@Z 10143f20 f   Entity.obj
 0001:00143080       ?GetJointWorldTransform@idAnimatedEntity@@QAE_NW4jointHandle_t@@HAAVidVec3@@AAVidMat3@@@Z 10144080 f   Entity.obj
 0001:00143160       ?GetListenerId@idEntity@@QBEHXZ 10144160 f   Entity.obj
 0001:00143170       ?GetLocalCoordinates@idEntity@@QBE?AVidVec3@@ABV2@@Z 10144170 f   Entity.obj
 0001:00143260       ?GetLocalVector@idEntity@@QBE?AVidVec3@@ABV2@@Z 10144260 f   Entity.obj
 0001:00143330       ?GetMasterPosition@idEntity@@QBE_NAAVidVec3@@AAVidMat3@@@Z 10144330 f   Entity.obj
 0001:00143610       ?GetModelDefHandle@idEntity@@UAEHXZ 10144610 f   Entity.obj
 0001:00143620       ?GetNextTeamEntity@idEntity@@QBEPAV1@XZ 10144620 f   Entity.obj
 0001:00143630       ?GetNumPVSAreas@idEntity@@QAEHXZ 10144630 f   Entity.obj
 0001:00143650       ?GetOrder@?$idCurve_BSpline@VidVec3@@@@UBEHXZ 10144650 f i Entity.obj
 0001:00143660       ?GetPVSAreas@idEntity@@QAEPBHXZ 10144660 f   Entity.obj
 0001:00143680       ?GetPhysics@idEntity@@QBEPAVidPhysics@@XZ 10144680 f   Entity.obj
 0001:00143690       ?GetPhysicsToSoundTransform@idEntity@@UAE_NAAVidVec3@@AAVidMat3@@@Z 10144690 f   Entity.obj
 0001:00143780       ?GetRenderEntity@idEntity@@UAEPAUrenderEntity_s@@XZ 10144780 f   Entity.obj
 0001:00143790       ?GetRenderView@idEntity@@UAEPAUrenderView_s@@XZ 10144790 f   Entity.obj
 0001:00143900       ?GetRestStartTime@idEntity@@UBEHXZ 10144900 f   Entity.obj
 0001:00143910       ?GetSoundEmitter@idEntity@@QBEPAVidSoundEmitter@@XZ 10144910 f   Entity.obj
 0001:00143920       ?GetSpline@idEntity@@QBEPAV?$idCurve_Spline@VidVec3@@@@XZ 10144920 f   Entity.obj
 0001:00143c00       ?GetString@idDict@@QBE_NPBD0PAPBD@Z 10144c00 f i Entity.obj
 0001:00143c30       ?GetTeamMaster@idEntity@@QBEPAV1@XZ 10144c30 f   Entity.obj
 0001:00143c40       ?GetType@idAnimatedEntity@@UBEPAVidTypeInfo@@XZ 10144c40 f   Entity.obj
 0001:00143c50       ?GetType@idEntity@@UBEPAVidTypeInfo@@XZ 10144c50 f   Entity.obj
 0001:00143c60       ?GetWorldCoordinates@idEntity@@QBE?AVidVec3@@ABV2@@Z 10144c60 f   Entity.obj
 0001:00143d50       ?GetWorldVector@idEntity@@QBE?AVidVec3@@ABV2@@Z 10144d50 f   Entity.obj
 0001:00143e30       ?HandleGuiCommands@idEntity@@QAE_NPAV1@PBD@Z 10144e30 f   Entity.obj
 0001:00144850       ?Hide@idEntity@@UAEXXZ     10145850 f   Entity.obj
 0001:00144880       ?InitDefaultPhysics@idEntity@@AAEXABVidVec3@@ABVidMat3@@@Z 10145880 f   Entity.obj
 0001:00144c40       ?Insert@?$idList@M@@QAEHABMH@Z 10145c40 f i Entity.obj
 0001:00144d40       ?Insert@?$idList@VidVec3@@@@QAEHABVidVec3@@H@Z 10145d40 f i Entity.obj
 0001:00144e00       ?IsActive@idEntity@@QBE_NXZ 10145e00 f   Entity.obj
 0001:00144e10       ?IsAtRest@idEntity@@UBE_NXZ 10145e10 f   Entity.obj
 0001:00144e20       ?IsBound@idEntity@@QBE_NXZ 10145e20 f   Entity.obj
 0001:00144e30       ?IsDone@?$idCurve@VidVec3@@@@UBE_NM@Z 10145e30 f i Entity.obj
 0001:00144e50       ?IsDone@?$idCurve_Spline@VidVec3@@@@UBE_NM@Z 10145e50 f i Entity.obj
 0001:00144e80       ?IsGrabbed@idEntity@@QAE_NXZ 10145e80 f   Entity.obj
 0001:00144e90       ?IsHidden@idEntity@@QBE_NXZ 10145e90 f   Entity.obj
 0001:00144ea0       ?JoinTeam@idEntity@@QAEXPAV1@@Z 10145ea0 f   Entity.obj
 0001:00144fc0       ?Killed@idEntity@@UAEXPAV1@0HABVidVec3@@H@Z 10145fc0 f   Entity.obj
 0001:00144fd0       ?ModelCallback@idEntity@@SA_NPAUrenderEntity_s@@PBUrenderView_s@@@Z 10145fd0 f   Entity.obj
 0001:00145030       ?Pain@idEntity@@UAE_NPAV1@0HABVidVec3@@H@Z 10146030 f   Entity.obj
 0001:00145040       ?ParseSpawnArgsToRefSound@idGameEdit@@UAEXPBVidDict@@PAUrefSound_t@@@Z 10146040 f   Entity.obj
 0001:001452b0       ?ParseSpawnArgsToRenderEntity@idGameEdit@@UAEXPBVidDict@@PAUrenderEntity_s@@@Z 101462b0 f   Entity.obj
 0001:00145830       ?PhysicsTeamInPVS@idEntity@@QAE_NUpvsHandle_s@@@Z 10146830 f   Entity.obj
 0001:001458f0       ?Present@idEntity@@UAEXXZ  101468f0 f   Entity.obj
 0001:00145980       ?ProjectOverlay@idEntity@@UAEXABVidVec3@@0MPBD@Z 10146980 f   Entity.obj
 0001:00146040       ?QuitTeam@idEntity@@IAEXXZ 10147040 f   Entity.obj
 0001:00146110       ?ReadBindFromSnapshot@idEntity@@QAEXABVidBitMsgDelta@@@Z 10147110 f   Entity.obj
 0001:00146260       ?ReadColorFromSnapshot@idEntity@@QAEXABVidBitMsgDelta@@@Z 10147260 f   Entity.obj
 0001:001462a0       ?ReadGUIFromSnapshot@idEntity@@QAEXABVidBitMsgDelta@@@Z 101472a0 f   Entity.obj
 0001:001462f0       ?RemoveBinds@idEntity@@IAEXXZ 101472f0 f   Entity.obj
 0001:001464b0       ?RemoveContactEntity@idEntity@@UAEXPAV1@@Z 101474b0 f   Entity.obj
 0001:001464c0       ?RemoveIndex@?$idCurve@VidVec3@@@@UAEXH@Z 101474c0 f i Entity.obj
 0001:00146500       ?RemoveIndex@?$idCurve_NURBS@VidVec3@@@@UAEXH@Z 10147500 f i Entity.obj
 0001:00146570       ?RemoveIndex@?$idList@VidVec3@@@@QAE_NH@Z 10147570 f i Entity.obj
 0001:001465c0       ?RemoveNullTargets@idEntity@@QAEXXZ 101475c0 f   Entity.obj
 0001:00146630       ?Restore@idAnimatedEntity@@QAEXPAVidRestoreGame@@@Z 10147630 f   Entity.obj
 0001:001466b0       ?Restore@idEntity@@QAEXPAVidRestoreGame@@@Z 101476b0 f   Entity.obj
 0001:00146c00       ?RestorePhysics@idEntity@@QAEXPAVidPhysics@@@Z 10147c00 f   Entity.obj
 0001:00146c10       ?RunPhysics@idEntity@@QAE_NXZ 10147c10 f   Entity.obj
 0001:00146f90       ?Save@idAnimatedEntity@@QBEXPAVidSaveGame@@@Z 10147f90 f   Entity.obj
 0001:00146fa0       ?Save@idEntity@@QBEXPAVidSaveGame@@@Z 10147fa0 f   Entity.obj
 0001:001472a0       ?ScheduleEndTransporterMaterialShaderEffect@idEntity@@UAEXH@Z 101482a0 f   Entity.obj
 0001:001472c0       ?ServerReceiveEvent@idEntity@@UAE_NHHABVidBitMsg@@@Z 101482c0 f   Entity.obj
 0001:001472d0       ?ServerSendEvent@idEntity@@QBEXHPBVidBitMsg@@_NH@Z 101482d0 f   Entity.obj
 0001:00147400       ?SetAxis@idEntity@@QAEXABVidMat3@@@Z 10148400 f   Entity.obj
 0001:001474b0       ?SetBoundaryType@?$idCurve_Spline@VidVec3@@@@UAEXW4boundary_t@1@@Z 101484b0 f i Entity.obj
 0001:001474c0       ?SetCloseTime@?$idCurve_Spline@VidVec3@@@@UAEXM@Z 101484c0 f i Entity.obj
 0001:001474e0       ?SetColor@idEntity@@UAEXABVidVec3@@@Z 101484e0 f   Entity.obj
 0001:00147520       ?SetColor@idEntity@@UAEXABVidVec4@@@Z 10148520 f   Entity.obj
 0001:00147560       ?SetColor@idEntity@@UAEXMMM@Z 10148560 f   Entity.obj
 0001:001475a0       ?SetGrabbedState@idEntity@@QAEX_N@Z 101485a0 f   Entity.obj
 0001:001475c0       ?SetModel@idAnimatedEntity@@UAEXPBD@Z 101485c0 f   Entity.obj
 0001:00147730       ?SetModel@idEntity@@UAEXPBD@Z 10148730 f   Entity.obj
 0001:00147820       ?SetName@idEntity@@QAEXPBD@Z 10148820 f   Entity.obj
 0001:001478c0       ?SetOrder@?$idCurve_BSpline@VidVec3@@@@UAEXH@Z 101488c0 f i Entity.obj
 0001:001478d0       ?SetPhysics@idEntity@@QAEXPAVidPhysics@@@Z 101488d0 f   Entity.obj
 0001:00147960       ?SetSignal@idEntity@@QAEXW4signalNum_t@@PAVidThread@@PBVfunction_t@@@Z 10148960 f   Entity.obj
 0001:00147aa0       ?SetSkin@idEntity@@QAEXPBVidDeclSkin@@@Z 10148aa0 f   Entity.obj
 0001:00147ac0       ?SetSoundVolume@idEntity@@QAEXM@Z 10148ac0 f   Entity.obj
 0001:00147ae0       ?Show@idEntity@@UAEXXZ     10148ae0 f   Entity.obj
 0001:00147b10       ?Signal@idEntity@@QAEXW4signalNum_t@@@Z 10148b10 f   Entity.obj
 0001:00147bc0       ?Spawn@idEntity@@QAEXXZ    10148bc0 f   Entity.obj
 0001:001482d0       ?StartSound@idEntity@@QAE_NPBDHH_NPAH@Z 101492d0 f   Entity.obj
 0001:00148350       ?StartSoundShader@idEntity@@QAE_NPBVidSoundShader@@HH_NPAH1@Z 10149350 f   Entity.obj
 0001:001484d0       ?StopSound@idEntity@@QAEXH_N@Z 101494d0 f   Entity.obj
 0001:00148570       ?TakeRemoteRenderViewScreenshot@idEntity@@UAEXPBDHH@Z 10149570 f   Entity.obj
 0001:00148730       ?Teleport@idEntity@@UAEXABVidVec3@@ABVidAngles@@PAV1@@Z 10149730 f   Entity.obj
 0001:00148780       ?TemporarilySetThisEntityGravityToZero@idEntity@@UAEXH@Z 10149780 f   Entity.obj
 0001:001487e0       ?Think@idAnimatedEntity@@UAEXXZ 101497e0 f   Entity.obj
 0001:00148800       ?TimeForIndex@?$idCurve_Spline@VidVec3@@@@IBEMH@Z 10149800 f i Entity.obj
 0001:00148900       ?TouchTriggers@idEntity@@QBE_NXZ 10149900 f   Entity.obj
 0001:00148b00       ?TriggerGuis@idEntity@@QAEXXZ 10149b00 f   Entity.obj
 0001:00148b30       ?Unbind@idEntity@@QAEXXZ   10149b30 f   Entity.obj
 0001:00148cb0       ?UpdateAnimation@idAnimatedEntity@@QAEXXZ 10149cb0 f   Entity.obj
 0001:00148d70       ?UpdateChangeableSpawnArgs@idEntity@@UAEXPBVidDict@@@Z 10149d70 f   Entity.obj
 0001:00148de0       ?UpdateDamageEffects@idAnimatedEntity@@QAEXXZ 10149de0 f   Entity.obj
 0001:00149260       ?UpdateGuiParms@@YAXPAVidUserInterface@@PBVidDict@@@Z 1014a260 f   Entity.obj
 0001:00149300       ?UpdateModel@idEntity@@QAEXXZ 1014a300 f   Entity.obj
 0001:001495e0       ?UpdateModelTransform@idEntity@@QAEXXZ 1014a5e0 f   Entity.obj
 0001:001499f0       ?UpdatePVSAreas@idEntity@@AAEXXZ 1014a9f0 f   Entity.obj
 0001:00149b00       ?UpdatePVSAreas@idEntity@@QAEXABVidVec3@@@Z 1014ab00 f   Entity.obj
 0001:00149b80       ?UpdateSound@idEntity@@QAEXXZ 1014ab80 f   Entity.obj
 0001:00149d10       ?UpdateVisuals@idEntity@@QAEXXZ 1014ad10 f   Entity.obj
 0001:00149d20       ?WriteBindToSnapshot@idEntity@@QBEXAAVidBitMsgDelta@@@Z 1014ad20 f   Entity.obj
 0001:00149da0       ?WriteColorToSnapshot@idEntity@@QBEXAAVidBitMsgDelta@@@Z 1014ada0 f   Entity.obj
 0001:00149dd0       ?WriteGUIToSnapshot@idEntity@@QBEXAAVidBitMsgDelta@@@Z 1014add0 f   Entity.obj
 0001:00149e40       ?Event_Trigger@idEntityFx@@IAEXPAVidEntity@@@Z 1014ae40 f   Fx.obj
 0001:00149f50       ?Event_ClearFx@idEntityFx@@IAEXXZ 1014af50 f   Fx.obj
 0001:0014a0e0       ?Event_DoAction@idTeleporter@@AAEXPAVidEntity@@@Z 1014b0e0 f   Fx.obj
 0001:0014a190       ??0idEntityFx@@QAE@XZ      1014b190 f   Fx.obj
 0001:0014a220       ??1idEntityFx@@UAE@XZ      1014b220 f   Fx.obj
 0001:0014a2b0       ??4idFXLocalAction@@QAEAAU0@ABU0@@Z 1014b2b0 f i Fx.obj
 0001:0014a510       ??4renderLight_s@@QAEAAU0@ABU0@@Z 1014b510 f i Fx.obj
 0001:0014a6b0       ??_EidEntityFx@@UAEPAXI@Z  1014b6b0 f i Fx.obj
 0001:0014a6b0       ??_EidTeleporter@@UAEPAXI@Z 1014b6b0 f i Fx.obj
 0001:0014a6b0       ??_GidEntityFx@@UAEPAXI@Z  1014b6b0 f i Fx.obj
 0001:0014a6b0       ??_GidTeleporter@@UAEPAXI@Z 1014b6b0 f i Fx.obj
 0001:0014a6f0       ?ApplyFade@idEntityFx@@IAEXABUidFXSingleAction@@AAUidFXLocalAction@@HH@Z 1014b6f0 f   Fx.obj
 0001:0014a880       ?CleanUp@idEntityFx@@IAEXXZ 1014b880 f   Fx.obj
 0001:0014a960       ?ClientPredictionThink@idEntityFx@@UAEXXZ 1014b960 f   Fx.obj
 0001:0014a990       ?CreateInstance@idEntityFx@@SAPAVidClass@@XZ 1014b990 f   Fx.obj
 0001:0014aa30       ?CreateInstance@idTeleporter@@SAPAVidClass@@XZ 1014ba30 f   Fx.obj
 0001:0014aae0       ?Duration@idEntityFx@@QAE?BHXZ 1014bae0 f   Fx.obj
 0001:0014ab40       ?GetType@idEntityFx@@UBEPAVidTypeInfo@@XZ 1014bb40 f   Fx.obj
 0001:0014ab50       ?GetType@idTeleporter@@UBEPAVidTypeInfo@@XZ 1014bb50 f   Fx.obj
 0001:0014ab60       ?ReadFromSnapshot@idEntityFx@@UAEXABVidBitMsgDelta@@@Z 1014bb60 f   Fx.obj
 0001:0014ae50       ?Resize@?$idList@UidFXLocalAction@@@@QAEXH@Z 1014be50 f i Fx.obj
 0001:0014aef0       ?Restore@idEntityFx@@QAEXPAVidRestoreGame@@@Z 1014bef0 f   Fx.obj
 0001:0014b100       ?Run@idEntityFx@@QAEXH@Z   1014c100 f   Fx.obj
 0001:0014be90       ?Save@idEntityFx@@QBEXPAVidSaveGame@@@Z 1014ce90 f   Fx.obj
 0001:0014c000       ?Setup@idEntityFx@@QAEXPBD@Z 1014d000 f   Fx.obj
 0001:0014c210       ?Spawn@idEntityFx@@QAEXXZ  1014d210 f   Fx.obj
 0001:0014c340       ?Start@idEntityFx@@QAEXH@Z 1014d340 f   Fx.obj
 0001:0014c3a0       ?StartFx@idEntityFx@@SAPAV1@PBDPBVidVec3@@PBVidMat3@@PAVidEntity@@_N@Z 1014d3a0 f   Fx.obj
 0001:0014c520       ?Think@idEntityFx@@UAEXXZ  1014d520 f   Fx.obj
 0001:0014c560       ?WriteToSnapshot@idEntityFx@@UBEXAAVidBitMsgDelta@@@Z 1014d560 f   Fx.obj
 0001:0014c5d0       ??$_Guess_median_unchecked@PAPAVidPortalSky@@P6A_NPAVidEntity@@0@Z@std@@YAXPAPAVidPortalSky@@00P6A_NPAVidEntity@@1@Z@Z 1014d5d0 f i Game_local.obj
 0001:0014c7e0       ??$_Partition_by_median_guess_unchecked@PAPAVidPortalSky@@P6A_NPAVidEntity@@0@Z@std@@YA?AU?$pair@PAPAVidPortalSky@@PAPAV1@@0@PAPAVidPortalSky@@0P6A_NPAVidEntity@@1@Z@Z 1014d7e0 f i Game_local.obj
 0001:0014c9c0       ??$_Pop_heap_hole_by_index@PAPAVidPortalSky@@PAV1@P6A_NPAVidEntity@@0@Z@std@@YAXPAPAVidPortalSky@@HH$$QAPAV1@P6A_NPAVidEntity@@2@Z@Z 1014d9c0 f i Game_local.obj
 0001:0014ca80       ??$_Sort_unchecked@PAPAVidPortalSky@@P6A_NPAVidEntity@@0@Z@std@@YAXPAPAVidPortalSky@@0HP6A_NPAVidEntity@@1@Z@Z 1014da80 f i Game_local.obj
 0001:0014cce0       ??$idDeclAllocator@VidDecl@@@@YAPAVidDecl@@XZ 1014dce0 f i Game_local.obj
 0001:0014cd10       ??$idDeclAllocator@VidDeclModelDef@@@@YAPAVidDecl@@XZ 1014dd10 f i Game_local.obj
 0001:0014cd70       ??$idListDecls_f@$04@@YAXABVidCmdArgs@@@Z 1014dd70 f i Game_local.obj
 0001:0014cd90       ??$idPrintDecls_f@$04@@YAXABVidCmdArgs@@@Z 1014dd90 f i Game_local.obj
 0001:0014cdb0       ??0?$vector@PAVsbShip@@V?$allocator@PAVsbShip@@@std@@@std@@QAE@XZ 1014ddb0 f i Game_local.obj
 0001:0014cdd0       ??0idGameLocal@@QAE@XZ     1014ddd0 f   Game_local.obj
 0001:0014d100       ??0idMapFile@@QAE@XZ       1014e100 f i Game_local.obj
 0001:0014d1e0       ??1?$idBlockAlloc@UentityNetEvent_s@@$0CA@@@QAE@XZ 1014e1e0 f i Game_local.obj
 0001:0014d1e0       ?Shutdown@?$idBlockAlloc@UentityNetEvent_s@@$0CA@@@QAEXXZ 1014e1e0 f i Game_local.obj
 0001:0014d230       ??1?$idBlockAlloc@UentityState_s@@$0BAA@@@QAE@XZ 1014e230 f i Game_local.obj
 0001:0014d2d0       ??1?$idBlockAlloc@Usnapshot_s@@$0EA@@@QAE@XZ 1014e2d0 f i Game_local.obj
 0001:0014d320       ??1idClip@@QAE@XZ          1014e320 f i Game_local.obj
 0001:0014d340       ??1idEventQueue@@QAE@XZ    1014e340 f i Game_local.obj
 0001:0014d350       ??1idGame@@UAE@XZ          1014e350 f i Game_local.obj
 0001:0014d360       ??1idGameLocal@@UAE@XZ     1014e360 f i Game_local.obj
 0001:0014d6d0       ??1idMultiplayerGame@@QAE@XZ 1014e6d0 f i Game_local.obj
 0001:0014d750       ??1selectedTypeInfo_s@@QAE@XZ 1014e750 f i Game_local.obj
 0001:0014d790       ??_EidGame@@UAEPAXI@Z      1014e790 f i Game_local.obj
 0001:0014d790       ??_GidGame@@UAEPAXI@Z      1014e790 f i Game_local.obj
 0001:0014d7c0       ??_EidGameLocal@@UAEPAXI@Z 1014e7c0 f i Game_local.obj
 0001:0014d7c0       ??_GidGameLocal@@UAEPAXI@Z 1014e7c0 f i Game_local.obj
 0001:0014d7f0       ??_GidMapFile@@QAEPAXI@Z   1014e7f0 f i Game_local.obj
 0001:0014d880       ?AddEntityToHash@idGameLocal@@QAEXPBDPAVidEntity@@@Z 1014e880 f   Game_local.obj
 0001:0014d930       ?AlertAI@idGameLocal@@QAEXPAVidEntity@@@Z 1014e930 f   Game_local.obj
 0001:0014d990       ?Append@?$idList@VidStr@@@@QAEHABVidStr@@@Z 1014e990 f i Game_local.obj
 0001:0014da30       ?ArgCompletion_EntityName@idGameLocal@@SAXABVidCmdArgs@@P6AXPBD@Z@Z 1014ea30 f   Game_local.obj
 0001:0014da90       ?AssignAllShipsAtCurrentLocToASkyPortalEntity@idGameLocal@@QAEXXZ 1014ea90 f   Game_local.obj
 0001:0014e010       ?BloodSplat@idGameLocal@@QAEXABVidVec3@@0MPBD@Z 1014f010 f   Game_local.obj
 0001:0014e230       ?CacheDictionaryMedia@idGameLocal@@UAEXPBVidDict@@@Z 1014f230 f   Game_local.obj
 0001:0014e9d0       ?CalcFov@idGameLocal@@QBEXMAAM0@Z 1014f9d0 f   Game_local.obj
 0001:0014ec20       ?CallFrameCommand@idGameLocal@@QAEXPAVidEntity@@PBVfunction_t@@@Z 1014fc20 f   Game_local.obj
 0001:0014ec50       ?CallObjectFrameCommand@idGameLocal@@QAEXPAVidEntity@@PBD@Z 1014fc50 f   Game_local.obj
 0001:0014ecc0       ?CheatsOk@idGameLocal@@QAE_N_N@Z 1014fcc0 f   Game_local.obj
 0001:0014ed70       ?CheckAllNonPlayerSkyPortalsForOccupancy@idGameLocal@@QAE_NXZ 1014fd70 f   Game_local.obj
 0001:0014ee70       ?CheckIfStarGridPositionIsOffLimitsToShipAI@idGameLocal@@QAE_NHH@Z 1014fe70 f   Game_local.obj
 0001:0014ee90       ?Clear@idGameLocal@@AAEXXZ 1014fe90 f   Game_local.obj
 0001:0014f400       ?ComputeSlowMsec@idGameLocal@@QAEXXZ 10150400 f   Game_local.obj
 0001:0014f6d0       ?DPrintf@idGameLocal@@QBAXPBDZZ 101506d0 f   Game_local.obj
 0001:0014f720       ?DWarning@idGameLocal@@QBAXPBDZZ 10150720 f   Game_local.obj
 0001:0014f7a0       ?DeleteContents@?$idList@PAVidMapEntity@@@@QAEX_N@Z 101507a0 f i Game_local.obj
 0001:0014f930       ?Draw@idGameLocal@@UAE_NH@Z 10150930 f   Game_local.obj
 0001:0014f970       ?DumpOggSounds@idGameLocal@@AAEXXZ 10150970 f   Game_local.obj
 0001:00150210       ?EntitiesWithinRadius@idGameLocal@@QBEHVidVec3@@MPAPAVidEntity@@H@Z 10151210 f   Game_local.obj
 0001:00150330       ?Error@idGameLocal@@QBAXPBDZZ 10151330 f   Game_local.obj
 0001:001503a0       ?FindEntity@idGameLocal@@QBEPAVidEntity@@PBD@Z 101513a0 f   Game_local.obj
 0001:00150440       ?FindEntityDef@idGameLocal@@QBEPBVidDeclEntityDef@@PBD_N@Z 10151440 f   Game_local.obj
 0001:00150490       ?FindEntityDefDict@idGameLocal@@QBEPBVidDict@@PBD_N@Z 10151490 f   Game_local.obj
 0001:001504f0       ?FindEntityUsingDef@idGameLocal@@QBEPAVidEntity@@PAV2@PBD@Z 101514f0 f   Game_local.obj
 0001:00150560       ?FindTraceEntity@idGameLocal@@QBEPAVidEntity@@VidVec3@@0ABVidTypeInfo@@PBV2@@Z 10151560 f   Game_local.obj
 0001:001506e0       ?GameState@idGameLocal@@QBE?AW4gameState_t@@XZ 101516e0 f   Game_local.obj
 0001:001506f0       ?GetAAS@idGameLocal@@QBEPAVidAAS@@H@Z 101516f0 f   Game_local.obj
 0001:00150740       ?GetAAS@idGameLocal@@QBEPAVidAAS@@PBD@Z 10151740 f   Game_local.obj
 0001:001507b0       ?GetAlertEntity@idGameLocal@@QAEPAVidActor@@XZ 101517b0 f   Game_local.obj
 0001:001507f0       ?GetBestGameType@idGameLocal@@UAEXPBD0QAD@Z 101517f0 f   Game_local.obj
 0001:00150870       ?GetCamera@idGameLocal@@QBEPAVidCamera@@XZ 10151870 f   Game_local.obj
 0001:00150880       ?GetClientByCmdArgs@idGameLocal@@QBEPAVidPlayer@@ABVidCmdArgs@@@Z 10151880 f   Game_local.obj
 0001:00150a10       ?GetClientByNum@idGameLocal@@QBEPAVidPlayer@@H@Z 10151a10 f   Game_local.obj
 0001:00150a30       ?GetClientStats@idGameLocal@@UAEXHPADH@Z 10151a30 f   Game_local.obj
 0001:00150a40       ?GetGlobalMaterial@idGameLocal@@QAEPBVidMaterial@@XZ 10151a40 f   Game_local.obj
 0001:00150a50       ?GetGravity@idGameLocal@@QBEABVidVec3@@XZ 10151a50 f   Game_local.obj
 0001:00150a60       ?GetLevelMap@idGameLocal@@QAEPAVidMapFile@@XZ 10151a60 f   Game_local.obj
 0001:00150b40       ?GetLocalPlayer@idGameLocal@@QBEPAVidPlayer@@XZ 10151b40 f   Game_local.obj
 0001:00150b90       ?GetMapName@idGameLocal@@QBEPBDXZ 10151b90 f   Game_local.obj
 0001:00150ba0       ?GetNextClientNum@idGameLocal@@QBEHH@Z 10151ba0 f   Game_local.obj
 0001:00150c00       ?GetNumberOfNonPlayerShipSkyPortalEntities@idGameLocal@@QAEHXZ 10151c00 f   Game_local.obj
 0001:00150cd0       ?GetNumberOfNonPlayerShipsAtStarGridPosition@idGameLocal@@QAEHHH@Z 10151cd0 f   Game_local.obj
 0001:00150d90       ?GetPersistentPlayerInfo@idGameLocal@@UAEABVidDict@@H@Z 10151d90 f   Game_local.obj
 0001:00150de0       ?GetSpawnId@idGameLocal@@QBEHPBVidEntity@@@Z 10151de0 f   Game_local.obj
 0001:00150e00       ?GetSuitableTransporterPositionWithinBounds@idGameLocal@@QAE?AVidVec3@@PAVidEntity@@PBVidBounds@@@Z 10151e00 f   Game_local.obj
 0001:001511c0       ?GetTargets@idGameLocal@@QBEHABVidDict@@AAV?$idList@V?$idEntityPtr@VidEntity@@@@@@PBD@Z 101521c0 f   Game_local.obj
 0001:001512c0       ?GetTimeGroupTime@idGameLocal@@UAEHH@Z 101522c0 f   Game_local.obj
 0001:001512d0       ?GetTraceEntity@idGameLocal@@QBEPAVidEntity@@ABUtrace_s@@@Z 101522d0 f   Game_local.obj
 0001:00151310       ?GetUserInfo@idGameLocal@@UAEPBVidDict@@H@Z 10152310 f   Game_local.obj
 0001:00151350       ?HandleESC@idGameLocal@@UAE?AW4escReply_t@@PAPAVidUserInterface@@@Z 10152350 f   Game_local.obj
 0001:001513d0       ?HandleGuiCommands@idGameLocal@@UAEPBDPBD@Z 101523d0 f   Game_local.obj
 0001:001513f0       ?HandleGuiCommandsOnPlayer@idGameLocal@@UAE_NPBD@Z 101523f0 f   Game_local.obj
 0001:00151470       ?InPlayerConnectedArea@idGameLocal@@QBE_NPAVidEntity@@@Z 10152470 f   Game_local.obj
 0001:001514c0       ?InPlayerPVS@idGameLocal@@QBE_NPAVidEntity@@@Z 101524c0 f   Game_local.obj
 0001:00151510       ?InhibitEntitySpawn@idGameLocal@@AAE_NAAVidDict@@@Z 10152510 f   Game_local.obj
 0001:00151670       ?Init@idGameLocal@@UAEXXZ  10152670 f   Game_local.obj
 0001:00151b70       ?InitFromNewMap@idGameLocal@@UAEXPBDPAVidRenderWorld@@PAVidSoundWorld@@_N3H@Z 10152b70 f   Game_local.obj
 0001:00151c30       ?InitFromSaveGame@idGameLocal@@UAE_NPBDPAVidRenderWorld@@PAVidSoundWorld@@PAVidFile@@@Z 10152c30 f   Game_local.obj
 0001:00152590       ?InitScriptForMap@idGameLocal@@AAEXXZ 10153590 f   Game_local.obj
 0001:00152670       ?IsPortalSkyAcive@idGameLocal@@QAE_NXZ 10153670 f   Game_local.obj
 0001:00152680       ?KillBox@idGameLocal@@QAEXPAVidEntity@@_N@Z 10153680 f   Game_local.obj
 0001:001527e0       ?Length@idVec2@@QBEMXZ     101537e0 f i Game_local.obj
 0001:00152890       ?LoadMap@idGameLocal@@QAEXPBDH@Z 10153890 f   Game_local.obj
 0001:00152fa0       ?LocalMapRestart@idGameLocal@@QAEXXZ 10153fa0 f   Game_local.obj
 0001:00153130       ?LocationForPoint@idGameLocal@@QAEPAVidLocationEntity@@ABVidVec3@@@Z 10154130 f   Game_local.obj
 0001:00153190       ?MapClear@idGameLocal@@AAEX_N@Z 10154190 f   Game_local.obj
 0001:001533b0       ?MapPopulate@idGameLocal@@AAEXXZ 101543b0 f   Game_local.obj
 0001:00153410       ?MapRestart@idGameLocal@@QAEXXZ 10154410 f   Game_local.obj
 0001:00153670       ?MapRestart_f@idGameLocal@@SAXABVidCmdArgs@@@Z 10154670 f   Game_local.obj
 0001:001536c0       ?MapShutdown@idGameLocal@@UAEXXZ 101546c0 f   Game_local.obj
 0001:001537c0       ?MaybeDisplayStarGridStoryWindow@idGameLocal@@QAEXXZ 101547c0 f   Game_local.obj
 0001:001561b0       ?NeedRestart@idGameLocal@@QAE_NXZ 101571b0 f   Game_local.obj
 0001:001562c0       ?NextMap@idGameLocal@@QAE_NXZ 101572c0 f   Game_local.obj
 0001:001564f0       ?NextMap_f@idGameLocal@@SAXABVidCmdArgs@@@Z 101574f0 f   Game_local.obj
 0001:00156530       ?NumAAS@idGameLocal@@QBEHXZ 10157530 f   Game_local.obj
 0001:00156540       ?PlayerGUIOverlay@idGameLocal@@UAEPAVidUserInterface@@XZ 10157540 f   Game_local.obj
 0001:001565b0       ?Printf@idGameLocal@@QBAXPBDZZ 101575b0 f   Game_local.obj
 0001:001565f0       ?ProjectDecal@idGameLocal@@QAEXABVidVec3@@0M_NMPBDM@Z 101575f0 f   Game_local.obj
 0001:00156f00       ?QuickSlowmoReset@idGameLocal@@QAEXXZ 10157f00 f   Game_local.obj
 0001:00156f10       ?RadiusDamage@idGameLocal@@QAEXABVidVec3@@PAVidEntity@@111PBDM@Z 10157f10 f   Game_local.obj
 0001:00157530       ?RadiusPush@idGameLocal@@QAEXABVidVec3@@MMPBVidEntity@@1M_N@Z 10158530 f   Game_local.obj
 0001:001578b0       ?RandomizeInitialSpawns@idGameLocal@@AAEXXZ 101588b0 f   Game_local.obj
 0001:00157ad0       ?RandomizeStarGridPositionsForCertainSpaceEntities@idGameLocal@@QAEXXZ 10158ad0 f   Game_local.obj
 0001:00158a10       ?RegisterEntity@idGameLocal@@QAEXPAVidEntity@@@Z 10159a10 f   Game_local.obj
 0001:00158b40       ?Remove@idHashIndex@@QAEXHH@Z 10159b40 f i Game_local.obj
 0001:00158bc0       ?RemoveEntityFromHash@idGameLocal@@QAE_NPBDPAVidEntity@@@Z 10159bc0 f   Game_local.obj
 0001:00158c80       ?RequirementMet@idGameLocal@@QAE_NPAVidEntity@@ABVidStr@@H@Z 10159c80 f   Game_local.obj
 0001:00158ce0       ?ResetSlowTimeVars@idGameLocal@@QAEXXZ 10159ce0 f   Game_local.obj
 0001:00158d50       ?RunDebugInfo@idGameLocal@@AAEXXZ 10159d50 f   Game_local.obj
 0001:001596a0       ?RunFrame@idGameLocal@@UAE?AUgameReturn_t@@PBVusercmd_t@@@Z 1015a6a0 f   Game_local.obj
 0001:0015a1e0       ?SaveGame@idGameLocal@@UAEXPAVidFile@@@Z 1015b1e0 f   Game_local.obj
 0001:0015a8e0       ?SelectInitialSpawnPoint@idGameLocal@@QAEPAVidEntity@@PAVidPlayer@@@Z 1015b8e0 f   Game_local.obj
 0001:0015ab60       ?SetAASAreaState@idGameLocal@@QAEXABVidBounds@@H_N@Z 1015bb60 f   Game_local.obj
 0001:0015abb0       ?SetAllShipSkyPortalEntitiesToNull@idGameLocal@@QAEXXZ 1015bbb0 f   Game_local.obj
 0001:0015ac30       ?SetAllSkyPortalsOccupancyStatusToFalse@idGameLocal@@QAEXXZ 1015bc30 f   Game_local.obj
 0001:0015ac90       ?SetCamera@idGameLocal@@QAEXPAVidCamera@@@Z 1015bc90 f   Game_local.obj
 0001:0015af70       ?SetGlobalMaterial@idGameLocal@@QAEXPBVidMaterial@@@Z 1015bf70 f   Game_local.obj
 0001:0015af80       ?SetLocalClient@idGameLocal@@UAEXH@Z 1015bf80 f   Game_local.obj
 0001:0015af90       ?SetPersistentPlayerInfo@idGameLocal@@UAEXHABVidDict@@@Z 1015bf90 f   Game_local.obj
 0001:0015afb0       ?SetPortalSkyEnt@idGameLocal@@QAEXPAVidEntity@@@Z 1015bfb0 f   Game_local.obj
 0001:0015afe0       ?SetPortalState@idGameLocal@@QAEXHH@Z 1015bfe0 f   Game_local.obj
 0001:0015b080       ?SetServerInfo@idGameLocal@@UAEXABVidDict@@@Z 1015c080 f   Game_local.obj
 0001:0015b110       ?SetUserInfo@idGameLocal@@UAEPBVidDict@@HABV2@_N1@Z 1015c110 f   Game_local.obj
 0001:0015b320       ?SetupPlayerPVS@idGameLocal@@AAEXXZ 1015c320 f   Game_local.obj
 0001:0015b740       ?ShowTargets@idGameLocal@@AAEXXZ 1015c740 f   Game_local.obj
 0001:0015bff0       ?Shutdown@idGameLocal@@UAEXXZ 1015cff0 f   Game_local.obj
 0001:0015c260       ?SkipCinematic@idGameLocal@@QAE_NXZ 1015d260 f   Game_local.obj
 0001:0015c3a0       ?SortActiveEntityList@idGameLocal@@AAEXXZ 1015d3a0 f   Game_local.obj
 0001:0015c5f0       ?SpawnEntityDef@idGameLocal@@QAE_NABVidDict@@PAPAVidEntity@@_N@Z 1015d5f0 f   Game_local.obj
 0001:0015c860       ?SpawnEntityType@idGameLocal@@QAEPAVidEntity@@ABVidTypeInfo@@PBVidDict@@_N@Z 1015d860 f   Game_local.obj
 0001:0015c930       ?SpawnMapEntities@idGameLocal@@AAEXXZ 1015d930 f   Game_local.obj
 0001:0015cb00       ?SpawnPlayer@idGameLocal@@UAEXH@Z 1015db00 f   Game_local.obj
 0001:0015dcb0       ?SpreadLocations@idGameLocal@@QAEXXZ 1015ecb0 f   Game_local.obj
 0001:0015de90       ?StartMenu@idGameLocal@@UAEPAVidUserInterface@@XZ 1015ee90 f   Game_local.obj
 0001:0015deb0       ?SwitchTeam@idGameLocal@@UAEXHH@Z 1015eeb0 f   Game_local.obj
 0001:0015df00       ?ThrottleUserInfo@idGameLocal@@UAEXXZ 1015ef00 f   Game_local.obj
 0001:0015df10       ?UnregisterEntity@idGameLocal@@QAEXPAVidEntity@@@Z 1015ef10 f   Game_local.obj
 0001:0015dfa0       ?UpdateServerInfoFlags@idGameLocal@@AAEXXZ 1015efa0 f   Game_local.obj
 0001:0015e160       ?UpdateSpaceCommandDynamicLights@idGameLocal@@QAEXXZ 1015f160 f   Game_local.obj
 0001:0015e6c0       ?UpdateSpaceCommandViewscreenCamera@idGameLocal@@QAEXXZ 1015f6c0 f   Game_local.obj
 0001:0015f520       ?UpdateSpaceEntityVisibilities@idGameLocal@@QAEXXZ 10160520 f   Game_local.obj
 0001:0015fb10       ?UpdateSunEntity@idGameLocal@@QAEXXZ 10160b10 f   Game_local.obj
 0001:0015fdf0       ?Utility_Function_CompareEntityNamesForward@@YA_NPAVidEntity@@0@Z 10160df0 f   Game_local.obj
 0001:0015fe10       ?Warning@idGameLocal@@QBAXPBDZZ 10160e10 f   Game_local.obj
 0001:0015fe80       ?_Get_bits@?$_Rng_from_urng_v2@IV?$mersenne_twister_engine@I$0CA@$0CHA@$0BIN@$0BP@$0JJAILANP@$0L@$0PPPPPPPP@$06$0JNCMFGIA@$0P@$0OPMGAAAA@$0BC@$0GMAHIJGF@@std@@@std@@AAEIXZ 10160e80 f i Game_local.obj
 0001:0015fff0       ?gameError@@YAXPBDZZ       10160ff0 f   Game_local.obj
 0001:00160030       ?sortSpawnPoints@idGameLocal@@CAHPBX0@Z 10161030 f   Game_local.obj
 0001:00160060       _GetGameAPI                10161060 f   Game_local.obj
 0001:00160140       ??$ArgCompletion_Integer@$0A@$02@idCmdSystem@@SAXABVidCmdArgs@@P6AXPBD@Z@Z 10161140 f i Game_network.obj
 0001:00160180       ??0element_s@?$idBlockAlloc@UentityState_s@@$0BAA@@@QAE@XZ 10161180 f i Game_network.obj
 0001:00160190       ?Alloc@?$idBlockAlloc@UentityState_s@@$0BAA@@@QAEPAUentityState_s@@XZ 10161190 f i Game_network.obj
 0001:00160270       ?Alloc@?$idBlockAlloc@Usnapshot_s@@$0EA@@@QAEPAUsnapshot_s@@XZ 10161270 f i Game_network.obj
 0001:001602f0       ?Alloc@idEventQueue@@QAEPAUentityNetEvent_s@@XZ 101612f0 f   Game_network.obj
 0001:00160380       ?ApplySnapshot@idGameLocal@@AAE_NHH@Z 10161380 f   Game_network.obj
 0001:00160470       ?AssureSize@?$idList@H@@QAEXHABH@Z 10161470 f i Game_network.obj
 0001:001604e0       ?ClientApplySnapshot@idGameLocal@@UAE_NHH@Z 101614e0 f   Game_network.obj
 0001:001604e0       ?ServerApplySnapshot@idGameLocal@@UAE_NHH@Z 101614e0 f   Game_network.obj
 0001:001604f0       ?ClientPrediction@idGameLocal@@UAE?AUgameReturn_t@@HPBVusercmd_t@@_N@Z 101614f0 f   Game_network.obj
 0001:00160630       ?ClientProcessReliableMessage@idGameLocal@@UAEXHABVidBitMsg@@@Z 10161630 f   Game_network.obj
 0001:00160be0       ?ClientReadSnapshot@idGameLocal@@UAEXHHHHHHABVidBitMsg@@@Z 10161be0 f   Game_network.obj
 0001:001617c0       ?ClientRemapDecl@idGameLocal@@QAEHW4declType_t@@H@Z 101627c0 f   Game_network.obj
 0001:00161860       ?ClientShowSnapshot@idGameLocal@@ABEXH@Z 10162860 f   Game_network.obj
 0001:00161b50       ?DownloadRequest@idGameLocal@@UAE_NPBD00QAD@Z 10162b50 f   Game_network.obj
 0001:00161f40       ?Enqueue@idEventQueue@@QAEXPAUentityNetEvent_s@@W4outOfOrderBehaviour_t@1@@Z 10162f40 f   Game_network.obj
 0001:00162070       ?FreeSnapshotsOlderThanSequence@idGameLocal@@AAEXHH@Z 10163070 f   Game_network.obj
 0001:00162130       ?Init@idEventQueue@@QAEXXZ 10163130 f   Game_network.obj
 0001:00162140       ?InitAsyncNetwork@idGameLocal@@AAEXXZ 10163140 f   Game_network.obj
 0001:00162260       ?InitClientDeclRemap@idGameLocal@@AAEXH@Z 10163260 f   Game_network.obj
 0001:00162380       ?NetworkEventWarning@idGameLocal@@AAAXPBUentityNetEvent_s@@PBDZZ 10163380 f   Game_network.obj
 0001:00162400       ?SaveEntityNetworkEvent@idGameLocal@@QAEXPBVidEntity@@HPBVidBitMsg@@@Z 10163400 f   Game_network.obj
 0001:001624a0       ?ServerAllowClient@idGameLocal@@UAE?AW4allowReply_t@@HPBD00QAD@Z 101634a0 f   Game_network.obj
 0001:00162610       ?ServerClientBegin@idGameLocal@@UAEXH@Z 10163610 f   Game_network.obj
 0001:00162710       ?ServerClientConnect@idGameLocal@@UAEXHPBD@Z 10163710 f   Game_network.obj
 0001:00162780       ?ServerClientDisconnect@idGameLocal@@UAEXH@Z 10163780 f   Game_network.obj
 0001:00162890       ?ServerProcessEntityNetworkEventQueue@idGameLocal@@AAEXXZ 10163890 f   Game_network.obj
 0001:001629c0       ?ServerProcessReliableMessage@idGameLocal@@UAEXHABVidBitMsg@@@Z 101639c0 f   Game_network.obj
 0001:00162c10       ?ServerRemapDecl@idGameLocal@@QAEHHW4declType_t@@H@Z 10163c10 f   Game_network.obj
 0001:00162c70       ?ServerSendChatMessage@idGameLocal@@QAEXHPBD0@Z 10163c70 f   Game_network.obj
 0001:00162d40       ?ServerSendDeclRemapToClient@idGameLocal@@AAEXHW4declType_t@@H@Z 10163d40 f   Game_network.obj
 0001:00162e90       ?ServerWriteInitialReliableMessages@idGameLocal@@UAEXH@Z 10163e90 f   Game_network.obj
 0001:001630a0       ?ServerWriteSnapshot@idGameLocal@@UAEXHHAAVidBitMsg@@PAEH@Z 101640a0 f   Game_network.obj
 0001:001635c0       ?SetSpawnId@?$idEntityPtr@VidEntity@@@@QAE_NH@Z 101645c0 f i Game_network.obj
 0001:001635f0       ?Shutdown@idEventQueue@@QAEXXZ 101645f0 f   Game_network.obj
 0001:00163610       ?ShutdownAsyncNetwork@idGameLocal@@AAEXXZ 10164610 f   Game_network.obj
 0001:001637a0       ?Tokenize@idGameLocal@@QAEXAAV?$idList@VidStr@@@@PBD@Z 101647a0 f   Game_network.obj
 0001:00163930       ?UpdateLagometer@idGameLocal@@AAEXHH@Z 10164930 f   Game_network.obj
 0001:00163ad0       ?ClearEntitySelection@idGameEdit@@UAEXXZ 10164ad0 f   GameEdit.obj
 0001:00163b60       ?GetSelectedEntities@idGameEdit@@UAEHQAPAVidEntity@@H@Z 10164b60 f   GameEdit.obj
 0001:00163bb0       ?AddSelectedEntity@idGameEdit@@UAEXPAVidEntity@@@Z 10164bb0 f   GameEdit.obj
 0001:00163bd0       ?TriggerSelected@idGameEdit@@UAEXXZ 10164bd0 f   GameEdit.obj
 0001:00163c40       ?FindEntityDefDict@idGameEdit@@UBEPBVidDict@@PBD_N@Z 10164c40 f   GameEdit.obj
 0001:00163c50       ?SpawnEntityDef@idGameEdit@@UAEXABVidDict@@PAPAVidEntity@@@Z 10164c50 f   GameEdit.obj
 0001:00163c70       ?FindEntity@idGameEdit@@UBEPAVidEntity@@PBD@Z 10164c70 f   GameEdit.obj
 0001:00163c80       ?GetUniqueEntityName@idGameEdit@@UBEPBDPBD@Z 10164c80 f   GameEdit.obj
 0001:00163ce0       ?EntityGetOrigin@idGameEdit@@UBEXPAVidEntity@@AAVidVec3@@@Z 10164ce0 f   GameEdit.obj
 0001:00163d10       ?EntityGetAxis@idGameEdit@@UBEXPAVidEntity@@AAVidMat3@@@Z 10164d10 f   GameEdit.obj
 0001:00163d70       ?EntitySetOrigin@idGameEdit@@UAEXPAVidEntity@@ABVidVec3@@@Z 10164d70 f   GameEdit.obj
 0001:00163d90       ?EntitySetAxis@idGameEdit@@UAEXPAVidEntity@@ABVidMat3@@@Z 10164d90 f   GameEdit.obj
 0001:00163db0       ?EntityTranslate@idGameEdit@@UAEXPAVidEntity@@ABVidVec3@@@Z 10164db0 f   GameEdit.obj
 0001:00163dd0       ?EntityGetSpawnArgs@idGameEdit@@UBEPBVidDict@@PAVidEntity@@@Z 10164dd0 f   GameEdit.obj
 0001:00163df0       ?EntityUpdateChangeableSpawnArgs@idGameEdit@@UAEXPAVidEntity@@PBVidDict@@@Z 10164df0 f   GameEdit.obj
 0001:00163e10       ?EntityChangeSpawnArgs@idGameEdit@@UAEXPAVidEntity@@PBVidDict@@@Z 10164e10 f   GameEdit.obj
 0001:00163e80       ?EntityUpdateVisuals@idGameEdit@@UAEXPAVidEntity@@@Z 10164e80 f   GameEdit.obj
 0001:00163e90       ?EntitySetModel@idGameEdit@@UAEXPAVidEntity@@PBD@Z 10164e90 f   GameEdit.obj
 0001:00163ec0       ?EntityStopSound@idGameEdit@@UAEXPAVidEntity@@@Z 10164ec0 f   GameEdit.obj
 0001:00163ee0       ?EntityDelete@idGameEdit@@UAEXPAVidEntity@@@Z 10164ee0 f   GameEdit.obj
 0001:00163f00       ?EntitySetColor@idGameEdit@@UAEXPAVidEntity@@VidVec3@@@Z 10164f00 f   GameEdit.obj
 0001:00163f20       ?PlayerIsValid@idGameEdit@@UBE_NXZ 10164f20 f   GameEdit.obj
 0001:00163f30       ?PlayerGetOrigin@idGameEdit@@UBEXAAVidVec3@@@Z 10164f30 f   GameEdit.obj
 0001:00163f70       ?PlayerGetAxis@idGameEdit@@UBEXAAVidMat3@@@Z 10164f70 f   GameEdit.obj
 0001:00163fd0       ?PlayerGetViewAngles@idGameEdit@@UBEXAAVidAngles@@@Z 10164fd0 f   GameEdit.obj
 0001:00164000       ?PlayerGetEyePosition@idGameEdit@@UBEXAAVidVec3@@@Z 10165000 f   GameEdit.obj
 0001:00164040       ?MapGetEntityDict@idGameEdit@@UBEPBVidDict@@PBD@Z 10165040 f   GameEdit.obj
 0001:00164070       ?MapSave@idGameEdit@@UBEXPBD@Z 10165070 f   GameEdit.obj
 0001:001640a0       ?MapSetEntityKeyVal@idGameEdit@@UBEXPBD00@Z 101650a0 f   GameEdit.obj
 0001:001640e0       ?MapCopyDictToEntity@idGameEdit@@UBEXPBDPBVidDict@@@Z 101650e0 f   GameEdit.obj
 0001:00164150       ?MapGetUniqueMatchingKeyVals@idGameEdit@@UBEHPBDQAPBDH@Z 10165150 f   GameEdit.obj
 0001:001641c0       ?MapAddEntity@idGameEdit@@UBEXPBVidDict@@@Z 101651c0 f   GameEdit.obj
 0001:00164280       ?MapGetEntitiesMatchingClassWithString@idGameEdit@@UBEHPBD0QAPBDH@Z 10165280 f   GameEdit.obj
 0001:00164450       ?MapRemoveEntity@idGameEdit@@UBEXPBD@Z 10165450 f   GameEdit.obj
 0001:00164480       ?MapEntityTranslate@idGameEdit@@UBEXPBDABVidVec3@@@Z 10165480 f   GameEdit.obj
 0001:00164520       ??_EidGameEdit@@UAEPAXI@Z  10165520 f i GameEdit.obj
 0001:00164520       ??_GidGameEdit@@UAEPAXI@Z  10165520 f i GameEdit.obj
 0001:00164550       ??0idDragEntity@@QAE@XZ    10165550 f   GameEdit.obj
 0001:00164620       ??0idEditEntities@@QAE@XZ  10165620 f   GameEdit.obj
 0001:001646f0       ??0selectedTypeInfo_s@@QAE@XZ 101656f0 f i GameEdit.obj
 0001:00164710       ??1idDragEntity@@QAE@XZ    10165710 f   GameEdit.obj
 0001:00164780       ??_EidCursor3D@@UAEPAXI@Z  10165780 f i GameEdit.obj
 0001:00164780       ??_GidCursor3D@@UAEPAXI@Z  10165780 f i GameEdit.obj
 0001:001647d0       ?AddSelectedEntity@idEditEntities@@QAEXPAVidEntity@@@Z 101657d0 f   GameEdit.obj
 0001:00164850       ?Append@?$idList@UselectedTypeInfo_s@@@@QAEHABUselectedTypeInfo_s@@@Z 10165850 f i GameEdit.obj
 0001:001648f0       ?BindSelected@idDragEntity@@QAEXXZ 101658f0 f   GameEdit.obj
 0001:00164c40       ?Clear@idDragEntity@@QAEXXZ 10165c40 f   GameEdit.obj
 0001:00164cb0       ?ClearSelectedEntities@idEditEntities@@QAEXXZ 10165cb0 f   GameEdit.obj
 0001:00164d00       ?CreateInstance@idCursor3D@@SAPAVidClass@@XZ 10165d00 f   GameEdit.obj
 0001:00164de0       ?DeleteSelected@idDragEntity@@QAEXXZ 10165de0 f   GameEdit.obj
 0001:00164e30       ?DisplayEntities@idEditEntities@@QAEXXZ 10165e30 f   GameEdit.obj
 0001:001658a0       ?EntityIsSelectable@idEditEntities@@QAE_NPAVidEntity@@PAVidVec4@@PAVidStr@@@Z 101668a0 f   GameEdit.obj
 0001:00165980       ?GetType@idCursor3D@@UBEPAVidTypeInfo@@XZ 10166980 f   GameEdit.obj
 0001:00165990       ?Present@idCursor3D@@UAEXXZ 10166990 f   GameEdit.obj
 0001:00165a90       ?RemoveSelectedEntity@idEditEntities@@QAEXPAVidEntity@@@Z 10166a90 f   GameEdit.obj
 0001:00165b10       ?Resize@?$idList@UselectedTypeInfo_s@@@@QAEXH@Z 10166b10 f i GameEdit.obj
 0001:00165cd0       ?SelectEntity@idEditEntities@@QAE_NABVidVec3@@0PBVidEntity@@@Z 10166cd0 f   GameEdit.obj
 0001:00165e40       ?SetSelected@idDragEntity@@QAEXPAVidEntity@@@Z 10166e40 f   GameEdit.obj
 0001:00165e80       ?Think@idCursor3D@@UAEXXZ  10166e80 f   GameEdit.obj
 0001:00165e80       ?Think@idForceField@@UAEXXZ 10166e80 f   Misc.obj
 0001:00165eb0       ?UnbindSelected@idDragEntity@@QAEXXZ 10166eb0 f   GameEdit.obj
 0001:00165fe0       ?Update@idDragEntity@@QAEXPAVidPlayer@@@Z 10166fe0 f   GameEdit.obj
 0001:001668f0       ??0idIK_Walk@@QAE@XZ       101678f0 f   IK.obj
 0001:00166bb0       ??1idIK_Walk@@UAE@XZ       10167bb0 f   IK.obj
 0001:00166be0       ??_EidIK@@UAEPAXI@Z        10167be0 f i IK.obj
 0001:00166be0       ??_GidIK@@UAEPAXI@Z        10167be0 f i IK.obj
 0001:00166c10       ??_EidIK_Walk@@UAEPAXI@Z   10167c10 f i IK.obj
 0001:00166c10       ??_GidIK_Walk@@UAEPAXI@Z   10167c10 f i IK.obj
 0001:00166c60       ?ClearJointMods@idIK@@UAEXXZ 10167c60 f   IK.obj
 0001:00166c70       ?ClearJointMods@idIK_Walk@@UAEXXZ 10167c70 f   IK.obj
 0001:00166d10       ?DisableAll@idIK_Walk@@QAEXXZ 10167d10 f   IK.obj
 0001:00166d20       ?DisableLeg@idIK_Walk@@QAEXH@Z 10167d20 f   IK.obj
 0001:00166d30       ?EnableAll@idIK_Walk@@QAEXXZ 10167d30 f   IK.obj
 0001:00166d50       ?EnableLeg@idIK_Walk@@QAEXH@Z 10167d50 f   IK.obj
 0001:00166d70       ?Evaluate@idIK_Walk@@UAEXXZ 10167d70 f   IK.obj
 0001:00168c10       ?Init@idIK@@UAE_NPAVidEntity@@PBDABVidVec3@@@Z 10169c10 f   IK.obj
 0001:00168d60       ?Init@idIK_Walk@@UAE_NPAVidEntity@@PBDABVidVec3@@@Z 10169d60 f   IK.obj
 0001:00169be0       ?IsInitialized@idIK@@QBE_NXZ 1016abe0 f   IK.obj
 0001:00169c00       ?Restore@idIK@@QAEXPAVidRestoreGame@@@Z 1016ac00 f   IK.obj
 0001:00169d50       ?Restore@idIK_Walk@@QAEXPAVidRestoreGame@@@Z 1016ad50 f   IK.obj
 0001:00169ff0       ?Save@idIK@@QBEXPAVidSaveGame@@@Z 1016aff0 f   IK.obj
 0001:0016a060       ?Save@idIK_Walk@@QBEXPAVidSaveGame@@@Z 1016b060 f   IK.obj
 0001:0016a350       ?SolveTwoBones@idIK@@QAE_NABVidVec3@@00MMAAV2@@Z 1016b350 f   IK.obj
 0001:0016a620       ?Event_DropToFloor@idItem@@AAEXXZ 1016b620 f   Item.obj
 0001:0016a6f0       ?Event_Touch@idItem@@AAEXPAVidEntity@@PAUtrace_s@@@Z 1016b6f0 f   Item.obj
 0001:0016a730       ?Event_Trigger@idItem@@AAEXPAVidEntity@@@Z 1016b730 f   Item.obj
 0001:0016a7b0       ?Event_Respawn@idItem@@AAEXXZ 1016b7b0 f   Item.obj
 0001:0016a840       ?Event_RespawnFx@idItem@@AAEXXZ 1016b840 f   Item.obj
 0001:0016a890       ?Event_Trigger@idObjective@@AAEXPAVidEntity@@@Z 1016b890 f   Item.obj
 0001:0016ab50       ?Event_HideObjective@idObjective@@AAEXPAVidEntity@@@Z 1016bb50 f   Item.obj
 0001:0016ac90       ?Event_GetPlayerPos@idObjective@@AAEXXZ 1016bc90 f   Item.obj
 0001:0016acf0       ?Event_CamShot@idObjective@@AAEXXZ 1016bcf0 f   Item.obj
 0001:0016b040       ?Event_Gib@idMoveableItem@@AAEXPBD@Z 1016c040 f   Item.obj
 0001:0016b0f0       ?Event_Trigger@idItemRemover@@AAEXPAVidEntity@@@Z 1016c0f0 f   Item.obj
 0001:0016b150       ?Event_Trigger@idObjectiveComplete@@AAEXPAVidEntity@@@Z 1016c150 f   Item.obj
 0001:0016b2a0       ?Event_HideObjective@idObjectiveComplete@@AAEXPAVidEntity@@@Z 1016c2a0 f   Item.obj
 0001:0016b410       ?Event_GetPlayerPos@idObjectiveComplete@@AAEXXZ 1016c410 f   Item.obj
 0001:0016b470       ??0idItem@@QAE@XZ          1016c470 f   Item.obj
 0001:0016b510       ??1idItem@@UAE@XZ          1016c510 f   Item.obj
 0001:0016b570       ??1idMoveableItem@@UAE@XZ  1016c570 f   Item.obj
 0001:0016b600       ??_EidItem@@UAEPAXI@Z      1016c600 f i Item.obj
 0001:0016b600       ??_EidPDAItem@@UAEPAXI@Z   1016c600 f i Item.obj
 0001:0016b600       ??_EidVideoCDItem@@UAEPAXI@Z 1016c600 f i Item.obj
 0001:0016b600       ??_EsbItem@@UAEPAXI@Z      1016c600 f i Item.obj
 0001:0016b600       ??_GidItem@@UAEPAXI@Z      1016c600 f i Item.obj
 0001:0016b600       ??_GidPDAItem@@UAEPAXI@Z   1016c600 f i Item.obj
 0001:0016b600       ??_GidVideoCDItem@@UAEPAXI@Z 1016c600 f i Item.obj
 0001:0016b600       ??_GsbItem@@UAEPAXI@Z      1016c600 f i Item.obj
 0001:0016b6a0       ??_EidItemPowerup@@UAEPAXI@Z 1016c6a0 f i Item.obj
 0001:0016b6a0       ??_GidItemPowerup@@UAEPAXI@Z 1016c6a0 f i Item.obj
 0001:0016b740       ??_EidMoveableItem@@UAEPAXI@Z 1016c740 f i Item.obj
 0001:0016b740       ??_EidMoveablePDAItem@@UAEPAXI@Z 1016c740 f i Item.obj
 0001:0016b740       ??_GidMoveableItem@@UAEPAXI@Z 1016c740 f i Item.obj
 0001:0016b740       ??_GidMoveablePDAItem@@UAEPAXI@Z 1016c740 f i Item.obj
 0001:0016b780       ??_EidObjective@@UAEPAXI@Z 1016c780 f i Item.obj
 0001:0016b780       ??_GidObjective@@UAEPAXI@Z 1016c780 f i Item.obj
 0001:0016b820       ?ClientReceiveEvent@idItem@@UAE_NHHABVidBitMsg@@@Z 1016c820 f   Item.obj
 0001:0016b980       ?Collide@idMoveableItem@@UAE_NABUtrace_s@@ABVidVec3@@@Z 1016c980 f   Item.obj
 0001:0016ba60       ?CreateInstance@idItem@@SAPAVidClass@@XZ 1016ca60 f   Item.obj
 0001:0016bb00       ?CreateInstance@idItemPowerup@@SAPAVidClass@@XZ 1016cb00 f   Item.obj
 0001:0016bbc0       ?CreateInstance@idItemRemover@@SAPAVidClass@@XZ 1016cbc0 f   Item.obj
 0001:0016bc70       ?CreateInstance@idMoveableItem@@SAPAVidClass@@XZ 1016cc70 f   Item.obj
 0001:0016bd50       ?CreateInstance@idMoveablePDAItem@@SAPAVidClass@@XZ 1016cd50 f   Item.obj
 0001:0016be40       ?CreateInstance@idObjective@@SAPAVidClass@@XZ 1016ce40 f   Item.obj
 0001:0016bf10       ?CreateInstance@idObjectiveComplete@@SAPAVidClass@@XZ 1016cf10 f   Item.obj
 0001:0016bfe0       ?CreateInstance@idPDAItem@@SAPAVidClass@@XZ 1016cfe0 f   Item.obj
 0001:0016c090       ?CreateInstance@idVideoCDItem@@SAPAVidClass@@XZ 1016d090 f   Item.obj
 0001:0016c140       ?CreateInstance@sbItem@@SAPAVidClass@@XZ 1016d140 f   Item.obj
 0001:0016c1f0       ?DropItem@idMoveableItem@@SAPAVidEntity@@PBDABVidVec3@@ABVidMat3@@1HH@Z 1016d1f0 f   Item.obj
 0001:0016c3a0       ?DropItems@idMoveableItem@@SAXPAVidAnimatedEntity@@PBDPAV?$idList@PAVidEntity@@@@@Z 1016d3a0 f   Item.obj
 0001:0016ca00       ?GetAttributes@idItem@@QAEXAAVidDict@@@Z 1016da00 f   Item.obj
 0001:0016cb00       ?GetType@idItem@@UBEPAVidTypeInfo@@XZ 1016db00 f   Item.obj
 0001:0016cb10       ?GetType@idItemPowerup@@UBEPAVidTypeInfo@@XZ 1016db10 f   Item.obj
 0001:0016cb20       ?GetType@idItemRemover@@UBEPAVidTypeInfo@@XZ 1016db20 f   Item.obj
 0001:0016cb30       ?GetType@idMoveableItem@@UBEPAVidTypeInfo@@XZ 1016db30 f   Item.obj
 0001:0016cb40       ?GetType@idMoveablePDAItem@@UBEPAVidTypeInfo@@XZ 1016db40 f   Item.obj
 0001:0016cb50       ?GetType@idObjective@@UBEPAVidTypeInfo@@XZ 1016db50 f   Item.obj
 0001:0016cb60       ?GetType@idObjectiveComplete@@UBEPAVidTypeInfo@@XZ 1016db60 f   Item.obj
 0001:0016cb70       ?GetType@idPDAItem@@UBEPAVidTypeInfo@@XZ 1016db70 f   Item.obj
 0001:0016cb80       ?GetType@idVideoCDItem@@UBEPAVidTypeInfo@@XZ 1016db80 f   Item.obj
 0001:0016cb90       ?GetType@sbItem@@UBEPAVidTypeInfo@@XZ 1016db90 f   Item.obj
 0001:0016cba0       ?GiveToPlayer@idItem@@UAE_NPAVidPlayer@@@Z 1016dba0 f   Item.obj
 0001:0016cc00       ?GiveToPlayer@idItemPowerup@@UAE_NPAVidPlayer@@@Z 1016dc00 f   Item.obj
 0001:0016cc30       ?GiveToPlayer@idMoveablePDAItem@@UAE_NPAVidPlayer@@@Z 1016dc30 f   Item.obj
 0001:0016cc30       ?GiveToPlayer@idPDAItem@@UAE_NPAVidPlayer@@@Z 1016dc30 f   Item.obj
 0001:0016cc70       ?GiveToPlayer@idVideoCDItem@@UAE_NPAVidPlayer@@@Z 1016dc70 f   Item.obj
 0001:0016cd60       ?GiveToPlayer@sbItem@@UAE_NPAVidPlayer@@@Z 1016dd60 f   Item.obj
 0001:0016cf80       ?ModelCallback@idItem@@CA_NPAUrenderEntity_s@@PBUrenderView_s@@@Z 1016df80 f   Item.obj
 0001:0016d190       ?Pickup@idItem@@UAE_NPAVidPlayer@@@Z 1016e190 f   Item.obj
 0001:0016d3c0       ?Pickup@idMoveableItem@@UAE_NPAVidPlayer@@@Z 1016e3c0 f   Item.obj
 0001:0016d3f0       ?Present@idItem@@UAEXXZ    1016e3f0 f   Item.obj
 0001:0016d620       ?ReadFromSnapshot@idItem@@UAEXABVidBitMsgDelta@@@Z 1016e620 f   Item.obj
 0001:0016d650       ?ReadFromSnapshot@idMoveableItem@@UAEXABVidBitMsgDelta@@@Z 1016e650 f   Item.obj
 0001:0016d680       ?Restore@idItem@@QAEXPAVidRestoreGame@@@Z 1016e680 f   Item.obj
 0001:0016d740       ?Restore@idItemPowerup@@QAEXPAVidRestoreGame@@@Z 1016e740 f   Item.obj
 0001:0016d770       ?Restore@idMoveableItem@@QAEXPAVidRestoreGame@@@Z 1016e770 f   Item.obj
 0001:0016d7d0       ?Restore@idObjective@@QAEXPAVidRestoreGame@@@Z 1016e7d0 f   Item.obj
 0001:0016d7f0       ?Restore@idObjectiveComplete@@QAEXPAVidRestoreGame@@@Z 1016e7f0 f   Item.obj
 0001:0016d7f0       ?Restore@idTarget_Tip@@QAEXPAVidRestoreGame@@@Z 1016e7f0 f   Target.obj
 0001:0016d810       ?Save@idItem@@QBEXPAVidSaveGame@@@Z 1016e810 f   Item.obj
 0001:0016d8d0       ?Save@idItemPowerup@@QBEXPAVidSaveGame@@@Z 1016e8d0 f   Item.obj
 0001:0016d900       ?Save@idMoveableItem@@QBEXPAVidSaveGame@@@Z 1016e900 f   Item.obj
 0001:0016d950       ?Save@idObjective@@QBEXPAVidSaveGame@@@Z 1016e950 f   Item.obj
 0001:0016d970       ?Save@idObjectiveComplete@@QBEXPAVidSaveGame@@@Z 1016e970 f   Item.obj
 0001:0016d970       ?Save@idTarget_Tip@@QBEXPAVidSaveGame@@@Z 1016e970 f   Target.obj
 0001:0016d990       ?Spawn@idItem@@QAEXXZ      1016e990 f   Item.obj
 0001:0016dd80       ?Spawn@idItemPowerup@@QAEXXZ 1016ed80 f   Item.obj
 0001:0016de10       ?Spawn@idMoveableItem@@QAEXXZ 1016ee10 f   Item.obj
 0001:0016e320       ?Spawn@idObjective@@QAEXXZ 1016f320 f   Item.obj
 0001:0016e360       ?Spawn@idObjectiveComplete@@QAEXXZ 1016f360 f   Item.obj
 0001:0016e390       ?Think@idItem@@UAEXXZ      1016f390 f   Item.obj
 0001:0016e490       ?Think@idMoveableItem@@UAEXXZ 1016f490 f   Item.obj
 0001:0016e590       ?WriteToSnapshot@idItem@@UBEXAAVidBitMsgDelta@@@Z 1016f590 f   Item.obj
 0001:0016e5b0       ?WriteToSnapshot@idMoveableItem@@UBEXAAVidBitMsgDelta@@@Z 1016f5b0 f   Item.obj
 0001:0016e5d0       ?Event_SetShader@idLight@@AAEXPBD@Z 1016f5d0 f   Light.obj
 0001:0016e5d0       ?SetShader@idLight@@QAEXPBD@Z 1016f5d0 f   Light.obj
 0001:0016e620       ?Event_GetLightParm@idLight@@AAEXH@Z 1016f620 f   Light.obj
 0001:0016e660       ?Event_SetLightParm@idLight@@AAEXHM@Z 1016f660 f   Light.obj
 0001:0016e660       ?SetLightParm@idLight@@QAEXHM@Z 1016f660 f   Light.obj
 0001:0016e6d0       ?Event_SetLightParms@idLight@@AAEXMMMM@Z 1016f6d0 f   Light.obj
 0001:0016e7a0       ?Event_SetRadiusXYZ@idLight@@AAEXMMM@Z 1016f7a0 f   Light.obj
 0001:0016e800       ?Event_SetRadius@idLight@@AAEXM@Z 1016f800 f   Light.obj
 0001:0016e860       ?Event_Hide@idLight@@AAEXXZ 1016f860 f   Light.obj
 0001:0016e8f0       ?Event_Show@idLight@@AAEXXZ 1016f8f0 f   Light.obj
 0001:0016e950       ?Event_On@idLight@@AAEXXZ  1016f950 f   Light.obj
 0001:0016e960       ?Event_Off@idLight@@AAEXXZ 1016f960 f   Light.obj
 0001:0016e960       ?Off@idLight@@QAEXXZ       1016f960 f   Light.obj
 0001:0016e9b0       ?Event_ToggleOnOff@idLight@@AAEXPAVidEntity@@@Z 1016f9b0 f   Light.obj
 0001:0016ea20       ?Event_SetSoundHandles@idLight@@AAEXXZ 1016fa20 f   Light.obj
 0001:0016eab0       ?Event_FadeOut@idLight@@AAEXM@Z 1016fab0 f   Light.obj
 0001:0016eab0       ?FadeOut@idLight@@QAEXM@Z  1016fab0 f   Light.obj
 0001:0016eb20       ?Event_FadeIn@idLight@@AAEXM@Z 1016fb20 f   Light.obj
 0001:0016eb20       ?FadeIn@idLight@@QAEXM@Z   1016fb20 f   Light.obj
 0001:0016ec00       ??_EidLight@@UAEPAXI@Z     1016fc00 f i Light.obj
 0001:0016ec00       ??_GidLight@@UAEPAXI@Z     1016fc00 f i Light.obj
 0001:0016ecb0       ?AngleNormalize360@idMath@@SAMM@Z 1016fcb0 f i Light.obj
 0001:0016ed20       ?BecomeBroken@idLight@@QAEXPAVidEntity@@@Z 1016fd20 f   Light.obj
 0001:0016f0a0       ?ClientPredictionThink@idBarrel@@UAEXXZ 101700a0 f   Moveable.obj
 0001:0016f0a0       ?ClientPredictionThink@idLight@@UAEXXZ 101700a0 f   Light.obj
 0001:0016f0b0       ?ClientReceiveEvent@idLight@@UAE_NHHABVidBitMsg@@@Z 101700b0 f   Light.obj
 0001:0016f0d0       ?CreateInstance@idLight@@SAPAVidClass@@XZ 101700d0 f   Light.obj
 0001:0016f360       ?Fade@idLight@@QAEXABVidVec4@@M@Z 10170360 f   Light.obj
 0001:0016f3c0       ?FreeLightDef@idLight@@UAEXXZ 101703c0 f   Light.obj
 0001:0016f3f0       ?GetColor@idLight@@UBEXAAVidVec3@@@Z 101703f0 f   Light.obj
 0001:0016f420       ?GetColor@idLight@@UBEXAAVidVec4@@@Z 10170420 f   Light.obj
 0001:0016f450       ?GetPhysicsToSoundTransform@idLight@@UAE_NAAVidVec3@@AAVidMat3@@@Z 10170450 f   Light.obj
 0001:0016f6d0       ?GetType@idLight@@UBEPAVidTypeInfo@@XZ 101706d0 f   Light.obj
 0001:0016f6e0       ?Killed@idLight@@UAEXPAVidEntity@@0HABVidVec3@@H@Z 101706e0 f   Light.obj
 0001:0016f6f0       ?On@idLight@@QAEXXZ        101706f0 f   Light.obj
 0001:0016f770       ?ParseSpawnArgsToRenderLight@idGameEdit@@UAEXPBVidDict@@PAUrenderLight_s@@@Z 10170770 f   Light.obj
 0001:0016fb50       ?Present@idLight@@UAEXXZ   10170b50 f   Light.obj
 0001:0016ff70       ?PresentLightDefChange@idLight@@AAEXXZ 10170f70 f   Light.obj
 0001:0016ffb0       ?PresentModelDefChange@idLight@@AAEXXZ 10170fb0 f   Light.obj
 0001:00170000       ?ReadFromSnapshot@idLight@@UAEXABVidBitMsgDelta@@@Z 10171000 f   Light.obj
 0001:001701c0       ?Restore@idLight@@QAEXPAVidRestoreGame@@@Z 101711c0 f   Light.obj
 0001:00170330       ?Save@idLight@@QBEXPAVidSaveGame@@@Z 10171330 f   Light.obj
 0001:00170430       ?SaveState@idLight@@QAEXPAVidDict@@@Z 10171430 f   Light.obj
 0001:001704b0       ?SetColor@idLight@@UAEXABVidVec4@@@Z 101714b0 f   Light.obj
 0001:001704f0       ?SetColor@idLight@@UAEXMMM@Z 101714f0 f   Light.obj
 0001:00170530       ?SetLightLevel@idLight@@QAEXXZ 10171530 f   Light.obj
 0001:00170610       ?ShowEditingDialog@idLight@@UAEXXZ 10171610 f   Light.obj
 0001:00170640       ?Spawn@idLight@@QAEXXZ     10171640 f   Light.obj
 0001:00170e80       ?Think@idLight@@UAEXXZ     10171e80 f   Light.obj
 0001:00170f20       ?UpdateChangeableSpawnArgs@idLight@@UAEXPBVidDict@@@Z 10171f20 f   Light.obj
 0001:00170fc0       ?WriteToSnapshot@idLight@@UBEXAAVidBitMsgDelta@@@Z 10171fc0 f   Light.obj
 0001:00171100       ?Event_TeleportPlayer@idPlayerStart@@AAEXPAVidEntity@@@Z 10172100 f   Misc.obj
 0001:00171200       ?Event_TeleportStage@idPlayerStart@@AAEXPAVidEntity@@@Z 10172200 f   Misc.obj
 0001:001713e0       ?Event_Activate@idActivator@@AAEXPAVidEntity@@@Z 101723e0 f   Misc.obj
 0001:001713e0       ?Event_Trigger@idTrigger_Touch@@AAEXPAVidEntity@@@Z 101723e0 f   Trigger.obj
 0001:00171400       ?Event_BecomeBroken@idDamagable@@AAEXPAVidEntity@@@Z 10172400 f   Misc.obj
 0001:00171410       ?Event_RestoreDamagable@idDamagable@@AAEXXZ 10172410 f   Misc.obj
 0001:00171450       ?Event_Explode@idExplodable@@AAEXPAVidEntity@@@Z 10172450 f   Misc.obj
 0001:00171540       ?Event_LinkSpring@idSpring@@AAEXXZ 10172540 f   Misc.obj
 0001:00171790       ?Event_Activate@idForceField@@AAEXPAVidEntity@@@Z 10172790 f   Misc.obj
 0001:001717f0       ?Event_Toggle@idForceField@@AAEXXZ 101727f0 f   Misc.obj
 0001:00171810       ?Event_FindTargets@idForceField@@AAEXXZ 10172810 f   Misc.obj
 0001:001718d0       ?Event_Activate@idAnimated@@AAEXPAVidEntity@@@Z 101728d0 f   Misc.obj
 0001:00171950       ?Event_Start@idAnimated@@AAEXXZ 10172950 f   Misc.obj
 0001:00171ab0       ?Event_StartRagdoll@idAnimated@@AAEXXZ 10172ab0 f   Misc.obj
 0001:00171b20       ?Event_AnimDone@idAnimated@@AAEXH@Z 10172b20 f   Misc.obj
 0001:00171c40       ?Event_LaunchMissiles@idAnimated@@AAEXPBD000HH@Z 10172c40 f   Misc.obj
 0001:00171de0       ?Event_LaunchMissilesUpdate@idAnimated@@AAEXHHHH@Z 10172de0 f   Misc.obj
 0001:00172170       ?Event_SetAnimation@idAnimated@@AAEXPBD@Z 10173170 f   Misc.obj
 0001:001721d0       ?Event_GetAnimationLength@idAnimated@@AAEXXZ 101731d0 f   Misc.obj
 0001:00172210       ?Event_Activate@idStaticEntity@@AAEXPAVidEntity@@@Z 10173210 f   Misc.obj
 0001:00172320       ?Event_Activate@idFuncEmitter@@QAEXPAVidEntity@@@Z 10173320 f   Misc.obj
 0001:001723d0       ?Event_Activate@idFuncSmoke@@QAEXPAVidEntity@@@Z 101733d0 f   Misc.obj
 0001:00172410       ?Event_Activate@idFuncSplat@@AAEXPAVidEntity@@@Z 10173410 f   Misc.obj
 0001:00172500       ?Event_Splat@idFuncSplat@@AAEXXZ 10173500 f   Misc.obj
 0001:00172690       ?Event_Activate@idVacuumSeparatorEntity@@QAEXPAVidEntity@@@Z 10173690 f   Misc.obj
 0001:001726b0       ?Event_MatchTarget@idBeam@@AAEXXZ 101736b0 f   Misc.obj
 0001:001727a0       ?Event_Activate@idBeam@@AAEXPAVidEntity@@@Z 101737a0 f   Misc.obj
 0001:001727d0       ?Event_Activate@idShaking@@AAEXPAVidEntity@@@Z 101737d0 f   Misc.obj
 0001:00172830       ?Event_Activate@idEarthQuake@@AAEXPAVidEntity@@@Z 10173830 f   Misc.obj
 0001:00172aa0       ?Event_Activate@idFuncPortal@@AAEXPAVidEntity@@@Z 10173aa0 f   Misc.obj
 0001:00172ae0       ?Event_Activate@idFuncAASPortal@@AAEXPAVidEntity@@@Z 10173ae0 f   Misc.obj
 0001:00172b20       ?Event_Activate@idFuncAASObstacle@@AAEXPAVidEntity@@@Z 10173b20 f   Misc.obj
 0001:00172b60       ?Event_Activate@idFuncRadioChatter@@AAEXPAVidEntity@@@Z 10173b60 f   Misc.obj
 0001:00172c30       ?Event_ResetRadioHud@idFuncRadioChatter@@AAEXPAVidEntity@@@Z 10173c30 f   Misc.obj
 0001:00172c80       ?Event_Activate@idPhantomObjects@@AAEXPAVidEntity@@@Z 10173c80 f   Misc.obj
 0001:00172f40       ?Event_Activate@idShockwave@@AAEXPAVidEntity@@@Z 10173f40 f   Misc.obj
 0001:00172f70       ?Event_Touch@idFuncMountedObject@@AAEXPAVidEntity@@PAUtrace_s@@@Z 10173f70 f   Misc.obj
 0001:00172f90       ?Event_Activate@idFuncMountedObject@@AAEXPAVidEntity@@@Z 10173f90 f   Misc.obj
 0001:00173050       ?Event_PostSpawn@idFuncMountedWeapon@@AAEXXZ 10174050 f   Misc.obj
 0001:00173120       ?Event_PostSpawn@idPortalSky@@QAEXXZ 10174120 f   Misc.obj
 0001:00173130       ?Event_Activate@idPortalSky@@QAEXPAVidEntity@@@Z 10174130 f   Misc.obj
 0001:00173140       ??0idStaticEntity@@QAE@XZ  10174140 f   Misc.obj
 0001:001731e0       ??_EidAnimated@@UAEPAXI@Z  101741e0 f i Misc.obj
 0001:001731e0       ??_GidAnimated@@UAEPAXI@Z  101741e0 f i Misc.obj
 0001:00173250       ??_EidBeam@@UAEPAXI@Z      10174250 f i Misc.obj
 0001:00173250       ??_EidDamagable@@UAEPAXI@Z 10174250 f i Misc.obj
 0001:00173250       ??_EidFuncPortal@@UAEPAXI@Z 10174250 f i Misc.obj
 0001:00173250       ??_EidTrigger_Touch@@UAEPAXI@Z 10174250 f i Trigger.obj
 0001:00173250       ??_GidBeam@@UAEPAXI@Z      10174250 f i Misc.obj
 0001:00173250       ??_GidDamagable@@UAEPAXI@Z 10174250 f i Misc.obj
 0001:00173250       ??_GidFuncPortal@@UAEPAXI@Z 10174250 f i Misc.obj
 0001:00173250       ??_GidTrigger_Touch@@UAEPAXI@Z 10174250 f i Trigger.obj
 0001:00173290       ??_EidEarthQuake@@UAEPAXI@Z 10174290 f i Misc.obj
 0001:00173290       ??_EidTarget_FadeEntity@@UAEPAXI@Z 10174290 f i Target.obj
 0001:00173290       ??_EidTarget_SetFov@@UAEPAXI@Z 10174290 f i Target.obj
 0001:00173290       ??_GidEarthQuake@@UAEPAXI@Z 10174290 f i Misc.obj
 0001:00173290       ??_GidTarget_FadeEntity@@UAEPAXI@Z 10174290 f i Target.obj
 0001:00173290       ??_GidTarget_SetFov@@UAEPAXI@Z 10174290 f i Target.obj
 0001:001732d0       ??_EidForceField@@UAEPAXI@Z 101742d0 f i Misc.obj
 0001:001732d0       ??_GidForceField@@UAEPAXI@Z 101742d0 f i Misc.obj
 0001:00173320       ??_EidFuncEmitter@@UAEPAXI@Z 10174320 f i Misc.obj
 0001:00173320       ??_EidFuncSplat@@UAEPAXI@Z 10174320 f i Misc.obj
 0001:00173320       ??_GidFuncEmitter@@UAEPAXI@Z 10174320 f i Misc.obj
 0001:00173320       ??_GidFuncSplat@@UAEPAXI@Z 10174320 f i Misc.obj
 0001:00173360       ??_EidFuncMountedObject@@UAEPAXI@Z 10174360 f i Misc.obj
 0001:00173360       ??_GidFuncMountedObject@@UAEPAXI@Z 10174360 f i Misc.obj
 0001:001733a0       ??_EidFuncMountedWeapon@@UAEPAXI@Z 101743a0 f i Misc.obj
 0001:001733a0       ??_GidFuncMountedWeapon@@UAEPAXI@Z 101743a0 f i Misc.obj
 0001:001733e0       ??_EidPhantomObjects@@UAEPAXI@Z 101743e0 f i Misc.obj
 0001:001733e0       ??_GidPhantomObjects@@UAEPAXI@Z 101743e0 f i Misc.obj
 0001:00173480       ??_EidPortalSky@@UAEPAXI@Z 10174480 f i Misc.obj
 0001:00173480       ??_GidPortalSky@@UAEPAXI@Z 10174480 f i Misc.obj
 0001:001734c0       ??_EidBobber@@UAEPAXI@Z    101744c0 f i Mover.obj
 0001:001734c0       ??_EidMover_Periodic@@UAEPAXI@Z 101744c0 f i Mover.obj
 0001:001734c0       ??_EidPendulum@@UAEPAXI@Z  101744c0 f i Mover.obj
 0001:001734c0       ??_EidRiser@@UAEPAXI@Z     101744c0 f i Mover.obj
 0001:001734c0       ??_EidShaking@@UAEPAXI@Z   101744c0 f i Misc.obj
 0001:001734c0       ??_GidBobber@@UAEPAXI@Z    101744c0 f i Mover.obj
 0001:001734c0       ??_GidMover_Periodic@@UAEPAXI@Z 101744c0 f i Mover.obj
 0001:001734c0       ??_GidPendulum@@UAEPAXI@Z  101744c0 f i Mover.obj
 0001:001734c0       ??_GidRiser@@UAEPAXI@Z     101744c0 f i Mover.obj
 0001:001734c0       ??_GidShaking@@UAEPAXI@Z   101744c0 f i Misc.obj
 0001:00173510       ??_EidShockwave@@UAEPAXI@Z 10174510 f i Misc.obj
 0001:00173510       ??_GidShockwave@@UAEPAXI@Z 10174510 f i Misc.obj
 0001:00173550       ??_EidSpring@@UAEPAXI@Z    10174550 f i Misc.obj
 0001:00173550       ??_GidSpring@@UAEPAXI@Z    10174550 f i Misc.obj
 0001:001735a0       ??_EidStaticEntity@@UAEPAXI@Z 101745a0 f i Misc.obj
 0001:001735a0       ??_GidStaticEntity@@UAEPAXI@Z 101745a0 f i Misc.obj
 0001:001735e0       ??_EidTextEntity@@UAEPAXI@Z 101745e0 f i Misc.obj
 0001:001735e0       ??_GidTextEntity@@UAEPAXI@Z 101745e0 f i Misc.obj
 0001:00173670       ?BecomeBroken@idDamagable@@AAEXPAVidEntity@@@Z 10174670 f   Misc.obj
 0001:00173900       ?BeginShaking@idShaking@@AAEXXZ 10174900 f   Misc.obj
 0001:00173a00       ?ClientReceiveEvent@idPlayerStart@@UAE_NHHABVidBitMsg@@@Z 10174a00 f   Misc.obj
 0001:00173b60       ?CreateInstance@idActivator@@SAPAVidClass@@XZ 10174b60 f   Misc.obj
 0001:00173c10       ?CreateInstance@idAnimated@@SAPAVidClass@@XZ 10174c10 f   Misc.obj
 0001:00173d10       ?CreateInstance@idBeam@@SAPAVidClass@@XZ 10174d10 f   Misc.obj
 0001:00173dd0       ?CreateInstance@idDamagable@@SAPAVidClass@@XZ 10174dd0 f   Misc.obj
 0001:00173e90       ?CreateInstance@idEarthQuake@@SAPAVidClass@@XZ 10174e90 f   Misc.obj
 0001:00173f80       ?CreateInstance@idExplodable@@SAPAVidClass@@XZ 10174f80 f   Misc.obj
 0001:00174030       ?CreateInstance@idForceField@@SAPAVidClass@@XZ 10175030 f   Misc.obj
 0001:001740f0       ?CreateInstance@idFuncAASObstacle@@SAPAVidClass@@XZ 101750f0 f   Misc.obj
 0001:001741a0       ?CreateInstance@idFuncAASPortal@@SAPAVidClass@@XZ 101751a0 f   Misc.obj
 0001:00174250       ?CreateInstance@idFuncEmitter@@SAPAVidClass@@XZ 10175250 f   Misc.obj
 0001:00174300       ?CreateInstance@idFuncMountedObject@@SAPAVidClass@@XZ 10175300 f   Misc.obj
 0001:001743e0       ?CreateInstance@idFuncMountedWeapon@@SAPAVidClass@@XZ 101753e0 f   Misc.obj
 0001:001744f0       ?CreateInstance@idFuncPortal@@SAPAVidClass@@XZ 101754f0 f   Misc.obj
 0001:001745b0       ?CreateInstance@idFuncRadioChatter@@SAPAVidClass@@XZ 101755b0 f   Misc.obj
 0001:00174660       ?CreateInstance@idFuncSmoke@@SAPAVidClass@@XZ 10175660 f   Misc.obj
 0001:00174730       ?CreateInstance@idFuncSplat@@SAPAVidClass@@XZ 10175730 f   Misc.obj
 0001:001747e0       ?CreateInstance@idLiquid@@SAPAVidClass@@XZ 101757e0 f   Misc.obj
 0001:00174890       ?CreateInstance@idLocationEntity@@SAPAVidClass@@XZ 10175890 f   Misc.obj
 0001:00174940       ?CreateInstance@idLocationSeparatorEntity@@SAPAVidClass@@XZ 10175940 f   Misc.obj
 0001:001749f0       ?CreateInstance@idPathCorner@@SAPAVidClass@@XZ 101759f0 f   Misc.obj
 0001:00174aa0       ?CreateInstance@idPhantomObjects@@SAPAVidClass@@XZ 10175aa0 f   Misc.obj
 0001:00174c10       ?CreateInstance@idPlayerStart@@SAPAVidClass@@XZ 10175c10 f   Misc.obj
 0001:00174cc0       ?CreateInstance@idPortalSky@@SAPAVidClass@@XZ 10175cc0 f   Misc.obj
 0001:00174d70       ?CreateInstance@idShaking@@SAPAVidClass@@XZ 10175d70 f   Misc.obj
 0001:00174e30       ?CreateInstance@idShockwave@@SAPAVidClass@@XZ 10175e30 f   Misc.obj
 0001:00174f40       ?CreateInstance@idSpawnableEntity@@SAPAVidClass@@XZ 10175f40 f   Misc.obj
 0001:00174ff0       ?CreateInstance@idSpring@@SAPAVidClass@@XZ 10175ff0 f   Misc.obj
 0001:001750b0       ?CreateInstance@idStaticEntity@@SAPAVidClass@@XZ 101760b0 f   Misc.obj
 0001:00175150       ?CreateInstance@idTextEntity@@SAPAVidClass@@XZ 10176150 f   Misc.obj
 0001:00175220       ?CreateInstance@idVacuumEntity@@SAPAVidClass@@XZ 10176220 f   Misc.obj
 0001:001752d0       ?CreateInstance@idVacuumSeparatorEntity@@SAPAVidClass@@XZ 101762d0 f   Misc.obj
 0001:00175380       ?DrawDebugInfo@idPathCorner@@SAXXZ 10176380 f   Misc.obj
 0001:00175440       ?Fade@idStaticEntity@@QAEXABVidVec4@@M@Z 10176440 f   Misc.obj
 0001:001754a0       ?GetAngleRestrictions@idFuncMountedObject@@QAEXAAH00@Z 101764a0 f   Misc.obj
 0001:00175670       ?GetLocation@idLocationEntity@@QBEPBDXZ 10176670 f   Misc.obj
 0001:00175690       ?GetPhysicsToSoundTransform@idAnimated@@UAE_NAAVidVec3@@AAVidMat3@@@Z 10176690 f   Misc.obj
 0001:00175710       ?GetType@idActivator@@UBEPAVidTypeInfo@@XZ 10176710 f   Misc.obj
 0001:00175720       ?GetType@idAnimated@@UBEPAVidTypeInfo@@XZ 10176720 f   Misc.obj
 0001:00175730       ?GetType@idBeam@@UBEPAVidTypeInfo@@XZ 10176730 f   Misc.obj
 0001:00175740       ?GetType@idDamagable@@UBEPAVidTypeInfo@@XZ 10176740 f   Misc.obj
 0001:00175750       ?GetType@idEarthQuake@@UBEPAVidTypeInfo@@XZ 10176750 f   Misc.obj
 0001:00175760       ?GetType@idExplodable@@UBEPAVidTypeInfo@@XZ 10176760 f   Misc.obj
 0001:00175770       ?GetType@idForceField@@UBEPAVidTypeInfo@@XZ 10176770 f   Misc.obj
 0001:00175780       ?GetType@idFuncAASObstacle@@UBEPAVidTypeInfo@@XZ 10176780 f   Misc.obj
 0001:00175790       ?GetType@idFuncAASPortal@@UBEPAVidTypeInfo@@XZ 10176790 f   Misc.obj
 0001:001757a0       ?GetType@idFuncEmitter@@UBEPAVidTypeInfo@@XZ 101767a0 f   Misc.obj
 0001:001757b0       ?GetType@idFuncMountedObject@@UBEPAVidTypeInfo@@XZ 101767b0 f   Misc.obj
 0001:001757c0       ?GetType@idFuncMountedWeapon@@UBEPAVidTypeInfo@@XZ 101767c0 f   Misc.obj
 0001:001757d0       ?GetType@idFuncPortal@@UBEPAVidTypeInfo@@XZ 101767d0 f   Misc.obj
 0001:001757e0       ?GetType@idFuncRadioChatter@@UBEPAVidTypeInfo@@XZ 101767e0 f   Misc.obj
 0001:001757f0       ?GetType@idFuncSmoke@@UBEPAVidTypeInfo@@XZ 101767f0 f   Misc.obj
 0001:00175800       ?GetType@idFuncSplat@@UBEPAVidTypeInfo@@XZ 10176800 f   Misc.obj
 0001:00175810       ?GetType@idLiquid@@UBEPAVidTypeInfo@@XZ 10176810 f   Misc.obj
 0001:00175820       ?GetType@idLocationEntity@@UBEPAVidTypeInfo@@XZ 10176820 f   Misc.obj
 0001:00175830       ?GetType@idLocationSeparatorEntity@@UBEPAVidTypeInfo@@XZ 10176830 f   Misc.obj
 0001:00175840       ?GetType@idPathCorner@@UBEPAVidTypeInfo@@XZ 10176840 f   Misc.obj
 0001:00175850       ?GetType@idPhantomObjects@@UBEPAVidTypeInfo@@XZ 10176850 f   Misc.obj
 0001:00175860       ?GetType@idPlayerStart@@UBEPAVidTypeInfo@@XZ 10176860 f   Misc.obj
 0001:00175870       ?GetType@idPortalSky@@UBEPAVidTypeInfo@@XZ 10176870 f   Misc.obj
 0001:00175880       ?GetType@idShaking@@UBEPAVidTypeInfo@@XZ 10176880 f   Misc.obj
 0001:00175890       ?GetType@idShockwave@@UBEPAVidTypeInfo@@XZ 10176890 f   Misc.obj
 0001:001758a0       ?GetType@idSpawnableEntity@@UBEPAVidTypeInfo@@XZ 101768a0 f   Misc.obj
 0001:001758b0       ?GetType@idSpring@@UBEPAVidTypeInfo@@XZ 101768b0 f   Misc.obj
 0001:001758c0       ?GetType@idStaticEntity@@UBEPAVidTypeInfo@@XZ 101768c0 f   Misc.obj
 0001:001758d0       ?GetType@idTextEntity@@UBEPAVidTypeInfo@@XZ 101768d0 f   Misc.obj
 0001:001758e0       ?GetType@idVacuumEntity@@UBEPAVidTypeInfo@@XZ 101768e0 f   Misc.obj
 0001:001758f0       ?GetType@idVacuumSeparatorEntity@@UBEPAVidTypeInfo@@XZ 101768f0 f   Misc.obj
 0001:00175900       ?Hide@idDamagable@@UAEXXZ  10176900 f   Misc.obj
 0001:00175900       ?Hide@idStaticEntity@@UAEXXZ 10176900 f   Misc.obj
 0001:00175920       ?Killed@idDamagable@@UAEXPAVidEntity@@0HABVidVec3@@H@Z 10176920 f   Misc.obj
 0001:00175950       ?LoadAF@idAnimated@@UAE_NXZ 10176950 f   Misc.obj
 0001:00175a30       ?PlayNextAnim@idAnimated@@AAEXXZ 10176a30 f   Misc.obj
 0001:00175c80       ?RandomPath@idPathCorner@@SAPAV1@PBVidEntity@@0@Z 10176c80 f   Misc.obj
 0001:00175d40       ?ReadFromSnapshot@idBeam@@UAEXABVidBitMsgDelta@@@Z 10176d40 f   Misc.obj
 0001:00175dd0       ?ReadFromSnapshot@idFuncEmitter@@UAEXABVidBitMsgDelta@@@Z 10176dd0 f   Misc.obj
 0001:00175e40       ?ReadFromSnapshot@idStaticEntity@@UAEXABVidBitMsgDelta@@@Z 10176e40 f   Misc.obj
 0001:00175ec0       ?Restore@idActivator@@QAEXPAVidRestoreGame@@@Z 10176ec0 f   Misc.obj
 0001:00175ef0       ?Restore@idAnimated@@QAEXPAVidRestoreGame@@@Z 10176ef0 f   Misc.obj
 0001:00175f60       ?Restore@idBeam@@QAEXPAVidRestoreGame@@@Z 10176f60 f   Misc.obj
 0001:00175f60       ?Restore@idDamagable@@QAEXPAVidRestoreGame@@@Z 10176f60 f   Misc.obj
 0001:00175f90       ?Restore@idEarthQuake@@QAEXPAVidRestoreGame@@@Z 10176f90 f   Misc.obj
 0001:00176030       ?Restore@idForceField@@QAEXPAVidRestoreGame@@@Z 10177030 f   Misc.obj
 0001:00176050       ?Restore@idFuncAASObstacle@@QAEXPAVidRestoreGame@@@Z 10177050 f   Misc.obj
 0001:00176090       ?Restore@idFuncAASPortal@@QAEXPAVidRestoreGame@@@Z 10177090 f   Misc.obj
 0001:001760d0       ?Restore@idFuncEmitter@@QAEXPAVidRestoreGame@@@Z 101770d0 f   Misc.obj
 0001:001760f0       ?Restore@idFuncPortal@@QAEXPAVidRestoreGame@@@Z 101770f0 f   Misc.obj
 0001:00176140       ?Restore@idFuncRadioChatter@@QAEXPAVidRestoreGame@@@Z 10177140 f   Misc.obj
 0001:00176160       ?Restore@idFuncSmoke@@QAEXPAVidRestoreGame@@@Z 10177160 f   Misc.obj
 0001:001761a0       ?Restore@idPhantomObjects@@QAEXPAVidRestoreGame@@@Z 101771a0 f   Misc.obj
 0001:001762e0       ?Restore@idPlayerStart@@QAEXPAVidRestoreGame@@@Z 101772e0 f   Misc.obj
 0001:00176300       ?Restore@idPortalSky@@QAEXPAVidRestoreGame@@@Z 10177300 f   Misc.obj
 0001:00176320       ?Restore@idShaking@@QAEXPAVidRestoreGame@@@Z 10177320 f   Misc.obj
 0001:00176360       ?Restore@idShockwave@@QAEXPAVidRestoreGame@@@Z 10177360 f   Misc.obj
 0001:00176400       ?Restore@idStaticEntity@@QAEXPAVidRestoreGame@@@Z 10177400 f   Misc.obj
 0001:00176470       ?Restore@idTextEntity@@QAEXPAVidRestoreGame@@@Z 10177470 f   Misc.obj
 0001:001764a0       ?Restore@idVacuumSeparatorEntity@@QAEXPAVidRestoreGame@@@Z 101774a0 f   Misc.obj
 0001:001764e0       ?Save@idActivator@@QBEXPAVidSaveGame@@@Z 101774e0 f   Misc.obj
 0001:001764e0       ?Save@idFuncAASObstacle@@QBEXPAVidSaveGame@@@Z 101774e0 f   Misc.obj
 0001:001764e0       ?Save@idFuncAASPortal@@QBEXPAVidSaveGame@@@Z 101774e0 f   Misc.obj
 0001:001764e0       ?Save@idPortalSky@@QBEXPAVidSaveGame@@@Z 101774e0 f   Misc.obj
 0001:00176500       ?Save@idAnimated@@QBEXPAVidSaveGame@@@Z 10177500 f   Misc.obj
 0001:00176570       ?Save@idBeam@@QBEXPAVidSaveGame@@@Z 10177570 f   Misc.obj
 0001:00176570       ?Save@idDamagable@@QBEXPAVidSaveGame@@@Z 10177570 f   Misc.obj
 0001:001765a0       ?Save@idEarthQuake@@QBEXPAVidSaveGame@@@Z 101775a0 f   Misc.obj
 0001:00176640       ?Save@idForceField@@QBEXPAVidSaveGame@@@Z 10177640 f   Misc.obj
 0001:00176660       ?Save@idFuncEmitter@@QBEXPAVidSaveGame@@@Z 10177660 f   Misc.obj
 0001:00176680       ?Save@idFuncPortal@@QBEXPAVidSaveGame@@@Z 10177680 f   Misc.obj
 0001:001766b0       ?Save@idFuncRadioChatter@@QBEXPAVidSaveGame@@@Z 101776b0 f   Misc.obj
 0001:001766d0       ?Save@idFuncSmoke@@QBEXPAVidSaveGame@@@Z 101776d0 f   Misc.obj
 0001:00176710       ?Save@idPhantomObjects@@QBEXPAVidSaveGame@@@Z 10177710 f   Misc.obj
 0001:00176810       ?Save@idPlayerStart@@QBEXPAVidSaveGame@@@Z 10177810 f   Misc.obj
 0001:00176830       ?Save@idShaking@@QBEXPAVidSaveGame@@@Z 10177830 f   Misc.obj
 0001:00176860       ?Save@idShockwave@@QBEXPAVidSaveGame@@@Z 10177860 f   Misc.obj
 0001:00176930       ?Save@idStaticEntity@@QBEXPAVidSaveGame@@@Z 10177930 f   Misc.obj
 0001:001769a0       ?Save@idTextEntity@@QBEXPAVidSaveGame@@@Z 101779a0 f   Misc.obj
 0001:001769d0       ?Save@idVacuumSeparatorEntity@@QBEXPAVidSaveGame@@@Z 101779d0 f   Misc.obj
 0001:00176a10       ?Show@idBeam@@UAEXXZ       10177a10 f   Misc.obj
 0001:00176ab0       ?Show@idDamagable@@UAEXXZ  10177ab0 f   Misc.obj
 0001:00176ad0       ?Show@idStaticEntity@@UAEXXZ 10177ad0 f   Misc.obj
 0001:00176b20       ?ShowEditingDialog@idStaticEntity@@UAEXXZ 10177b20 f   Misc.obj
 0001:00176b40       ?Spawn@idActivator@@QAEXXZ 10177b40 f   Misc.obj
 0001:00176c30       ?Spawn@idAnimated@@QAEXXZ  10177c30 f   Misc.obj
 0001:00176fd0       ?Spawn@idBeam@@QAEXXZ      10177fd0 f   Misc.obj
 0001:00177030       ?Spawn@idDamagable@@QAEXXZ 10178030 f   Misc.obj
 0001:001771b0       ?Spawn@idEarthQuake@@QAEXXZ 101781b0 f   Misc.obj
 0001:00177320       ?Spawn@idForceField@@QAEXXZ 10178320 f   Misc.obj
 0001:00177580       ?Spawn@idFuncAASObstacle@@QAEXXZ 10178580 f   Misc.obj
 0001:001775e0       ?Spawn@idFuncAASPortal@@QAEXXZ 101785e0 f   Misc.obj
 0001:00177640       ?Spawn@idFuncEmitter@@QAEXXZ 10178640 f   Misc.obj
 0001:001776a0       ?Spawn@idFuncMountedObject@@QAEXXZ 101786a0 f   Misc.obj
 0001:00177810       ?Spawn@idFuncMountedWeapon@@QAEXXZ 10178810 f   Misc.obj
 0001:00177960       ?Spawn@idFuncPortal@@QAEXXZ 10178960 f   Misc.obj
 0001:00177a50       ?Spawn@idFuncRadioChatter@@QAEXXZ 10178a50 f   Misc.obj
 0001:00177aa0       ?Spawn@idFuncSmoke@@QAEXXZ 10178aa0 f   Misc.obj
 0001:00177b60       ?Spawn@idLocationEntity@@QAEXXZ 10178b60 f   Misc.obj
 0001:00177c30       ?Spawn@idLocationSeparatorEntity@@QAEXXZ 10178c30 f   Misc.obj
 0001:00177d10       ?Spawn@idPhantomObjects@@QAEXXZ 10178d10 f   Misc.obj
 0001:00177ee0       ?Spawn@idPlayerStart@@QAEXXZ 10178ee0 f   Misc.obj
 0001:00177ef0       ?Spawn@idPortalSky@@QAEXXZ 10178ef0 f   Misc.obj
 0001:00177f40       ?Spawn@idShaking@@QAEXXZ   10178f40 f   Misc.obj
 0001:00178060       ?Spawn@idShockwave@@QAEXXZ 10179060 f   Misc.obj
 0001:00178150       ?Spawn@idSpring@@QAEXXZ    10179150 f   Misc.obj
 0001:00178260       ?Spawn@idStaticEntity@@QAEXXZ 10179260 f   Misc.obj
 0001:001784e0       ?Spawn@idTextEntity@@QAEXXZ 101794e0 f   Misc.obj
 0001:00178590       ?Spawn@idVacuumEntity@@QAEXXZ 10179590 f   Misc.obj
 0001:001785e0       ?Spawn@idVacuumSeparatorEntity@@QAEXXZ 101795e0 f   Misc.obj
 0001:001786d0       ?TeleportPlayer@idPlayerStart@@AAEXPAVidPlayer@@@Z 101796d0 f   Misc.obj
 0001:001788b0       ?Think@idActivator@@UAEXXZ 101798b0 f   Misc.obj
 0001:001788f0       ?Think@idBeam@@UAEXXZ      101798f0 f   Misc.obj
 0001:001789d0       ?Think@idEarthQuake@@UAEXXZ 101799d0 f   Misc.obj
 0001:00178aa0       ?Think@idFuncMountedObject@@UAEXXZ 10179aa0 f   Misc.obj
 0001:00178ab0       ?Think@idFuncMountedWeapon@@UAEXXZ 10179ab0 f   Misc.obj
 0001:00178d60       ?Think@idFuncSmoke@@UAEXXZ 10179d60 f   Misc.obj
 0001:00178e70       ?Think@idPhantomObjects@@UAEXXZ 10179e70 f   Misc.obj
 0001:001792b0       ?Think@idShockwave@@UAEXXZ 1017a2b0 f   Misc.obj
 0001:00179a50       ?Think@idSpring@@UAEXXZ    1017aa50 f   Misc.obj
 0001:00179da0       ?Think@idStaticEntity@@UAEXXZ 1017ada0 f   Misc.obj
 0001:00179eb0       ?Think@idTextEntity@@UAEXXZ 1017aeb0 f   Misc.obj
 0001:0017a060       ?WriteToSnapshot@idBeam@@UBEXAAVidBitMsgDelta@@@Z 1017b060 f   Misc.obj
 0001:0017a0e0       ?WriteToSnapshot@idFuncEmitter@@UBEXAAVidBitMsgDelta@@@Z 1017b0e0 f   Misc.obj
 0001:0017a140       ?WriteToSnapshot@idStaticEntity@@UBEXAAVidBitMsgDelta@@@Z 1017b140 f   Misc.obj
 0001:0017a190       ?Event_Activate@idMoveable@@IAEXPAVidEntity@@@Z 1017b190 f   Moveable.obj
 0001:0017a320       ?Event_BecomeNonSolid@idMoveable@@IAEXXZ 1017b320 f   Moveable.obj
 0001:0017a350       ?Event_SetOwnerFromSpawnArgs@idMoveable@@IAEXXZ 1017b350 f   Moveable.obj
 0001:0017a430       ?Event_IsAtRest@idMoveable@@IAEXXZ 1017b430 f   Moveable.obj
 0001:0017a450       ?Event_EnableDamage@idMoveable@@IAEXM@Z 1017b450 f   Moveable.obj
 0001:0017a490       ?Event_Activate@idExplodingBarrel@@AAEXPAVidEntity@@@Z 1017b490 f   Moveable.obj
 0001:0017a4b0       ?Event_Respawn@idExplodingBarrel@@AAEXXZ 1017b4b0 f   Moveable.obj
 0001:0017a770       ?Event_Explode@idExplodingBarrel@@AAEXXZ 1017b770 f   Moveable.obj
 0001:0017a7a0       ?Event_TriggerTargets@idExplodingBarrel@@AAEXXZ 1017b7a0 f   Moveable.obj
 0001:0017a7b0       ??0idBarrel@@QAE@XZ        1017b7b0 f   Moveable.obj
 0001:0017a930       ??0idMoveable@@QAE@XZ      1017b930 f   Moveable.obj
 0001:0017aa90       ??1idMoveable@@UAE@XZ      1017ba90 f   Moveable.obj
 0001:0017ab40       ??_EidBarrel@@UAEPAXI@Z    1017bb40 f i Moveable.obj
 0001:0017ab40       ??_GidBarrel@@UAEPAXI@Z    1017bb40 f i Moveable.obj
 0001:0017ab80       ??_EidExplodingBarrel@@UAEPAXI@Z 1017bb80 f i Moveable.obj
 0001:0017ab80       ??_GidExplodingBarrel@@UAEPAXI@Z 1017bb80 f i Moveable.obj
 0001:0017ac30       ??_EidMoveable@@UAEPAXI@Z  1017bc30 f i Moveable.obj
 0001:0017ac30       ??_GidMoveable@@UAEPAXI@Z  1017bc30 f i Moveable.obj
 0001:0017ac70       ?AddParticles@idExplodingBarrel@@AAEXPBD_N@Z 1017bc70 f   Moveable.obj
 0001:0017ae40       ?BarrelThink@idBarrel@@QAEXXZ 1017be40 f   Moveable.obj
 0001:0017b3d0       ?ClientReceiveEvent@idExplodingBarrel@@UAE_NHHABVidBitMsg@@@Z 1017c3d0 f   Moveable.obj
 0001:0017b450       ?Collide@idMoveable@@UAE_NABUtrace_s@@ABVidVec3@@@Z 1017c450 f   Moveable.obj
 0001:0017b880       ?CreateInstance@idBarrel@@SAPAVidClass@@XZ 1017c880 f   Moveable.obj
 0001:0017b920       ?CreateInstance@idExplodingBarrel@@SAPAVidClass@@XZ 1017c920 f   Moveable.obj
 0001:0017ba70       ?CreateInstance@idMoveable@@SAPAVidClass@@XZ 1017ca70 f   Moveable.obj
 0001:0017bb10       ?Damage@idExplodingBarrel@@UAEXPAVidEntity@@0ABVidVec3@@PBDMH@Z 1017cb10 f   Moveable.obj
 0001:0017bbb0       ?EnableDamage@idMoveable@@QAEX_NM@Z 1017cbb0 f   Moveable.obj
 0001:0017bc20       ?ExplodingEffects@idExplodingBarrel@@AAEXXZ 1017cc20 f   Moveable.obj
 0001:0017bed0       ?FollowInitialSplinePath@idMoveable@@IAE_NXZ 1017ced0 f   Moveable.obj
 0001:0017c280       ?GetPhysicsToVisualTransform@idBarrel@@UAE_NAAVidVec3@@AAVidMat3@@@Z 1017d280 f   Moveable.obj
 0001:0017c310       ?GetType@idBarrel@@UBEPAVidTypeInfo@@XZ 1017d310 f   Moveable.obj
 0001:0017c320       ?GetType@idExplodingBarrel@@UBEPAVidTypeInfo@@XZ 1017d320 f   Moveable.obj
 0001:0017c330       ?GetType@idMoveable@@UBEPAVidTypeInfo@@XZ 1017d330 f   Moveable.obj
 0001:0017c340       ?Hide@idMoveable@@UAEXXZ   1017d340 f   Moveable.obj
 0001:0017c340       ?Hide@idMover@@UAEXXZ      1017d340 f   Mover.obj
 0001:0017c360       ?InitInitialSpline@idMoveable@@IAEXH@Z 1017d360 f   Moveable.obj
 0001:0017c5d0       ?Killed@idExplodingBarrel@@UAEXPAVidEntity@@0HABVidVec3@@H@Z 1017d5d0 f   Moveable.obj
 0001:0017c9d0       ?Killed@idMoveable@@UAEXPAVidEntity@@0HABVidVec3@@H@Z 1017d9d0 f   Moveable.obj
 0001:0017ca60       ?ReadFromSnapshot@idExplodingBarrel@@UAEXABVidBitMsgDelta@@@Z 1017da60 f   Moveable.obj
 0001:0017cab0       ?ReadFromSnapshot@idMoveable@@UAEXABVidBitMsgDelta@@@Z 1017dab0 f   Moveable.obj
 0001:0017cae0       ?Restore@idBarrel@@QAEXPAVidRestoreGame@@@Z 1017dae0 f   Moveable.obj
 0001:0017cb50       ?Restore@idExplodingBarrel@@QAEXPAVidRestoreGame@@@Z 1017db50 f   Moveable.obj
 0001:0017cc30       ?Restore@idMoveable@@QAEXPAVidRestoreGame@@@Z 1017dc30 f   Moveable.obj
 0001:0017cd50       ?Save@idBarrel@@QBEXPAVidSaveGame@@@Z 1017dd50 f   Moveable.obj
 0001:0017cdc0       ?Save@idExplodingBarrel@@QBEXPAVidSaveGame@@@Z 1017ddc0 f   Moveable.obj
 0001:0017ce70       ?Save@idMoveable@@QBEXPAVidSaveGame@@@Z 1017de70 f   Moveable.obj
 0001:0017cf90       ?SetAttacker@idMoveable@@QAEXPAVidEntity@@@Z 1017df90 f   Moveable.obj
 0001:0017cfa0       ?SetStability@idExplodingBarrel@@QAEX_N@Z 1017dfa0 f   Moveable.obj
 0001:0017cfb0       ?Show@idMoveable@@UAEXXZ   1017dfb0 f   Moveable.obj
 0001:0017d000       ?Spawn@idBarrel@@QAEXXZ    1017e000 f   Moveable.obj
 0001:0017d170       ?Spawn@idExplodingBarrel@@QAEXXZ 1017e170 f   Moveable.obj
 0001:0017d2e0       ?Spawn@idMoveable@@QAEXXZ  1017e2e0 f   Moveable.obj
 0001:0017da50       ?StartBurning@idExplodingBarrel@@QAEXXZ 1017ea50 f   Moveable.obj
 0001:0017da70       ?StopBurning@idExplodingBarrel@@QAEXXZ 1017ea70 f   Moveable.obj
 0001:0017dac0       ?Think@idBarrel@@UAEXXZ    1017eac0 f   Moveable.obj
 0001:0017daf0       ?Think@idExplodingBarrel@@UAEXXZ 1017eaf0 f   Moveable.obj
 0001:0017dda0       ?Think@idMoveable@@UAEXXZ  1017eda0 f   Moveable.obj
 0001:0017ddd0       ?WriteToSnapshot@idExplodingBarrel@@UBEXAAVidBitMsgDelta@@@Z 1017edd0 f   Moveable.obj
 0001:0017de10       ?WriteToSnapshot@idMoveable@@UBEXAAVidBitMsgDelta@@@Z 1017ee10 f   Moveable.obj
 0001:0017de30       ?Event_OpenPortal@idMover@@IAEXXZ 1017ee30 f   Mover.obj
 0001:0017de50       ?Event_ClosePortal@idMover@@IAEXXZ 1017ee50 f   Mover.obj
 0001:0017de70       ?Event_PartBlocked@idMover@@IAEXPAVidEntity@@@Z 1017ee70 f   Mover.obj
 0001:0017dee0       ?Event_SetCallback@idMover@@AAEXXZ 1017eee0 f   Mover.obj
 0001:0017df70       ?Event_TeamBlocked@idMover@@AAEXPAVidEntity@@0@Z 1017ef70 f   Mover.obj
 0001:0017dfb0       ?Event_StopMoving@idMover@@AAEXXZ 1017efb0 f   Mover.obj
 0001:0017dfd0       ?Event_StopRotating@idMover@@AAEXXZ 1017efd0 f   Mover.obj
 0001:0017e010       ?Event_UpdateMove@idMover@@AAEXXZ 1017f010 f   Mover.obj
 0001:0017e170       ?Event_UpdateRotation@idMover@@AAEXXZ 1017f170 f   Mover.obj
 0001:0017e370       ?Event_SetMoveSpeed@idMover@@AAEXM@Z 1017f370 f   Mover.obj
 0001:0017e3b0       ?Event_SetMoveTime@idMover@@AAEXM@Z 1017f3b0 f   Mover.obj
 0001:0017e410       ?Event_SetDecelerationTime@idMover@@AAEXM@Z 1017f410 f   Mover.obj
 0001:0017e460       ?Event_SetAccellerationTime@idMover@@AAEXM@Z 1017f460 f   Mover.obj
 0001:0017e4b0       ?Event_MoveTo@idMover@@AAEXPAVidEntity@@@Z 1017f4b0 f   Mover.obj
 0001:0017e530       ?Event_MoveToPos@idMover@@AAEXAAVidVec3@@@Z 1017f530 f   Mover.obj
 0001:0017e530       ?MoveToPos@idMover@@IAEXABVidVec3@@@Z 1017f530 f   Mover.obj
 0001:0017e570       ?Event_MoveDir@idMover@@AAEXMM@Z 1017f570 f   Mover.obj
 0001:0017e610       ?Event_MoveAccelerateTo@idMover@@AAEXMM@Z 1017f610 f   Mover.obj
 0001:0017e7e0       ?Event_MoveDecelerateTo@idMover@@AAEXMM@Z 1017f7e0 f   Mover.obj
 0001:0017e9b0       ?Event_RotateDownTo@idMover@@AAEXHM@Z 1017f9b0 f   Mover.obj
 0001:0017ea30       ?Event_RotateUpTo@idMover@@AAEXHM@Z 1017fa30 f   Mover.obj
 0001:0017eab0       ?Event_RotateTo@idMover@@AAEXAAVidAngles@@@Z 1017fab0 f   Mover.obj
 0001:0017eaf0       ?Event_Rotate@idMover@@AAEXAAVidAngles@@@Z 1017faf0 f   Mover.obj
 0001:0017ebb0       ?Event_RotateOnce@idMover@@AAEXAAVidAngles@@@Z 1017fbb0 f   Mover.obj
 0001:0017ec30       ?Event_Bob@idMover@@AAEXMMAAVidVec3@@@Z 1017fc30 f   Mover.obj
 0001:0017ecc0       ?Event_Sway@idMover@@AAEXMMAAVidAngles@@@Z 1017fcc0 f   Mover.obj
 0001:0017ee10       ?Event_FindGuiTargets@idMover@@AAEXXZ 1017fe10 f   Mover.obj
 0001:0017ee30       ?Event_InitGuiTargets@idMover@@AAEXXZ 1017fe30 f   Mover.obj
 0001:0017ee40       ?Event_EnableSplineAngles@idMover@@AAEXXZ 1017fe40 f   Mover.obj
 0001:0017ee50       ?Event_DisableSplineAngles@idMover@@AAEXXZ 1017fe50 f   Mover.obj
 0001:0017ee60       ?Event_RemoveInitialSplineAngles@idMover@@AAEXXZ 1017fe60 f   Mover.obj
 0001:0017eef0       ?Event_StartSpline@idMover@@AAEXPAVidEntity@@@Z 1017fef0 f   Mover.obj
 0001:0017f020       ?Event_StopSpline@idMover@@AAEXXZ 10180020 f   Mover.obj
 0001:0017f050       ?Event_Activate@idMover@@AAEXPAVidEntity@@@Z 10180050 f   Mover.obj
 0001:0017f180       ?Event_PostRestore@idMover@@AAEXHHHHH@Z 10180180 f   Mover.obj
 0001:0017f270       ?Event_IsMoving@idMover@@AAEXXZ 10180270 f   Mover.obj
 0001:0017f290       ?Event_IsRotating@idMover@@AAEXXZ 10180290 f   Mover.obj
 0001:0017f2b0       ?Event_GotoFloor@idElevator@@QAEXH@Z 101802b0 f   Mover.obj
 0001:0017f3d0       ?Event_Touch@idElevator@@IAEXPAVidEntity@@PAUtrace_s@@@Z 101803d0 f   Mover.obj
 0001:0017f4a0       ?Event_TeamBlocked@idElevator@@AAEXPAVidEntity@@0@Z 101804a0 f   Mover.obj
 0001:0017f540       ?Event_Activate@idElevator@@AAEXPAVidEntity@@@Z 10180540 f   Mover.obj
 0001:0017f5c0       ?Event_PostFloorArrival@idElevator@@AAEXXZ 101805c0 f   Mover.obj
 0001:0017f640       ?Event_SetGuiStates@idElevator@@AAEXXZ 10180640 f   Mover.obj
 0001:0017f660       ?Event_SetCallback@idMover_Binary@@IAEXXZ 10180660 f   Mover.obj
 0001:0017f6a0       ?Event_ReturnToPos1@idMover_Binary@@IAEXXZ 101806a0 f   Mover.obj
 0001:0017fa30       ?Event_Use_BinaryMover@idMover_Binary@@IAEXPAVidEntity@@@Z 10180a30 f   Mover.obj
 0001:0017fa40       ?Event_Reached_BinaryMover@idMover_Binary@@IAEXXZ 10180a40 f   Mover.obj
 0001:0017fc50       ?Event_MatchActivateTeam@idMover_Binary@@IAEXW4moverState_t@@H@Z 10180c50 f   Mover.obj
 0001:0017fc60       ?Event_Disable@idMover_Binary@@IAEXXZ 10180c60 f   Mover.obj
 0001:0017fc60       ?Event_Enable@idMover_Binary@@IAEXXZ 10180c60 f   Mover.obj
 0001:0017fc90       ?Event_OpenPortal@idMover_Binary@@IAEXXZ 10180c90 f   Mover.obj
 0001:0017fcf0       ?Event_ClosePortal@idMover_Binary@@IAEXXZ 10180cf0 f   Mover.obj
 0001:0017fd60       ?Event_FindGuiTargets@idMover_Binary@@IAEXXZ 10180d60 f   Mover.obj
 0001:0017fd80       ?Event_InitGuiTargets@idMover_Binary@@IAEXXZ 10180d80 f   Mover.obj
 0001:0017fda0       ?Event_Reached_BinaryMover@idDoor@@AAEXXZ 10180da0 f   Mover.obj
 0001:0017ff20       ?Event_TeamBlocked@idDoor@@AAEXPAVidEntity@@0@Z 10180f20 f   Mover.obj
 0001:0017ffb0       ?Event_PartBlocked@idDoor@@AAEXPAVidEntity@@@Z 10180fb0 f   Mover.obj
 0001:0017ffb0       ?Event_PartBlocked@idPlat@@AAEXPAVidEntity@@@Z 10180fb0 f   Mover.obj
 0001:0017fff0       ?Event_Touch@idDoor@@AAEXPAVidEntity@@PAUtrace_s@@@Z 10180ff0 f   Mover.obj
 0001:001800d0       ?Event_Activate@idDoor@@AAEXPAVidEntity@@@Z 101810d0 f   Mover.obj
 0001:00180200       ?Event_StartOpen@idDoor@@AAEXXZ 10181200 f   Mover.obj
 0001:001802d0       ?Event_SpawnDoorTrigger@idDoor@@AAEXXZ 101812d0 f   Mover.obj
 0001:00180500       ?Event_SpawnSoundTrigger@idDoor@@AAEXXZ 10181500 f   Mover.obj
 0001:00180600       ?Event_Close@idDoor@@AAEXXZ 10181600 f   Mover.obj
 0001:00180610       ?Event_Open@idDoor@@AAEXXZ 10181610 f   Mover.obj
 0001:00180620       ?Event_Lock@idDoor@@AAEXH@Z 10181620 f   Mover.obj
 0001:00180630       ?Event_IsOpen@idDoor@@AAEXXZ 10181630 f   Mover.obj
 0001:00180650       ?Event_Locked@idDoor@@AAEXXZ 10181650 f   Mover.obj
 0001:00180690       ?Event_SpectatorTouch@idDoor@@AAEXPAVidEntity@@PAUtrace_s@@@Z 10181690 f   Mover.obj
 0001:001807f0       ?Event_OpenPortal@idDoor@@AAEXXZ 101817f0 f   Mover.obj
 0001:00180860       ?Event_ClosePortal@idDoor@@AAEXXZ 10181860 f   Mover.obj
 0001:00180930       ?Event_TeamBlocked@idPlat@@AAEXPAVidEntity@@0@Z 10181930 f   Mover.obj
 0001:00180970       ?Event_Touch@idPlat@@AAEXPAVidEntity@@PAUtrace_s@@@Z 10181970 f   Mover.obj
 0001:001809d0       ?Event_PartBlocked@idMover_Periodic@@IAEXPAVidEntity@@@Z 101819d0 f   Mover.obj
 0001:00180a10       ?Event_Activate@idRotater@@AAEXPAVidEntity@@@Z 10181a10 f   Mover.obj
 0001:00180b60       ?Event_Activate@idRiser@@AAEXPAVidEntity@@@Z 10181b60 f   Mover.obj
 0001:00180c70       ??0floorInfo_s@@QAE@XZ     10181c70 f i Mover.obj
 0001:00180c90       ??0idDoor@@QAE@XZ          10181c90 f   Mover.obj
 0001:00180ee0       ??0idMover@@QAE@XZ         10181ee0 f   Mover.obj
 0001:00181080       ??0idMover_Binary@@QAE@XZ  10182080 f   Mover.obj
 0001:001812a0       ??1floorInfo_s@@QAE@XZ     101822a0 f i Mover.obj
 0001:001812e0       ??1idMover_Binary@@UAE@XZ  101822e0 f   Mover.obj
 0001:00181410       ??_EidDoor@@UAEPAXI@Z      10182410 f i Mover.obj
 0001:00181410       ??_GidDoor@@UAEPAXI@Z      10182410 f i Mover.obj
 0001:00181500       ??_EidElevator@@UAEPAXI@Z  10182500 f i Mover.obj
 0001:00181500       ??_GidElevator@@UAEPAXI@Z  10182500 f i Mover.obj
 0001:00181610       ??_EidMover@@UAEPAXI@Z     10182610 f i Mover.obj
 0001:00181610       ??_GidMover@@UAEPAXI@Z     10182610 f i Mover.obj
 0001:00181690       ??_EidMover_Binary@@UAEPAXI@Z 10182690 f i Mover.obj
 0001:00181690       ??_GidMover_Binary@@UAEPAXI@Z 10182690 f i Mover.obj
 0001:001816d0       ??_EidPlat@@UAEPAXI@Z      101826d0 f i Mover.obj
 0001:001816d0       ??_GidPlat@@UAEPAXI@Z      101826d0 f i Mover.obj
 0001:00181740       ??_EidRotater@@UAEPAXI@Z   10182740 f i Mover.obj
 0001:00181740       ??_GidRotater@@UAEPAXI@Z   10182740 f i Mover.obj
 0001:00181790       ?BeginMove@idElevator@@MAEXPAVidThread@@@Z 10182790 f   Mover.obj
 0001:001818b0       ?BeginMove@idMover@@MAEXPAVidThread@@@Z 101828b0 f   Mover.obj
 0001:00181b00       ?BeginRotation@idMover@@MAEXPAVidThread@@_N@Z 10182b00 f   Mover.obj
 0001:00181d50       ?CalcTriggerBounds@idDoor@@AAEXMAAVidBounds@@@Z 10182d50 f   Mover.obj
 0001:00181f40       ?CloseAllDoors@idElevator@@AAEXXZ 10182f40 f   Mover.obj
 0001:00182050       ?CreateInstance@idBobber@@SAPAVidClass@@XZ 10183050 f   Mover.obj
 0001:00182120       ?CreateInstance@idDoor@@SAPAVidClass@@XZ 10183120 f   Mover.obj
 0001:001821c0       ?CreateInstance@idElevator@@SAPAVidClass@@XZ 101831c0 f   Mover.obj
 0001:00182340       ?CreateInstance@idMover@@SAPAVidClass@@XZ 10183340 f   Mover.obj
 0001:001823e0       ?CreateInstance@idMover_Binary@@SAPAVidClass@@XZ 101833e0 f   Mover.obj
 0001:00182480       ?CreateInstance@idMover_Periodic@@SAPAVidClass@@XZ 10183480 f   Mover.obj
 0001:00182550       ?CreateInstance@idPendulum@@SAPAVidClass@@XZ 10183550 f   Mover.obj
 0001:00182620       ?CreateInstance@idPlat@@SAPAVidClass@@XZ 10183620 f   Mover.obj
 0001:00182790       ?CreateInstance@idRiser@@SAPAVidClass@@XZ 10183790 f   Mover.obj
 0001:00182860       ?CreateInstance@idRotater@@SAPAVidClass@@XZ 10183860 f   Mover.obj
 0001:00182950       ?CreateInstance@idSplinePath@@SAPAVidClass@@XZ 10183950 f   Mover.obj
 0001:00182a00       ?Damage@idDoor@@UAEXPAVidEntity@@0ABVidVec3@@PBDMH@Z 10183a00 f   Mover.obj
 0001:00182f40       ?DisableAllDoors@idElevator@@AAEXXZ 10183f40 f   Mover.obj
 0001:00183050       ?DoneMoving@idElevator@@MAEXXZ 10184050 f   Mover.obj
 0001:001833b0       ?DoneMoving@idMover@@MAEXXZ 101843b0 f   Mover.obj
 0001:00183410       ?DoneRotating@idMover@@MAEXXZ 10184410 f   Mover.obj
 0001:00183450       ?GetDoor@idElevator@@AAEPAVidDoor@@PBD@Z 10184450 f   Mover.obj
 0001:001834c0       ?GetFloorInfo@idElevator@@QAEPAUfloorInfo_s@@H@Z 101844c0 f   Mover.obj
 0001:00183500       ?GetLocalTriggerPosition@idDoor@@AAEXPBVidClipModel@@@Z 10184500 f   Mover.obj
 0001:001837a0       ?GetLocalTriggerPosition@idPlat@@AAEXPBVidClipModel@@@Z 101847a0 f   Mover.obj
 0001:00183a40       ?GetType@idBobber@@UBEPAVidTypeInfo@@XZ 10184a40 f   Mover.obj
 0001:00183a50       ?GetType@idDoor@@UBEPAVidTypeInfo@@XZ 10184a50 f   Mover.obj
 0001:00183a60       ?GetType@idElevator@@UBEPAVidTypeInfo@@XZ 10184a60 f   Mover.obj
 0001:00183a70       ?GetType@idMover@@UBEPAVidTypeInfo@@XZ 10184a70 f   Mover.obj
 0001:00183a80       ?GetType@idMover_Binary@@UBEPAVidTypeInfo@@XZ 10184a80 f   Mover.obj
 0001:00183a90       ?GetType@idMover_Periodic@@UBEPAVidTypeInfo@@XZ 10184a90 f   Mover.obj
 0001:00183aa0       ?GetType@idPendulum@@UBEPAVidTypeInfo@@XZ 10184aa0 f   Mover.obj
 0001:00183ab0       ?GetType@idPlat@@UBEPAVidTypeInfo@@XZ 10184ab0 f   Mover.obj
 0001:00183ac0       ?GetType@idRiser@@UBEPAVidTypeInfo@@XZ 10184ac0 f   Mover.obj
 0001:00183ad0       ?GetType@idRotater@@UBEPAVidTypeInfo@@XZ 10184ad0 f   Mover.obj
 0001:00183ae0       ?GetType@idSplinePath@@UBEPAVidTypeInfo@@XZ 10184ae0 f   Mover.obj
 0001:00183af0       ?GotoPosition1@idMover_Binary@@QAEXXZ 10184af0 f   Mover.obj
 0001:00183f60       ?GotoPosition2@idMover_Binary@@QAEXXZ 10184f60 f   Mover.obj
 0001:00184720       ?HandleSingleGuiCommand@idElevator@@UAE_NPAVidEntity@@PAVidLexer@@@Z 10185720 f   Mover.obj
 0001:001848a0       ?Hide@idDoor@@UAEXXZ       101858a0 f   Mover.obj
 0001:00184980       ?InitSpeed@idMover_Binary@@QAEXAAVidVec3@@0MMM@Z 10185980 f   Mover.obj
 0001:00184b90       ?InitTime@idMover_Binary@@QAEXAAVidVec3@@0MMM@Z 10185b90 f   Mover.obj
 0001:00184cd0       ?IsLocked@idDoor@@QAEHXZ   10185cd0 f   Mover.obj
 0001:00184d00       ?IsOpen@idDoor@@QAE_NXZ    10185d00 f   Mover.obj
 0001:00184d10       ?IsRelatedDoor@idDoor@@QAE_NPAVidEntity@@@Z 10185d10 f   Mover.obj
 0001:00184d50       ?Killed@idMover@@UAEXPAVidEntity@@0HABVidVec3@@H@Z 10185d50 f   Mover.obj
 0001:00184d60       ?Lock@idDoor@@QAEXH@Z      10185d60 f   Mover.obj
 0001:00184ed0       ?MakeUniform@?$idCurve@VidVec3@@@@QAEXM@Z 10185ed0 f i Mover.obj
 0001:00184fa0       ?MatchActivateTeam@idMover_Binary@@IAEXW4moverState_t@@H@Z 10185fa0 f   Mover.obj
 0001:00185360       ?OpenFloorDoor@idElevator@@AAEXH@Z 10186360 f   Mover.obj
 0001:00185400       ?OpenInnerDoor@idElevator@@AAEXXZ 10186400 f   Mover.obj
 0001:00185480       ?PostBind@idDoor@@UAEXXZ   10186480 f   Mover.obj
 0001:001854f0       ?PostBind@idMover_Binary@@UAEXXZ 101864f0 f   Mover.obj
 0001:00185540       ?PostBind@idPlat@@UAEXXZ   10186540 f   Mover.obj
 0001:001855a0       ?PreBind@idDoor@@UAEXXZ    101865a0 f   Mover.obj
 0001:001855a0       ?PreBind@idMover_Binary@@UAEXXZ 101865a0 f   Mover.obj
 0001:001855a0       ?PreBind@idPlat@@UAEXXZ    101865a0 f   Mover.obj
 0001:001855f0       ?ReadFromSnapshot@idMover@@UAEXABVidBitMsgDelta@@@Z 101865f0 f   Mover.obj
 0001:00185680       ?ReadFromSnapshot@idMover_Binary@@UAEXABVidBitMsgDelta@@@Z 10186680 f   Mover.obj
 0001:00185720       ?ReadFromSnapshot@idMover_Periodic@@UAEXABVidBitMsgDelta@@@Z 10186720 f   Mover.obj
 0001:00185760       ?RemoveDoorGroup@idDoor@@UAEXXZ 10186760 f   Mover.obj
 0001:001857b0       ?Resize@?$idList@UfloorInfo_s@@@@QAEXH@Z 101867b0 f i Mover.obj
 0001:00185990       ?Restore@idDoor@@QAEXPAVidRestoreGame@@@Z 10186990 f   Mover.obj
 0001:00185aa0       ?Restore@idElevator@@QAEXPAVidRestoreGame@@@Z 10186aa0 f   Mover.obj
 0001:00185c80       ?Restore@idMover@@QAEXPAVidRestoreGame@@@Z 10186c80 f   Mover.obj
 0001:00186070       ?Restore@idMover_Binary@@QAEXPAVidRestoreGame@@@Z 10187070 f   Mover.obj
 0001:00186490       ?Restore@idMover_Periodic@@QAEXPAVidRestoreGame@@@Z 10187490 f   Mover.obj
 0001:001864d0       ?Restore@idPlat@@QAEXPAVidRestoreGame@@@Z 101874d0 f   Mover.obj
 0001:00186510       ?Restore@idRotater@@QAEXPAVidRestoreGame@@@Z 10187510 f   Mover.obj
 0001:00186530       ?Save@idDoor@@QBEXPAVidSaveGame@@@Z 10187530 f   Mover.obj
 0001:00186610       ?Save@idElevator@@QBEXPAVidSaveGame@@@Z 10187610 f   Mover.obj
 0001:001866f0       ?Save@idMover@@QBEXPAVidSaveGame@@@Z 101876f0 f   Mover.obj
 0001:001869c0       ?Save@idMover_Binary@@QBEXPAVidSaveGame@@@Z 101879c0 f   Mover.obj
 0001:00186bf0       ?Save@idMover_Periodic@@QBEXPAVidSaveGame@@@Z 10187bf0 f   Mover.obj
 0001:00186c20       ?Save@idPlat@@QBEXPAVidSaveGame@@@Z 10187c20 f   Mover.obj
 0001:00186c60       ?Save@idRotater@@QBEXPAVidSaveGame@@@Z 10187c60 f   Mover.obj
 0001:00186c80       ?SetBlocked@idMover_Binary@@QAEX_N@Z 10187c80 f   Mover.obj
 0001:00186d80       ?SetDoorGroupsHealth@idDoor@@UAEXH@Z 10187d80 f   Mover.obj
 0001:00186e40       ?SetDoorGroupsidEntityTeam@idDoor@@UAEXH@Z 10187e40 f   Mover.obj
 0001:00186ef0       ?SetGuiState@idMover_Binary@@IBEXPBD0@Z 10187ef0 f   Mover.obj
 0001:00186fa0       ?SetGuiStates@idMover@@IAEXPBD@Z 10187fa0 f   Mover.obj
 0001:001870c0       ?SetGuiStates@idMover_Binary@@QAEXPBD@Z 101880c0 f   Mover.obj
 0001:001871c0       ?SetMoverState@idMover_Binary@@IAEXW4moverState_t@@H@Z 101881c0 f   Mover.obj
 0001:00187560       ?Show@idDoor@@UAEXXZ       10188560 f   Mover.obj
 0001:00187690       ?Show@idMover@@UAEXXZ      10188690 f   Mover.obj
 0001:001876f0       ?Spawn@idBobber@@QAEXXZ    101886f0 f   Mover.obj
 0001:00187950       ?Spawn@idDoor@@QAEXXZ      10188950 f   Mover.obj
 0001:00188060       ?Spawn@idElevator@@QAEXXZ  10189060 f   Mover.obj
 0001:001883e0       ?Spawn@idMover@@QAEXXZ     101893e0 f   Mover.obj
 0001:001887d0       ?Spawn@idMover_Binary@@QAEXXZ 101897d0 f   Mover.obj
 0001:00188e20       ?Spawn@idMover_Periodic@@QAEXXZ 10189e20 f   Mover.obj
 0001:00188e90       ?Spawn@idPendulum@@QAEXXZ  10189e90 f   Mover.obj
 0001:001891b0       ?Spawn@idPlat@@QAEXXZ      1018a1b0 f   Mover.obj
 0001:00189550       ?Spawn@idRiser@@QAEXXZ     1018a550 f   Mover.obj
 0001:001896d0       ?Spawn@idRotater@@QAEXXZ   1018a6d0 f   Mover.obj
 0001:001898a0       ?SyncUpDoorGroupsSpawnArgs@idDoor@@UAEXXZ 1018a8a0 f   Mover.obj
 0001:001899a0       ?Think@idDoor@@UAEXXZ      1018a9a0 f   Mover.obj
 0001:00189e90       ?Think@idElevator@@EAEXXZ  1018ae90 f   Mover.obj
 0001:0018a0c0       ?Think@idMover_Periodic@@UAEXXZ 1018b0c0 f   Mover.obj
 0001:0018a0e0       ?Think@idPlat@@UAEXXZ      1018b0e0 f   Mover.obj
 0001:0018a380       ?UpdateBuddies@idMover_Binary@@QAEXH@Z 1018b380 f   Mover.obj
 0001:0018a3f0       ?UpdateDoorGroupsMoverStatusShaderParms@idDoor@@UAEXXZ 1018b3f0 f   Mover.obj
 0001:0018a440       ?UpdateMoveSound@idMover@@IAEXW4moveStage_t@1@@Z 1018b440 f   Mover.obj
 0001:0018a440       ?UpdateRotationSound@idMover@@IAEXW4moveStage_t@1@@Z 1018b440 f   Mover.obj
 0001:0018a4e0       ?UpdateMoverStatusShaderParms@idMover_Binary@@UAEXXZ 1018b4e0 f   Mover.obj
 0001:0018a620       ?Use@idDoor@@QAEXPAVidEntity@@0@Z 1018b620 f   Mover.obj
 0001:0018a7d0       ?Use_BinaryMover@idMover_Binary@@QAEXPAVidEntity@@@Z 1018b7d0 f   Mover.obj
 0001:0018aca0       ?VectorForDir@idMover@@AAEXMAAVidVec3@@@Z 1018bca0 f   Mover.obj
 0001:0018af20       ?WriteToSnapshot@idMover@@UBEXAAVidBitMsgDelta@@@Z 1018bf20 f   Mover.obj
 0001:0018af70       ?WriteToSnapshot@idMover_Binary@@UBEXAAVidBitMsgDelta@@@Z 1018bf70 f   Mover.obj
 0001:0018afb0       ?WriteToSnapshot@idMover_Periodic@@UBEXAAVidBitMsgDelta@@@Z 1018bfb0 f   Mover.obj
 0001:0018afe0       ??0idMultiplayerGame@@QAE@XZ 1018bfe0 f   MultiplayerGame.obj
 0001:0018b0f0       ??0mpChatLine_s@@QAE@XZ    1018c0f0 f i MultiplayerGame.obj
 0001:0018b110       ?AddChatLine@idMultiplayerGame@@QAAXPBDZZ 1018c110 f   MultiplayerGame.obj
 0001:0018b230       ?CastVote@idMultiplayerGame@@QAEXH_N@Z 1018c230 f   MultiplayerGame.obj
 0001:0018b3d0       ?CheckAbortGame@idMultiplayerGame@@AAEXXZ 1018c3d0 f   MultiplayerGame.obj
 0001:0018b4e0       ?CheckRespawns@idMultiplayerGame@@AAEXPAVidPlayer@@@Z 1018c4e0 f   MultiplayerGame.obj
 0001:0018b780       ?Clear@idMultiplayerGame@@AAEXXZ 1018c780 f   MultiplayerGame.obj
 0001:0018b980       ?ClearGuis@idMultiplayerGame@@AAEXXZ 1018c980 f   MultiplayerGame.obj
 0001:0018bb90       ?ClientCallVote@idMultiplayerGame@@QAEXW4vote_flags_t@1@PBD@Z 1018cb90 f   MultiplayerGame.obj
 0001:0018bc10       ?ClientReadStartState@idMultiplayerGame@@QAEXABVidBitMsg@@@Z 1018cc10 f   MultiplayerGame.obj
 0001:0018bcd0       ?ClientReadWarmupTime@idMultiplayerGame@@QAEXABVidBitMsg@@@Z 1018ccd0 f   MultiplayerGame.obj
 0001:0018bcf0       ?ClientStartVote@idMultiplayerGame@@QAEXHPBD@Z 1018ccf0 f   MultiplayerGame.obj
 0001:0018be20       ?ClientUpdateVote@idMultiplayerGame@@QAEXW4vote_result_t@1@HH@Z 1018ce20 f   MultiplayerGame.obj
 0001:0018bfc0       ?DisableMenu@idMultiplayerGame@@AAEXXZ 1018cfc0 f   MultiplayerGame.obj
 0001:0018c030       ?DisconnectClient@idMultiplayerGame@@QAEXH@Z 1018d030 f   MultiplayerGame.obj
 0001:0018c060       ?Draw@idMultiplayerGame@@QAE_NH@Z 1018d060 f   MultiplayerGame.obj
 0001:0018c4b0       ?DrawChat@idMultiplayerGame@@AAEXXZ 1018d4b0 f   MultiplayerGame.obj
 0001:0018c650       ?DropWeapon@idMultiplayerGame@@QAEXH@Z 1018d650 f   MultiplayerGame.obj
 0001:0018c690       ?DropWeapon_f@idMultiplayerGame@@SAXABVidCmdArgs@@@Z 1018d690 f   MultiplayerGame.obj
 0001:0018c700       ?EnterGame@idMultiplayerGame@@QAEXH@Z 1018d700 f   MultiplayerGame.obj
 0001:0018c790       ?ExecuteVote@idMultiplayerGame@@QAEXXZ 1018d790 f   MultiplayerGame.obj
 0001:0018c8c0       ?FillTourneySlots@idMultiplayerGame@@AAEXXZ 1018d8c0 f   MultiplayerGame.obj
 0001:0018c9c0       ?ForceReady_f@idMultiplayerGame@@SAXABVidCmdArgs@@@Z 1018d9c0 f   MultiplayerGame.obj
 0001:0018cb60       ?FragLeader@idMultiplayerGame@@AAEPAVidPlayer@@XZ 1018db60 f   MultiplayerGame.obj
 0001:0018cda0       ?GetBestGametype@idMultiplayerGame@@QAE?AVidStr@@PBD0@Z 1018dda0 f   MultiplayerGame.obj
 0001:0018cfc0       ?HandleGuiCommands@idMultiplayerGame@@QAEPBDPBD@Z 1018dfc0 f   MultiplayerGame.obj
 0001:0018df20       ?IsGametypeTeamBased@idMultiplayerGame@@QAE_NXZ 1018ef20 f   MultiplayerGame.obj
 0001:0018df50       ?MapRestart@idMultiplayerGame@@QAEXXZ 1018ef50 f   MultiplayerGame.obj
 0001:0018e020       ?MessageMode_f@idMultiplayerGame@@SAXABVidCmdArgs@@@Z 1018f020 f   MultiplayerGame.obj
 0001:0018e0d0       ?NewState@idMultiplayerGame@@AAEXW4gameState_t@1@PAVidPlayer@@@Z 1018f0d0 f   MultiplayerGame.obj
 0001:0018e590       ?NumActualClients@idMultiplayerGame@@QAEH_NPAH@Z 1018f590 f   MultiplayerGame.obj
 0001:0018e640       ?PlayGlobalSound@idMultiplayerGame@@QAEXHW4snd_evt_t@@PBD@Z 1018f640 f   MultiplayerGame.obj
 0001:0018e740       ?PlayerDeath@idMultiplayerGame@@QAEXPAVidPlayer@@0_N@Z 1018f740 f   MultiplayerGame.obj
 0001:0018ea50       ?PlayerStats@idMultiplayerGame@@QAEXHPADH@Z 1018fa50 f   MultiplayerGame.obj
 0001:0018eac0       ?Precache@idMultiplayerGame@@QAEXXZ 1018fac0 f   MultiplayerGame.obj
 0001:0018edc0       ?PrintMessageEvent@idMultiplayerGame@@QAEXHW4msg_evt_t@1@HH@Z 1018fdc0 f   MultiplayerGame.obj
 0001:0018f310       ?ProcessChatMessage@idMultiplayerGame@@QAEXH_NPBD11@Z 10190310 f   MultiplayerGame.obj
 0001:0018f5b0       ?ProcessVoiceChat@idMultiplayerGame@@QAEXH_NH@Z 101905b0 f   MultiplayerGame.obj
 0001:0018f800       ?ReadFromSnapshot@idMultiplayerGame@@QAEXABVidBitMsgDelta@@@Z 10190800 f   MultiplayerGame.obj
 0001:0018f930       ?Reset@idMultiplayerGame@@QAEXXZ 10190930 f   MultiplayerGame.obj
 0001:0018fa70       ?Right@idStr@@QBE?AV1@H@Z  10190a70 f i MultiplayerGame.obj
 0001:0018faf0       ?Run@idMultiplayerGame@@QAEXXZ 10190af0 f   MultiplayerGame.obj
 0001:00190750       ?ServerCallVote@idMultiplayerGame@@QAEXHABVidBitMsg@@@Z 10191750 f   MultiplayerGame.obj
 0001:00190ee0       ?ServerClientConnect@idMultiplayerGame@@QAEXH@Z 10191ee0 f   MultiplayerGame.obj
 0001:00190f00       ?ServerStartVote@idMultiplayerGame@@QAEXHW4vote_flags_t@1@PBD@Z 10191f00 f   MultiplayerGame.obj
 0001:00190fa0       ?ServerWriteInitialReliableMessages@idMultiplayerGame@@QAEXH@Z 10191fa0 f   MultiplayerGame.obj
 0001:00191150       ?SetMapShot@idMultiplayerGame@@AAEXXZ 10192150 f   MultiplayerGame.obj
 0001:001911e0       ?SetMenuSkin@idMultiplayerGame@@QAEXXZ 101921e0 f   MultiplayerGame.obj
 0001:00191530       ?Shutdown@idMultiplayerGame@@QAEXXZ 10192530 f   MultiplayerGame.obj
 0001:00191540       ?SpawnPlayer@idMultiplayerGame@@QAEXH@Z 10192540 f   MultiplayerGame.obj
 0001:001915f0       ?StartMenu@idMultiplayerGame@@QAEPAVidUserInterface@@XZ 101925f0 f   MultiplayerGame.obj
 0001:00191950       ?SuddenRespawn@idMultiplayerGame@@AAEXXZ 10192950 f   MultiplayerGame.obj
 0001:001919d0       ?SwitchToTeam@idMultiplayerGame@@QAEXHHH@Z 101929d0 f   MultiplayerGame.obj
 0001:00191bd0       ?TeamScore@idMultiplayerGame@@AAEXHHH@Z 10192bd0 f   MultiplayerGame.obj
 0001:00191c40       ?ThrottleUserInfo@idMultiplayerGame@@QAEXXZ 10192c40 f   MultiplayerGame.obj
 0001:00191d90       ?ToggleReady@idMultiplayerGame@@QAEXXZ 10192d90 f   MultiplayerGame.obj
 0001:00191de0       ?ToggleSpectate@idMultiplayerGame@@QAEXXZ 10192de0 f   MultiplayerGame.obj
 0001:00191e90       ?ToggleTeam@idMultiplayerGame@@QAEXXZ 10192e90 f   MultiplayerGame.obj
 0001:00191ee0       ?UpdateHud@idMultiplayerGame@@AAEXPAVidPlayer@@PAVidUserInterface@@@Z 10192ee0 f   MultiplayerGame.obj
 0001:001922a0       ?UpdateMainGui@idMultiplayerGame@@QAEXXZ 101932a0 f   MultiplayerGame.obj
 0001:00192580       ?UpdatePlayerRanks@idMultiplayerGame@@AAEXXZ 10193580 f   MultiplayerGame.obj
 0001:00192750       ?UpdateScoreboard@idMultiplayerGame@@AAEXPAVidUserInterface@@PAVidPlayer@@@Z 10193750 f   MultiplayerGame.obj
 0001:00193140       ?UpdateTourneyLine@idMultiplayerGame@@AAEXXZ 10194140 f   MultiplayerGame.obj
 0001:00193250       ?UpdateWinsLosses@idMultiplayerGame@@AAEXPAVidPlayer@@@Z 10194250 f   MultiplayerGame.obj
 0001:00193580       ?VoiceChat@idMultiplayerGame@@AAEXABVidCmdArgs@@_N@Z 10194580 f   MultiplayerGame.obj
 0001:001936e0       ?VoiceChatTeam_f@idMultiplayerGame@@SAXABVidCmdArgs@@@Z 101946e0 f   MultiplayerGame.obj
 0001:00193700       ?VoiceChat_f@idMultiplayerGame@@SAXABVidCmdArgs@@@Z 10194700 f   MultiplayerGame.obj
 0001:00193720       ?WantKilled@idMultiplayerGame@@QAEXH@Z 10194720 f   MultiplayerGame.obj
 0001:00193760       ?WriteToSnapshot@idMultiplayerGame@@QBEXAAVidBitMsgDelta@@@Z 10194760 f   MultiplayerGame.obj
 0001:00193850       ?Event_GetButtons@idPlayer@@AAEXXZ 10194850 f   Player.obj
 0001:00193860       ?Event_GetMove@idPlayer@@AAEXXZ 10194860 f   Player.obj
 0001:001938b0       ?Event_GetViewAngles@idPlayer@@AAEXXZ 101948b0 f   Player.obj
 0001:001938f0       ?Event_StopFxFov@idPlayer@@AAEXXZ 101948f0 f   Player.obj
 0001:00193900       ?EnableWeapon@idPlayer@@QAEXXZ 10194900 f   Player.obj
 0001:00193900       ?Event_EnableWeapon@idPlayer@@AAEXXZ 10194900 f   Player.obj
 0001:00193970       ?DisableWeapon@idPlayer@@QAEXXZ 10194970 f   Player.obj
 0001:00193970       ?Event_DisableWeapon@idPlayer@@AAEXXZ 10194970 f   Player.obj
 0001:001939e0       ?Event_GetCurrentWeapon@idPlayer@@AAEXXZ 101949e0 f   Player.obj
 0001:00193a30       ?Event_GetPreviousWeapon@idPlayer@@AAEXXZ 10194a30 f   Player.obj
 0001:00193ad0       ?Event_SelectWeapon@idPlayer@@AAEXPBD@Z 10194ad0 f   Player.obj
 0001:00193c40       ?Event_GetWeaponEntity@idPlayer@@AAEXXZ 10194c40 f   Player.obj
 0001:00193c80       ?Event_OpenPDA@idPlayer@@AAEXXZ 10194c80 f   Player.obj
 0001:00193c90       ?Event_InPDA@idPlayer@@AAEXXZ 10194c90 f   Player.obj
 0001:00193ca0       ?Event_ExitTeleporter@idPlayer@@AAEXXZ 10194ca0 f   Player.obj
 0001:00193f70       ?Event_HideTip@idPlayer@@AAEXXZ 10194f70 f   Player.obj
 0001:00193f70       ?HideTip@idPlayer@@QAEXXZ  10194f70 f   Player.obj
 0001:00193f90       ?Event_LevelTrigger@idPlayer@@AAEXXZ 10194f90 f   Player.obj
 0001:001940c0       ?Event_GiveInventoryItem@idPlayer@@AAEXPBD@Z 101950c0 f   Player.obj
 0001:001940d0       ?Event_RemoveInventoryItem@idPlayer@@AAEXPBD@Z 101950d0 f   Player.obj
 0001:001940d0       ?RemoveInventoryItem@idPlayer@@QAEXPBD@Z 101950d0 f   Player.obj
 0001:00194120       ?Event_GetIdealWeapon@idPlayer@@AAEXXZ 10195120 f   Player.obj
 0001:00194170       ?Event_WeaponAvailable@idPlayer@@AAEXPBD@Z 10195170 f   Player.obj
 0001:00194190       ?Event_SetPowerupTime@idPlayer@@AAEXHH@Z 10195190 f   Player.obj
 0001:001941b0       ?Event_IsPowerupActive@idPlayer@@AAEXH@Z 101951b0 f   Player.obj
 0001:001941e0       ?Event_StartWarp@idPlayer@@AAEXXZ 101951e0 f   Player.obj
 0001:00194240       ?Event_StopWarpEffects@idPlayer@@AAEXXZ 10195240 f   Player.obj
 0001:00194250       ?Event_StopSlowMo@idPlayer@@AAEXXZ 10195250 f   Player.obj
 0001:00194260       ?Event_TransitionNumBloomPassesToZero@idPlayer@@AAEXXZ 10195260 f   Player.obj
 0001:001942b0       ?Event_TransitionNumBloomPassesToThirty@idPlayer@@AAEXXZ 101952b0 f   Player.obj
 0001:001942f0       ?Event_UpdateSomeThingsAftersbShipIsRemoved@idPlayer@@AAEXXZ 101952f0 f   Player.obj
 0001:00194360       ?Event_AllowPlayerFiring@idPlayer@@AAEXXZ 10195360 f   Player.obj
 0001:00194380       ?Event_StopHelltime@idPlayer@@AAEXH@Z 10195380 f   Player.obj
 0001:001943a0       ?Event_ToggleBloom@idPlayer@@AAEXH@Z 101953a0 f   Player.obj
 0001:001943c0       ?Event_SetBloomParms@idPlayer@@AAEXMM@Z 101953c0 f   Player.obj
 0001:001943e0       ?Event_DisplayNonInteractiveAlertMessage@idPlayer@@QAEXPBD@Z 101953e0 f   Player.obj
 0001:00194450       ?Event_ToggleTutorialMode@idPlayer@@QAEXH@Z 10195450 f   Player.obj
 0001:001945e0       ?Event_IncreaseTutorialModeStep@idPlayer@@QAEXXZ 101955e0 f   Player.obj
 0001:00195860       ?Event_GetTutorialModeStep@idPlayer@@QAEXXZ 10196860 f   Player.obj
 0001:00195870       ?Event_WaitForImpulse@idPlayer@@QAEXH@Z 10196870 f   Player.obj
 0001:00195890       ?Event_StopAudioLog@idPlayer@@QAEXXZ 10196890 f   Player.obj
 0001:00195890       ?StopAudioLog@idPlayer@@QAEXXZ 10196890 f   Player.obj
 0001:001958b0       ?Event_MonitorMusic@idPlayer@@QAEXXZ 101968b0 f   Player.obj
 0001:001958e0       ?Event_CancelMonitorMusic@idPlayer@@QAEXXZ 101968e0 f   Player.obj
 0001:001958f0       ?Event_UpdateWeirdTextureThrashFix@idPlayer@@QAEXXZ 101968f0 f   Player.obj
 0001:00195a50       ?Event_OpenOverlayGUI@idPlayer@@QAEXPBD@Z 10196a50 f   Player.obj
 0001:00195a50       ?SetOverlayGui@idPlayer@@QAEXPBD@Z 10196a50 f   Player.obj
 0001:00195b40       ?Event_HasInventoryItem@idPlayer@@QAEXPBD@Z 10196b40 f   Player.obj
 0001:00195b60       ??$_Destroy_range@V?$allocator@VidStr@@@std@@@std@@YAXPAVidStr@@QAV1@AAV?$allocator@VidStr@@@0@@Z 10196b60 f i Player.obj
 0001:00195bd0       ??$_Emplace_reallocate@VidStr@@@?$vector@VidStr@@V?$allocator@VidStr@@@std@@@std@@AAEPAVidStr@@QAV2@$$QAV2@@Z 10196bd0 f i Player.obj
 0001:00196a20       ??$_Popcount_fallback@_K@std@@YAH_K@Z 10197a20 f i Player.obj
 0001:00196aa0       ??$_Resize_reallocate@U_Value_init_tag@std@@@?$vector@VidVec2@@V?$allocator@VidVec2@@@std@@@std@@AAEXIABU_Value_init_tag@1@@Z 10197aa0 f i Player.obj
 0001:00196e50       ??$_Uninitialized_copy_n@PAVidDict@@V?$allocator@VidDict@@@std@@@std@@YAPAVidDict@@PAV1@I0AAV?$allocator@VidDict@@@0@@Z 10197e50 f i Player.obj
 0001:00196f10       ??$_Uninitialized_move@PAVidStr@@V?$allocator@VidStr@@@std@@@std@@YAPAVidStr@@QAV1@0PAV1@AAV?$allocator@VidStr@@@0@@Z 10197f10 f i Player.obj
 0001:00196f80       ??$swap@VidDict@@$0A@@std@@YAXAAVidDict@@0@Z 10197f80 f i Player.obj
 0001:00197040       ??0idDict@@QAE@ABV0@@Z     10198040 f i Player.obj
 0001:001970c0       ??0idItemInfo@@QAE@XZ      101980c0 f i Player.obj
 0001:001970c0       ??0idLevelTriggerInfo@@QAE@XZ 101980c0 f i Player.obj
 0001:00197100       ??0idObjectiveInfo@@QAE@XZ 10198100 f i Player.obj
 0001:00197150       ??0idPlayer@@QAE@XZ        10198150 f   Player.obj
 0001:001980e0       ??0idStr@@QAE@I@Z          101990e0 f i Player.obj
 0001:00198150       ??1?$_Uninitialized_backout_al@V?$allocator@VidStr@@@std@@@std@@QAE@XZ 10199150 f i Player.obj
 0001:001981c0       ??1?$idHashTable@UWeaponToggle_t@@@@QAE@XZ 101991c0 f i Player.obj
 0001:00198280       ??1?$idList@UidItemInfo@@@@QAE@XZ 10199280 f i Player.obj
 0001:00198280       ??1?$idList@UidLevelTriggerInfo@@@@QAE@XZ 10199280 f i Player.obj
 0001:00198300       ??1?$idList@UidObjectiveInfo@@@@QAE@XZ 10199300 f i Player.obj
 0001:00198380       ??1?$vector@VidStr@@V?$allocator@VidStr@@@std@@@std@@QAE@XZ 10199380 f i Player.obj
 0001:001983e0       ??1WeaponToggle_t@@QAE@XZ  101993e0 f i Player.obj
 0001:00198410       ??1idInventory@@QAE@XZ     10199410 f i Player.obj
 0001:00198740       ??1idItemInfo@@QAE@XZ      10199740 f i Player.obj
 0001:00198740       ??1idLevelTriggerInfo@@QAE@XZ 10199740 f i Player.obj
 0001:00198790       ??1idPlayer@@UAE@XZ        10199790 f   Player.obj
 0001:00198960       ??4?$idList@H@@QAEAAV0@ABV0@@Z 10199960 f i Player.obj
 0001:001989e0       ??4idItemInfo@@QAEAAU0@ABU0@@Z 101999e0 f i Player.obj
 0001:001989e0       ??4idLevelTriggerInfo@@QAEAAU0@ABU0@@Z 101999e0 f i Player.obj
 0001:00198a50       ??4idObjectiveInfo@@QAEAAU0@ABU0@@Z 10199a50 f i Player.obj
 0001:00198b60       ??_EidPlayer@@UAEPAXI@Z    10199b60 f i Player.obj
 0001:00198b60       ??_GidPlayer@@UAEPAXI@Z    10199b60 f i Player.obj
 0001:00198ba0       ?ActivateSpaceCommandTabletBeam@idPlayer@@QAEXXZ 10199ba0 f   Player.obj
 0001:00199000       ?AddAIKill@idPlayer@@QAEXXZ 1019a000 f   Player.obj
 0001:001990b0       ?AddGuiPDAData@idPlayer@@AAEHW4declType_t@@PBDPBVidDeclPDA@@PAVidUserInterface@@@Z 1019a0b0 f   Player.obj
 0001:00199400       ?AddPickupName@idInventory@@QAEXPBD0PAVidPlayer@@@Z 1019a400 f   Player.obj
 0001:00199510       ?AddProjectileHits@idPlayer@@QAEXH@Z 1019a510 f   Player.obj
 0001:00199520       ?AddProjectilesFired@idPlayer@@QAEXH@Z 1019a520 f   Player.obj
 0001:00199530       ?AdjustBodyAngles@idPlayer@@AAEXXZ 1019a530 f   Player.obj
 0001:001999c0       ?AdjustHeartRate@idPlayer@@QAEXHMM_N@Z 1019a9c0 f   Player.obj
 0001:00199a70       ?AdjustSpeed@idPlayer@@AAEXXZ 1019aa70 f   Player.obj
 0001:00199d60       ?AmmoIndexForWeaponClass@idInventory@@QAEHPBDPAH@Z 1019ad60 f   Player.obj
 0001:00199e00       ?Append@?$idList@UidItemInfo@@@@QAEHABUidItemInfo@@@Z 1019ae00 f i Player.obj
 0001:00199e00       ?Append@?$idList@UidLevelTriggerInfo@@@@QAEHABUidLevelTriggerInfo@@@Z 1019ae00 f i Player.obj
 0001:00199e70       ?Append@?$idList@UidObjectiveInfo@@@@QAEHABUidObjectiveInfo@@@Z 1019ae70 f i Player.obj
 0001:00199ee0       ?Append@idStr@@QAEXABV1@@Z 1019aee0 f i Player.obj
 0001:00199f30       ?BalanceTDM@idPlayer@@QAE_NXZ 1019af30 f   Player.obj
 0001:0019a010       ?BeginMonitoringMusic@idPlayer@@QAEXXZ 1019b010 f   Player.obj
 0001:0019a030       ?BobCycle@idPlayer@@AAEXABVidVec3@@@Z 1019b030 f   Player.obj
 0001:0019a800       ?CacheWeapons@idPlayer@@QAEXXZ 1019b800 f   Player.obj
 0001:0019a960       ?CalcDamagePoints@idPlayer@@QAEXPAVidEntity@@0PBVidDict@@MHPAH2@Z 1019b960 f   Player.obj
 0001:0019ac90       ?CalcFov@idPlayer@@QAEM_N@Z 1019bc90 f   Player.obj
 0001:0019ae00       ?CalculateFirstPersonView@idPlayer@@QAEXXZ 1019be00 f   Player.obj
 0001:0019b640       ?CalculateRenderView@idPlayer@@QAEXXZ 1019c640 f   Player.obj
 0001:0019ba50       ?CalculateViewWeaponPos@idPlayer@@QAEXAAVidVec3@@AAVidMat3@@@Z 1019ca50 f   Player.obj
 0001:0019c0f0       ?CanGive@idPlayer@@QAE_NPBD0@Z 1019d0f0 f   Player.obj
 0001:0019c250       ?CanShowWeaponViewmodel@idPlayer@@QBE_NXZ 1019d250 f   Player.obj
 0001:0019c260       ?CheckForPlayerShipCrewMemberNameChanges@idPlayer@@QAEXXZ 1019d260 f   Player.obj
 0001:0019c970       ?ClampFloat@idMath@@SAMMMM@Z 1019d970 f i Player.obj
 0001:0019c9a0       ?Clear@idInventory@@QAEXXZ 1019d9a0 f   Player.obj
 0001:0019ce00       ?ClearFocus@idPlayer@@AAEXXZ 1019de00 f   Player.obj
 0001:0019ce40       ?ClearPowerUps@idPlayer@@QAEXXZ 1019de40 f   Player.obj
 0001:0019cf00       ?ClearPowerup@idPlayer@@AAEXH@Z 1019df00 f   Player.obj
 0001:0019d0b0       ?ClientPredictionThink@idPlayer@@UAEXXZ 1019e0b0 f   Player.obj
 0001:0019d7e0       ?ClientReceiveEvent@idPlayer@@UAE_NHHABVidBitMsg@@@Z 1019e7e0 f   Player.obj
 0001:0019d940       ?CloseOverlayAIDialogeGui@idPlayer@@QAEXXZ 1019e940 f   Player.obj
 0001:0019da60       ?CloseOverlayCaptainGui@idPlayer@@QAEXXZ 1019ea60 f   Player.obj
 0001:0019db80       ?CloseOverlayGui@idPlayer@@QAEXXZ 1019eb80 f   Player.obj
 0001:0019dc80       ?CloseOverlayHailGui@idPlayer@@QAEXXZ 1019ec80 f   Player.obj
 0001:0019de70       ?Collide@idPlayer@@UAE_NABUtrace_s@@ABVidVec3@@@Z 1019ee70 f   Player.obj
 0001:0019df20       ?CompleteObjective@idPlayer@@QAEXPBD@Z 1019ef20 f   Player.obj
 0001:0019e0b0       ?CrashLand@idPlayer@@AAEXABVidVec3@@0@Z 1019f0b0 f   Player.obj
 0001:0019e600       ?CreateInstance@idPlayer@@SAPAVidClass@@XZ 1019f600 f   Player.obj
 0001:0019e6a0       ?Damage@idPlayer@@UAEXPAVidEntity@@0ABVidVec3@@PBDMH@Z 1019f6a0 f   Player.obj
 0001:0019ec60       ?DamageFeedback@idPlayer@@UAEXPAVidEntity@@0AAH@Z 1019fc60 f   Player.obj
 0001:0019edc0       ?DeactivateSpaceCommandTabletBeam@idPlayer@@QAEXXZ 1019fdc0 f   Player.obj
 0001:0019ee20       ?DefaultFov@idPlayer@@QBEMXZ 1019fe20 f   Player.obj
 0001:0019ee70       ?DeterminePlayerMusic@idPlayer@@QAEXXZ 1019fe70 f   Player.obj
 0001:0019f7f0       ?DisplayNonInteractiveAlertMessage@idPlayer@@QAEXVidStr@@@Z 101a07f0 f   Player.obj
 0001:0019fa50       ?DrawHUD@idPlayer@@QAEXPAVidUserInterface@@@Z 101a0a50 f   Player.obj
 0001:0019fbe0       ?DrawPlayerIcons@idPlayer@@UAEXXZ 101a0be0 f   Player.obj
 0001:0019fc20       ?Drop@idInventory@@QAEXABVidDict@@PBDH@Z 101a0c20 f   Player.obj
 0001:0019fd70       ?DropWeapon@idPlayer@@QAEX_N@Z 101a0d70 f   Player.obj
 0001:001a0090       ?EndMusic@idPlayer@@QAEXXZ 101a1090 f   Player.obj
 0001:001a0110       ?EnterCinematic@idPlayer@@QAEXXZ 101a1110 f   Player.obj
 0001:001a0310       ?ExitCinematic@idPlayer@@QAEXXZ 101a1310 f   Player.obj
 0001:001a0370       ?FindInventoryItem@idPlayer@@QAEPAVidDict@@PBD@Z 101a1370 f   Player.obj
 0001:001a03f0       ?FireWeapon@idPlayer@@AAEXXZ 101a13f0 f   Player.obj
 0001:001a05c0       ?GetAASLocation@idPlayer@@UBEXPAVidAAS@@AAVidVec3@@AAH@Z 101a15c0 f   Player.obj
 0001:001a0670       ?GetAIAimTargets@idPlayer@@UAEXABVidVec3@@AAV2@1@Z 101a1670 f   Player.obj
 0001:001a0770       ?GetCurrentValue@?$idInterpolate@M@@QBEMH@Z 101a1770 f i Player.obj
 0001:001a07d0       ?GetCurrentWeapon@idPlayer@@QAE?AVidStr@@XZ 101a17d0 f   Player.obj
 0001:001a08d0       ?GetEyePosition@idPlayer@@QBE?AVidVec3@@XZ 101a18d0 f   Player.obj
 0001:001a09b0       ?GetPDA@idPlayer@@QBEPBVidDeclPDA@@XZ 101a19b0 f   Player.obj
 0001:001a09e0       ?GetPersistantData@idInventory@@QAEXAAVidDict@@@Z 101a19e0 f   Player.obj
 0001:001a0ee0       ?GetPhysicsToSoundTransform@idPlayer@@UAE_NAAVidVec3@@AAVidMat3@@@Z 101a1ee0 f   Player.obj
 0001:001a0fa0       ?GetPhysicsToVisualTransform@idPlayer@@UAE_NAAVidVec3@@AAVidMat3@@@Z 101a1fa0 f   Player.obj
 0001:001a1360       ?GetRenderView@idPlayer@@UAEPAUrenderView_s@@XZ 101a2360 f   Player.obj
 0001:001a1370       ?GetType@idPlayer@@UBEPAVidTypeInfo@@XZ 101a2370 f   Player.obj
 0001:001a1380       ?GetUserInfo@idPlayer@@QAEPAVidDict@@XZ 101a2380 f   Player.obj
 0001:001a1390       ?GetViewPos@idPlayer@@UBEXAAVidVec3@@AAVidMat3@@@Z 101a2390 f   Player.obj
 0001:001a17e0       ?Give@idInventory@@QAE_NPAVidPlayer@@ABVidDict@@PBD2PAH_N@Z 101a27e0 f   Player.obj
 0001:001a2230       ?Give@idPlayer@@QAE_NPBD0@Z 101a3230 f   Player.obj
 0001:001a2630       ?GiveAmmo@idInventory@@QAE_NHH@Z 101a3630 f   Player.obj
 0001:001a2660       ?GiveEmail@idPlayer@@QAEXPBD@Z 101a3660 f   Player.obj
 0001:001a2750       ?GiveHealthPool@idPlayer@@QAEXM@Z 101a3750 f   Player.obj
 0001:001a27b0       ?GiveInventoryItem@idPlayer@@QAE_NPAVidDict@@@Z 101a37b0 f   Player.obj
 0001:001a29f0       ?GiveInventoryItem@idPlayer@@QAE_NPBD@Z 101a39f0 f   Player.obj
 0001:001a2a90       ?GiveItem@idPlayer@@QAEXPBD@Z 101a3a90 f   Player.obj
 0001:001a2b40       ?GiveItem@idPlayer@@QAE_NPAVidItem@@@Z 101a3b40 f   Player.obj
 0001:001a2cc0       ?GiveObjective@idPlayer@@QAEXPBD00@Z 101a3cc0 f   Player.obj
 0001:001a2dd0       ?GivePDA@idPlayer@@QAEXPBDPAVidDict@@@Z 101a3dd0 f   Player.obj
 0001:001a31c0       ?GivePowerUp@idInventory@@QAEXPAVidPlayer@@HH@Z 101a41c0 f   Player.obj
 0001:001a3270       ?GivePowerUp@idPlayer@@QAE_NHH@Z 101a4270 f   Player.obj
 0001:001a3820       ?GiveSecurity@idPlayer@@QAEXPBD@Z 101a4820 f   Player.obj
 0001:001a3930       ?GiveVideo@idPlayer@@QAEXPBDPAVidDict@@@Z 101a4930 f   Player.obj
 0001:001a3a80       ?GunTurningOffset@idPlayer@@AAE?AVidAngles@@XZ 101a4a80 f   Player.obj
 0001:001a3c80       ?HandleESC@idPlayer@@QAE_NXZ 101a4c80 f   Player.obj
 0001:001a3d60       ?HandleSingleGuiCommand@idPlayer@@UAE_NPAVidEntity@@PAVidLexer@@@Z 101a4d60 f   Player.obj
 0001:001ac040       ?HasAmmo@idInventory@@QAEHHH@Z 101ad040 f   Player.obj
 0001:001ac070       ?HasEmptyClipCannotRefill@idInventory@@QAE_NPBDPAVidPlayer@@@Z 101ad070 f   Player.obj
 0001:001ac170       ?Hide@idPlayer@@UAEXXZ     101ad170 f   Player.obj
 0001:001ac1b0       ?HideObjective@idPlayer@@QAEXXZ 101ad1b0 f   Player.obj
 0001:001ac1d0       ?HidePlayerIcons@idPlayer@@UAEXXZ 101ad1d0 f   Player.obj
 0001:001ac1e0       ?Init@idPlayer@@QAEXXZ     101ad1e0 f   Player.obj
 0001:001acc60       ?InitRechargeAmmo@idInventory@@QAEXPAVidPlayer@@@Z 101adc60 f   Player.obj
 0001:001ace10       ?Insert@idStr@@QAEXPBDH@Z  101ade10 f i Player.obj
 0001:001ace90       ?Kill@idPlayer@@QAEX_N0@Z  101ade90 f   Player.obj
 0001:001acfc0       ?Killed@idPlayer@@UAEXPAVidEntity@@0HABVidVec3@@H@Z 101adfc0 f   Player.obj
 0001:001ad340       ?Length@idStr@@SAHPBD@Z    101ae340 f i Player.obj
 0001:001ad360       ?LinkScriptVariables@idPlayer@@QAEXXZ 101ae360 f   Player.obj
 0001:001ad730       ?LookAtKiller@idPlayer@@AAEXPAVidEntity@@0@Z 101ae730 f   Player.obj
 0001:001ad880       ?MaxAmmoForAmmoClass@idInventory@@QBEHPAVidPlayer@@PBD@Z 101ae880 f   Player.obj
 0001:001ad8d0       ?Move@idPlayer@@AAEXXZ     101ae8d0 f   Player.obj
 0001:001ae080       ?NeedsIcon@idPlayer@@QAE_NXZ 101af080 f   Player.obj
 0001:001ae0b0       ?NextBestWeapon@idPlayer@@QAEXXZ 101af0b0 f   Player.obj
 0001:001ae1b0       ?NextWeapon@idPlayer@@QAEXXZ 101af1b0 f   Player.obj
 0001:001ae380       ?OffsetThirdPersonView@idPlayer@@QAEXMMM_N@Z 101af380 f   Player.obj
 0001:001aed40       ?OnLadder@idPlayer@@UBE_NXZ 101afd40 f   Player.obj
 0001:001aed50       ?ParellelJobsListPerformanceTest@@YAXXZ 101afd50 f   Player.obj
 0001:001aef90       ?ParellelJobsListPerformanceTestFunction@@YAXXZ 101aff90 f   Player.obj
 0001:001af050       ?PerformImpulse@idPlayer@@QAEXH@Z 101b0050 f   Player.obj
 0001:001af9b0       ?PlayHelltimeStopSound@idPlayer@@QAEXXZ 101b09b0 f   Player.obj
 0001:001afa00       ?PopulateShipList@idPlayer@@QAEXXZ 101b0a00 f   Player.obj
 0001:001afef0       ?PostWarpThingsToDoForThePlayer@idPlayer@@QAEXXZ 101b0ef0 f   Player.obj
 0001:001affb0       ?PowerUpActive@idPlayer@@QBE_NH@Z 101b0fb0 f   Player.obj
 0001:001affd0       ?PowerUpModifier@idPlayer@@QAEMH@Z 101b0fd0 f   Player.obj
 0001:001b00c0       ?PrepareForRestart@idPlayer@@QAEXXZ 101b10c0 f   Player.obj
 0001:001b00f0       ?PrevWeapon@idPlayer@@QAEXXZ 101b10f0 f   Player.obj
 0001:001b02e0       ?RaiseWeapon@idPlayer@@QAEXXZ 101b12e0 f   Player.obj
 0001:001b0350       ?ReadFromSnapshot@idPlayer@@UAEXABVidBitMsgDelta@@@Z 101b1350 f   Player.obj
 0001:001b09e0       ?ReadPlayerStateFromSnapshot@idPlayer@@QAEXABVidBitMsgDelta@@@Z 101b19e0 f   Player.obj
 0001:001b0b20       ?RemoveInventoryItem@idPlayer@@QAEXPAVidDict@@@Z 101b1b20 f   Player.obj
 0001:001b0c90       ?RemoveWeapon@idPlayer@@QAEXPBD@Z 101b1c90 f   Player.obj
 0001:001b0cf0       ?ResetNotificationList@idPlayer@@QAEXXZ 101b1cf0 f   Player.obj
 0001:001b0d40       ?Resize@?$idList@UaasLocation_t@@@@QAEXH@Z 101b1d40 f i Player.obj
 0001:001b0df0       ?Resize@?$idList@UidItemInfo@@@@QAEXH@Z 101b1df0 f i Player.obj
 0001:001b0df0       ?Resize@?$idList@UidLevelTriggerInfo@@@@QAEXH@Z 101b1df0 f i Player.obj
 0001:001b0fe0       ?Resize@?$idList@UidObjectiveInfo@@@@QAEXH@Z 101b1fe0 f i Player.obj
 0001:001b1210       ?Restart@idPlayer@@UAEXXZ  101b2210 f   Player.obj
 0001:001b1260       ?Restore@idInventory@@QAEXPAVidRestoreGame@@@Z 101b2260 f   Player.obj
 0001:001b1e00       ?Restore@idPlayer@@QAEXPAVidRestoreGame@@@Z 101b2e00 f   Player.obj
 0001:001b2fb0       ?RestoreInventory@idInventory@@QAEXPAVidPlayer@@ABVidDict@@@Z 101b3fb0 f   Player.obj
 0001:001b3980       ?Save@idInventory@@QBEXPAVidSaveGame@@@Z 101b4980 f   Player.obj
 0001:001b3e00       ?Save@idPlayer@@QBEXPAVidSaveGame@@@Z 101b4e00 f   Player.obj
 0001:001b4c80       ?SavePersistantInfo@idPlayer@@QAEXXZ 101b5c80 f   Player.obj
 0001:001b4cf0       ?ScheduleDisplayNonInteractiveAlertMessage@idPlayer@@QAEXHVidStr@@@Z 101b5cf0 f   Player.obj
 0001:001b4d50       ?ScheduleStopSlowMo@idPlayer@@QAEXH@Z 101b5d50 f   Player.obj
 0001:001b4d70       ?ScheduleStopWarpEffects@idPlayer@@QAEXH@Z 101b5d70 f   Player.obj
 0001:001b4d90       ?ScheduleThingsToUpdateAftersbShipIsRemoved@idPlayer@@QAEXXZ 101b5d90 f   Player.obj
 0001:001b4db0       ?SelectInitialSpawnPoint@idPlayer@@QAEXAAVidVec3@@AAVidAngles@@@Z 101b5db0 f   Player.obj
 0001:001b4f20       ?SelectWeapon@idPlayer@@QAEXH_N@Z 101b5f20 f   Player.obj
 0001:001b5370       ?ServerReceiveEvent@idPlayer@@UAE_NHHABVidBitMsg@@@Z 101b6370 f   Player.obj
 0001:001b53b0       ?ServerSpectate@idPlayer@@QAEX_N@Z 101b63b0 f   Player.obj
 0001:001b5470       ?Set@?$idHashTable@UWeaponToggle_t@@@@QAEXPBDAAUWeaponToggle_t@@@Z 101b6470 f i Player.obj
 0001:001b56d0       ?SetClipModel@idPlayer@@QAEXXZ 101b66d0 f   Player.obj
 0001:001b58d0       ?SetCurrentHeartRate@idPlayer@@QAEXXZ 101b68d0 f   Player.obj
 0001:001b5c00       ?SetInfluenceFov@idPlayer@@QAEXM@Z 101b6c00 f   Player.obj
 0001:001b5c20       ?SetInfluenceLevel@idPlayer@@QAEXH@Z 101b6c20 f   Player.obj
 0001:001b5d70       ?SetInfluenceView@idPlayer@@QAEXPBD0MPAVidEntity@@@Z 101b6d70 f   Player.obj
 0001:001b5e60       ?SetInt@idDict@@QAEXPBDH@Z 101b6e60 f i Player.obj
 0001:001b5e90       ?SetLastHitTime@idPlayer@@QAEXH@Z 101b6e90 f   Player.obj
 0001:001b60a0       ?SetLevelTrigger@idPlayer@@QAEXPBD0@Z 101b70a0 f   Player.obj
 0001:001b6170       ?SetOverlayAIDialogeGui@idPlayer@@QAEXXZ 101b7170 f   Player.obj
 0001:001b6380       ?SetOverlayCaptainGui@idPlayer@@QAEXXZ 101b7380 f   Player.obj
 0001:001b6500       ?SetOverlayHailGui@idPlayer@@QAEXXZ 101b7500 f   Player.obj
 0001:001b66d0       ?SetPrivateCameraView@idPlayer@@QAEXPAVidCamera@@@Z 101b76d0 f   Player.obj
 0001:001b6710       ?SetSelectedEntityFromList@idPlayer@@QAEXXZ 101b7710 f   Player.obj
 0001:001b67a0       ?SetSoulCubeProjectile@idPlayer@@QAEXPAVidProjectile@@@Z 101b77a0 f   Player.obj
 0001:001b67d0       ?SetViewAngles@idPlayer@@QAEXABVidAngles@@@Z 101b77d0 f   Player.obj
 0001:001b6880       ?SetupWeaponEntity@idPlayer@@QAEXXZ 101b7880 f   Player.obj
 0001:001b6960       ?Show@idPlayer@@UAEXXZ     101b7960 f   Player.obj
 0001:001b69a0       ?ShowTip@idPlayer@@QAEXPBD0_N@Z 101b79a0 f   Player.obj
 0001:001b6a10       ?SlotForWeapon@idPlayer@@QAEHPBD@Z 101b7a10 f   Player.obj
 0001:001b6a70       ?Spawn@idPlayer@@QAEXXZ    101b7a70 f   Player.obj
 0001:001b77a0       ?SpawnFromSpawnSpot@idPlayer@@QAEXXZ 101b87a0 f   Player.obj
 0001:001b79c0       ?SpawnToPoint@idPlayer@@QAEXABVidVec3@@ABVidAngles@@@Z 101b89c0 f   Player.obj
 0001:001b7cc0       ?Spectate@idPlayer@@QAEX_N@Z 101b8cc0 f   Player.obj
 0001:001b7ec0       ?SpectateFreeFly@idPlayer@@AAEX_N@Z 101b8ec0 f   Player.obj
 0001:001b81e0       ?StartFxOnBone@idPlayer@@QAEXPBD0@Z 101b91e0 f   Player.obj
 0001:001b85a0       ?StartWeirdTextureThrashFix@idPlayer@@QAEXABVidVec3@@H@Z 101b95a0 f   Player.obj
 0001:001b8740       ?StealWeapon@idPlayer@@QAEXPAV1@@Z 101b9740 f   Player.obj
 0001:001b88e0       ?StopFiring@idPlayer@@AAEXXZ 101b98e0 f   Player.obj
 0001:001b8940       ?StopHelltime@idPlayer@@QAEX_N@Z 101b9940 f   Player.obj
 0001:001b8ab0       ?SyncUpPlayerShipNameCVars@idPlayer@@QAEXXZ 101b9ab0 f   Player.obj
 0001:001b8d10       ?TakeCommandOfShip@idPlayer@@QAEXPAVsbShip@@@Z 101b9d10 f   Player.obj
 0001:001b9400       ?Teleport@idPlayer@@UAEXABVidVec3@@ABVidAngles@@PAVidEntity@@@Z 101ba400 f   Player.obj
 0001:001b9620       ?TeleportDeath@idPlayer@@QAEXH@Z 101ba620 f   Player.obj
 0001:001b9630       ?Think@idPlayer@@UAEXXZ    101ba630 f   Player.obj
 0001:001ba5c0       ?TogglePDA@idPlayer@@QAEXXZ 101bb5c0 f   Player.obj
 0001:001baad0       ?TraceBounds@idClip@@QAE_NAAUtrace_s@@ABVidVec3@@1ABVidBounds@@HPBVidEntity@@@Z 101bbad0 f i Player.obj
 0001:001bab50       ?TransitionNumBloomPassesToThirty@idPlayer@@QAEXXZ 101bbb50 f   Player.obj
 0001:001baba0       ?TransitionNumBloomPassesToZero@idPlayer@@QAEXXZ 101bbba0 f   Player.obj
 0001:001bac00       ?UpdateAIDialogueGui@idPlayer@@QAEXXZ 101bbc00 f   Player.obj
 0001:001bad00       ?UpdateAir@idPlayer@@QAEXXZ 101bbd00 f   Player.obj
 0001:001baf20       ?UpdateCaptainHudEveryFrame@idPlayer@@QAEXXZ 101bbf20 f   Player.obj
 0001:001be2e0       ?UpdateCaptainHudOnce@idPlayer@@QAEXXZ 101bf2e0 f   Player.obj
 0001:001be620       ?UpdateCaptainMenu@idPlayer@@QAEXXZ 101bf620 f   Player.obj
 0001:001bf580       ?UpdateCaptainMenuEveryFrame@idPlayer@@QAEXXZ 101c0580 f   Player.obj
 0001:001c6900       ?UpdateConditions@idPlayer@@QAEXXZ 101c7900 f   Player.obj
 0001:001c6c10       ?UpdateCrewIconPositionsOnHudShipDiagram@idPlayer@@QAEXXZ 101c7c10 f   Player.obj
 0001:001c7830       ?UpdateCrewIconPositionsOnShipDiagrams@idPlayer@@QAEXXZ 101c8830 f   Player.obj
 0001:001c8100       ?UpdateCrewMemberPortraits@idPlayer@@QAEXXZ 101c9100 f   Player.obj
 0001:001caf50       ?UpdateDeathSkin@idPlayer@@AAEX_N@Z 101cbf50 f   Player.obj
 0001:001cb040       ?UpdateDoorIconsOnHudShipDiagramEveryFrame@idPlayer@@QAEXXZ 101cc040 f   Player.obj
 0001:001cb2a0       ?UpdateDoorIconsOnHudShipDiagramOnNewTarget@idPlayer@@QAEXXZ 101cc2a0 f   Player.obj
 0001:001cb3e0       ?UpdateDoorIconsOnShipDiagramsEveryFrame@idPlayer@@QAEXXZ 101cc3e0 f   Player.obj
 0001:001cb8a0       ?UpdateDoorIconsOnShipDiagramsOnce@idPlayer@@QAEXXZ 101cc8a0 f   Player.obj
 0001:001cbb70       ?UpdateFocus@idPlayer@@AAEXXZ 101ccb70 f   Player.obj
 0001:001cd2e0       ?UpdateGuiOverlay@idPlayer@@QAEXXZ 101ce2e0 f   Player.obj
 0001:001cd6e0       ?UpdateHailGui@idPlayer@@QAEXXZ 101ce6e0 f   Player.obj
 0001:001cdf30       ?UpdateHud@idPlayer@@QAEXXZ 101cef30 f   Player.obj
 0001:001ce350       ?UpdateHudAmmo@idPlayer@@QAEXPAVidUserInterface@@@Z 101cf350 f   Player.obj
 0001:001ce6f0       ?UpdateHudStats@idPlayer@@QAEXPAVidUserInterface@@@Z 101cf6f0 f   Player.obj
 0001:001ce8a0       ?UpdateHudWeapon@idPlayer@@QAEX_N@Z 101cf8a0 f   Player.obj
 0001:001cebe0       ?UpdateModulesPowerQueueOnCaptainGui@idPlayer@@QAEXXZ 101cfbe0 f   Player.obj
 0001:001cefd0       ?UpdateNotificationList@idPlayer@@QAEXVidStr@@@Z 101cffd0 f   Player.obj
 0001:001cf190       ?UpdateObjectiveInfo@idPlayer@@AAEXXZ 101d0190 f   Player.obj
 0001:001cf300       ?UpdatePDAInfo@idPlayer@@AAEX_N@Z 101d0300 f   Player.obj
 0001:001cfb60       ?UpdatePlayerHeadLightEveryFrame@idPlayer@@QAEXXZ 101d0b60 f   Player.obj
 0001:001cfdc0       ?UpdatePlayerIcons@idPlayer@@UAEXXZ 101d0dc0 f   Player.obj
 0001:001cfe00       ?UpdatePowerUps@idPlayer@@AAEXXZ 101d0e00 f   Player.obj
 0001:001d02b0       ?UpdateProjectileIconsOnHudEveryFrame@idPlayer@@QAEXXZ 101d12b0 f   Player.obj
 0001:001d0590       ?UpdateProjectileIconsOnShipDiagramsEveryFrame@idPlayer@@QAEXXZ 101d1590 f   Player.obj
 0001:001d0b90       ?UpdateReserveCrewMemberPortraits@idPlayer@@QAEXXZ 101d1b90 f   Player.obj
 0001:001d12c0       ?UpdateSelectedEntityInSpaceOnGuis@idPlayer@@QAEXXZ 101d22c0 f   Player.obj
 0001:001d1390       ?UpdateSkinSetup@idPlayer@@QAEX_N@Z 101d2390 f   Player.obj
 0001:001d17d0       ?UpdateSpaceCommandTabletEveryFrame@idPlayer@@QAEXXZ 101d27d0 f   Player.obj
 0001:001d2ba0       ?UpdateSpaceCommandTabletGUIOnce@idPlayer@@QAEXXZ 101d3ba0 f   Player.obj
 0001:001d4590       ?UpdateStarGridShipPositions@idPlayer@@QAEXXZ 101d5590 f   Player.obj
 0001:001d4b00       ?UpdateViewAngles@idPlayer@@AAEXXZ 101d5b00 f   Player.obj
 0001:001d5430       ?UpdateWeapon@idPlayer@@AAEXXZ 101d6430 f   Player.obj
 0001:001d5880       ?UpdateWeaponsAndTorpedosQueuesOnCaptainGui@idPlayer@@QAEXXZ 101d6880 f   Player.obj
 0001:001d6090       ?UpdateWeaponsAndTorpedosTargetingOverlays@idPlayer@@QAEXXZ 101d7090 f   Player.obj
 0001:001d6a00       ?UseAmmo@idInventory@@QAE_NHH@Z 101d7a00 f   Player.obj
 0001:001d6a50       ?UserInfoChanged@idPlayer@@QAE_N_N@Z 101d7a50 f   Player.obj
 0001:001d6e30       ?WeaponAvailable@idPlayer@@AAE_NPBD@Z 101d7e30 f   Player.obj
 0001:001d6ed0       ?WeaponFireFeedback@idPlayer@@QAEXPBVidDict@@@Z 101d7ed0 f   Player.obj
 0001:001d6f00       ?WeaponLoweringCallback@idPlayer@@QAEXXZ 101d7f00 f   Player.obj
 0001:001d6f20       ?WeaponRisingCallback@idPlayer@@QAEXXZ 101d7f20 f   Player.obj
 0001:001d6f50       ?Weapon_Combat@idPlayer@@AAEXXZ 101d7f50 f   Player.obj
 0001:001d7310       ?WritePlayerStateToSnapshot@idPlayer@@QBEXAAVidBitMsgDelta@@@Z 101d8310 f   Player.obj
 0001:001d7410       ?WriteToSnapshot@idPlayer@@UBEXAAVidBitMsgDelta@@@Z 101d8410 f   Player.obj
 0001:001d75f0       ?_Clear_and_reserve_geometric@?$vector@VidDict@@V?$allocator@VidDict@@@std@@@std@@AAEXI@Z 101d85f0 f i Player.obj
 0001:001d7730       ?count@?$bitset@$0EA@@std@@QBEIXZ 101d8730 f i Player.obj
 0001:001d7760       ?deallocate@?$allocator@VidStr@@@std@@QAEXQAVidStr@@I@Z 101d8760 f i Player.obj
 0001:001d77a0       ?erase@?$vector@VidDict@@V?$allocator@VidDict@@@std@@@std@@QAE?AV?$_Vector_iterator@V?$_Vector_val@U?$_Simple_types@VidDict@@@std@@@std@@@2@V?$_Vector_const_iterator@V?$_Vector_val@U?$_Simple_types@VidDict@@@std@@@std@@@2@@Z 101d87a0 f i Player.obj
 0001:001d7860       ?flip@?$bitset@$0IA@@std@@QAEAAV12@I@Z 101d8860 f i Player.obj
 0001:001d78b0       ?test@?$bitset@$0EA@@std@@QBE_NI@Z 101d88b0 f i Player.obj
 0001:001d7900       ??0idPlayerIcon@@QAE@XZ    101d8900 f   PlayerIcon.obj
 0001:001d7920       ??1idPlayerIcon@@QAE@XZ    101d8920 f   PlayerIcon.obj
 0001:001d7980       ?CreateIcon@idPlayerIcon@@QAE_NPAVidPlayer@@W4playerIconType_t@@ABVidVec3@@ABVidMat3@@@Z 101d8980 f   PlayerIcon.obj
 0001:001d7b30       ?Draw@idPlayerIcon@@QAEXPAVidPlayer@@W4jointHandle_t@@@Z 101d8b30 f   PlayerIcon.obj
 0001:001d7c80       ?FreeIcon@idPlayerIcon@@QAEXXZ 101d8c80 f   PlayerIcon.obj
 0001:001d7cb0       ?UpdateIcon@idPlayerIcon@@QAEXPAVidPlayer@@ABVidVec3@@ABVidMat3@@@Z 101d8cb0 f   PlayerIcon.obj
 0001:001d7d20       ??0idPlayerView@@QAE@XZ    101d8d20 f   PlayerView.obj
 0001:001d8020       ??_EFullscreenFX@@UAEPAXI@Z 101d9020 f i PlayerView.obj
 0001:001d8020       ??_EFullscreenFX_InfluenceVision@@UAEPAXI@Z 101d9020 f i PlayerView.obj
 0001:001d8020       ??_GFullscreenFX@@UAEPAXI@Z 101d9020 f i PlayerView.obj
 0001:001d8020       ??_GFullscreenFX_InfluenceVision@@UAEPAXI@Z 101d9020 f i PlayerView.obj
 0001:001d8080       ??_EFullscreenFXManager@@UAEPAXI@Z 101d9080 f i PlayerView.obj
 0001:001d8080       ??_GFullscreenFXManager@@UAEPAXI@Z 101d9080 f i PlayerView.obj
 0001:001d80d0       ??_EFullscreenFX_Bloom@@UAEPAXI@Z 101d90d0 f i PlayerView.obj
 0001:001d80d0       ??_GFullscreenFX_Bloom@@UAEPAXI@Z 101d90d0 f i PlayerView.obj
 0001:001d8130       ??_EFullscreenFX_Blur@@UAEPAXI@Z 101d9130 f i PlayerView.obj
 0001:001d8130       ??_EFullscreenFX_Desaturate@@UAEPAXI@Z 101d9130 f i PlayerView.obj
 0001:001d8130       ??_EFullscreenFX_DoubleVision@@UAEPAXI@Z 101d9130 f i PlayerView.obj
 0001:001d8130       ??_EFullscreenFX_EnviroSuit@@UAEPAXI@Z 101d9130 f i PlayerView.obj
 0001:001d8130       ??_GFullscreenFX_Blur@@UAEPAXI@Z 101d9130 f i PlayerView.obj
 0001:001d8130       ??_GFullscreenFX_Desaturate@@UAEPAXI@Z 101d9130 f i PlayerView.obj
 0001:001d8130       ??_GFullscreenFX_DoubleVision@@UAEPAXI@Z 101d9130 f i PlayerView.obj
 0001:001d8130       ??_GFullscreenFX_EnviroSuit@@UAEPAXI@Z 101d9130 f i PlayerView.obj
 0001:001d8190       ??_EFullscreenFX_Helltime@@UAEPAXI@Z 101d9190 f i PlayerView.obj
 0001:001d8190       ??_GFullscreenFX_Helltime@@UAEPAXI@Z 101d9190 f i PlayerView.obj
 0001:001d81f0       ??_EFullscreenFX_Multiplayer@@UAEPAXI@Z 101d91f0 f i PlayerView.obj
 0001:001d81f0       ??_GFullscreenFX_Multiplayer@@UAEPAXI@Z 101d91f0 f i PlayerView.obj
 0001:001d8250       ??_EFullscreenFX_Warp@@UAEPAXI@Z 101d9250 f i PlayerView.obj
 0001:001d8250       ??_GFullscreenFX_Warp@@UAEPAXI@Z 101d9250 f i PlayerView.obj
 0001:001d82b0       ?AccumPass@FullscreenFX_Helltime@@UAEXPBUrenderView_s@@@Z 101d92b0 f   PlayerView.obj
 0001:001d8400       ?AccumPass@FullscreenFX_Multiplayer@@UAEXPBUrenderView_s@@@Z 101d9400 f   PlayerView.obj
 0001:001d8570       ?Active@FullscreenFX_Bloom@@UAE_NXZ 101d9570 f   PlayerView.obj
 0001:001d8590       ?Active@FullscreenFX_Blur@@UAE_NXZ 101d9590 f   PlayerView.obj
 0001:001d85b0       ?Active@FullscreenFX_Desaturate@@UAE_NXZ 101d95b0 f   PlayerView.obj
 0001:001d85d0       ?Active@FullscreenFX_DoubleVision@@UAE_NXZ 101d95d0 f   PlayerView.obj
 0001:001d85f0       ?Active@FullscreenFX_EnviroSuit@@UAE_NXZ 101d95f0 f   PlayerView.obj
 0001:001d8610       ?Active@FullscreenFX_Helltime@@UAE_NXZ 101d9610 f   PlayerView.obj
 0001:001d8650       ?Active@FullscreenFX_InfluenceVision@@UAE_NXZ 101d9650 f   PlayerView.obj
 0001:001d8680       ?Active@FullscreenFX_Multiplayer@@UAE_NXZ 101d9680 f   PlayerView.obj
 0001:001d86f0       ?Active@FullscreenFX_Warp@@UAE_NXZ 101d96f0 f   PlayerView.obj
 0001:001d8700       ?AddWarp@idPlayerView@@QAEHVidVec3@@MMMM@Z 101d9700 f   PlayerView.obj
 0001:001d8770       ?AngleOffset@idPlayerView@@QBE?AVidAngles@@XZ 101d9770 f   PlayerView.obj
 0001:001d8860       ?CalculateShake@idPlayerView@@QAEXXZ 101d9860 f   PlayerView.obj
 0001:001d8940       ?ClearEffects@idPlayerView@@QAEXXZ 101d9940 f   PlayerView.obj
 0001:001d89f0       ?CreateFX@FullscreenFXManager@@AAEXVidStr@@0H@Z 101d99f0 f   PlayerView.obj
 0001:001d8f30       ?DamageImpulse@idPlayerView@@QAEXVidVec3@@PBVidDict@@@Z 101d9f30 f   PlayerView.obj
 0001:001d9570       ?DetermineLevel@FullscreenFX_Helltime@@AAEHXZ 101da570 f   PlayerView.obj
 0001:001d95d0       ?DrawWarp@FullscreenFX_Warp@@AAEXVWarpPolygon_t@@M@Z 101da5d0 f   PlayerView.obj
 0001:001d99f0       ?Fade@idPlayerView@@QAEXVidVec4@@H@Z 101da9f0 f   PlayerView.obj
 0001:001d9aa0       ?FindFX@FullscreenFXManager@@QAEPAVFullscreenFX@@VidStr@@@Z 101daaa0 f   PlayerView.obj
 0001:001d9b50       ?Flash@idPlayerView@@QAEXVidVec4@@H@Z 101dab50 f   PlayerView.obj
 0001:001d9c00       ?FreeWarp@idPlayerView@@QAEXH@Z 101dac00 f   PlayerView.obj
 0001:001d9c60       ?HighQuality@FullscreenFX_Bloom@@UAEXXZ 101dac60 f   PlayerView.obj
 0001:001d9f20       ?HighQuality@FullscreenFX_Blur@@UAEXXZ 101daf20 f   PlayerView.obj
 0001:001d9f20       ?HighQuality@FullscreenFX_Desaturate@@UAEXXZ 101daf20 f   PlayerView.obj
 0001:001d9f20       ?HighQuality@FullscreenFX_EnviroSuit@@UAEXXZ 101daf20 f   PlayerView.obj
 0001:001d9fb0       ?HighQuality@FullscreenFX_DoubleVision@@UAEXXZ 101dafb0 f   PlayerView.obj
 0001:001da210       ?HighQuality@FullscreenFX_Helltime@@UAEXXZ 101db210 f   PlayerView.obj
 0001:001da320       ?HighQuality@FullscreenFX_InfluenceVision@@UAEXXZ 101db320 f   PlayerView.obj
 0001:001da4f0       ?HighQuality@FullscreenFX_Multiplayer@@UAEXXZ 101db4f0 f   PlayerView.obj
 0001:001da620       ?HighQuality@FullscreenFX_Warp@@UAEXXZ 101db620 f   PlayerView.obj
 0001:001da850       ?Initialize@FullscreenFXManager@@QAEXPAVidPlayerView@@@Z 101db850 f   PlayerView.obj
 0001:001dae30       ?Initialize@FullscreenFX_Bloom@@UAEXXZ 101dbe30 f   PlayerView.obj
 0001:001dae80       ?Initialize@FullscreenFX_Blur@@UAEXXZ 101dbe80 f   PlayerView.obj
 0001:001daea0       ?Initialize@FullscreenFX_Desaturate@@UAEXXZ 101dbea0 f   PlayerView.obj
 0001:001daec0       ?Initialize@FullscreenFX_DoubleVision@@UAEXXZ 101dbec0 f   PlayerView.obj
 0001:001daee0       ?Initialize@FullscreenFX_EnviroSuit@@UAEXXZ 101dbee0 f   PlayerView.obj
 0001:001daf00       ?Initialize@FullscreenFX_Helltime@@UAEXXZ 101dbf00 f   PlayerView.obj
 0001:001db050       ?Initialize@FullscreenFX_Multiplayer@@UAEXXZ 101dc050 f   PlayerView.obj
 0001:001db0d0       ?Initialize@FullscreenFX_Warp@@UAEXXZ 101dc0d0 f   PlayerView.obj
 0001:001db120       ?Process@FullscreenFXManager@@QAEXPBUrenderView_s@@@Z 101dc120 f   PlayerView.obj
 0001:001db4f0       ?RenderPlayerView@idPlayerView@@QAEXPAVidUserInterface@@@Z 101dc4f0 f   PlayerView.obj
 0001:001db790       ?Restore@FullscreenFX@@UAEXPAVidRestoreGame@@@Z 101dc790 f   PlayerView.obj
 0001:001db7a0       ?Restore@FullscreenFX_Bloom@@UAEXPAVidRestoreGame@@@Z 101dc7a0 f   PlayerView.obj
 0001:001db7d0       ?Restore@FullscreenFX_Helltime@@UAEXPAVidRestoreGame@@@Z 101dc7d0 f   PlayerView.obj
 0001:001db7f0       ?Restore@FullscreenFX_Multiplayer@@UAEXPAVidRestoreGame@@@Z 101dc7f0 f   PlayerView.obj
 0001:001db810       ?Restore@FullscreenFX_Warp@@UAEXPAVidRestoreGame@@@Z 101dc810 f   PlayerView.obj
 0001:001db840       ?Restore@FxFader@@UAEXPAVidRestoreGame@@@Z 101dc840 f   PlayerView.obj
 0001:001db880       ?Restore@idPlayerView@@QAEXPAVidRestoreGame@@@Z 101dc880 f   PlayerView.obj
 0001:001dba80       ?Save@FullscreenFX@@UAEXPAVidSaveGame@@@Z 101dca80 f   PlayerView.obj
 0001:001dba90       ?Save@FullscreenFX_Bloom@@UAEXPAVidSaveGame@@@Z 101dca90 f   PlayerView.obj
 0001:001dbad0       ?Save@FullscreenFX_Warp@@UAEXPAVidSaveGame@@@Z 101dcad0 f   PlayerView.obj
 0001:001dbb00       ?Save@FxFader@@UAEXPAVidSaveGame@@@Z 101dcb00 f   PlayerView.obj
 0001:001dbb40       ?Save@idPlayerView@@QBEXPAVidSaveGame@@@Z 101dcb40 f   PlayerView.obj
 0001:001dbd80       ?SetPlayerEntity@idPlayerView@@QAEXPAVidPlayer@@@Z 101dcd80 f   PlayerView.obj
 0001:001dbd90       ?SetTriggerState@FullscreenFX@@QAE_N_N@Z 101dcd90 f i PlayerView.obj
 0001:001dbec0       ?SingleView@idPlayerView@@AAEXPAVidUserInterface@@PBUrenderView_s@@@Z 101dcec0 f   PlayerView.obj
 0001:001dc790       ?WeaponFireFeedback@idPlayerView@@QAEXPBVidDict@@@Z 101dd790 f   PlayerView.obj
 0001:001dc850       ?Event_RemoveBeams@idBFGProjectile@@AAEXXZ 101dd850 f   Projectile.obj
 0001:001dc860       ?Event_Explode@idDebris@@AAEXXZ 101dd860 f   Projectile.obj
 0001:001dc870       ?Event_Fizzle@idDebris@@AAEXXZ 101dd870 f   Projectile.obj
 0001:001dc880       ?Event_CreateProjectile@idProjectile@@QAEXPAVidEntity@@ABVidVec3@@1@Z 101dd880 f   Projectile.obj
 0001:001dc890       ?Event_LaunchProjectile@idProjectile@@QAEXABVidVec3@@00@Z 101dd890 f   Projectile.obj
 0001:001dc8d0       ?Event_SetGravity@idProjectile@@QAEXM@Z 101dd8d0 f   Projectile.obj
 0001:001dc9a0       ?Event_Explode@idProjectile@@AAEXXZ 101dd9a0 f   Projectile.obj
 0001:001dcae0       ?Event_Fizzle@idProjectile@@AAEXXZ 101ddae0 f   Projectile.obj
 0001:001dcaf0       ?Event_RadiusDamage@idProjectile@@AAEXPAVidEntity@@@Z 101ddaf0 f   Projectile.obj
 0001:001dcb70       ?Event_Touch@idProjectile@@AAEXPAVidEntity@@PAUtrace_s@@@Z 101ddb70 f   Projectile.obj
 0001:001dcce0       ?Event_GetProjectileState@idProjectile@@AAEXXZ 101ddce0 f   Projectile.obj
 0001:001dccf0       ?Event_SetEnemy@idGuidedProjectile@@QAEXPAVidEntity@@@Z 101ddcf0 f   Projectile.obj
 0001:001dcd20       ??$remove@V?$_Vector_iterator@V?$_Vector_val@U?$_Simple_types@PAVidProjectile@@@std@@@std@@@std@@PAVidProjectile@@@std@@YA?AV?$_Vector_iterator@V?$_Vector_val@U?$_Simple_types@PAVidProjectile@@@std@@@std@@@0@V10@V10@ABQAVidProjectile@@@Z 101ddd20 f i Projectile.obj
 0001:001dcd60       ??0idGuidedProjectile@@QAE@XZ 101ddd60 f   Projectile.obj
 0001:001dce70       ??0idProjectile@@QAE@XZ    101dde70 f   Projectile.obj
 0001:001dcfd0       ??1idProjectile@@UAE@XZ    101ddfd0 f   Projectile.obj
 0001:001dd110       ??4beamTarget_t@@QAEAAU0@ABU0@@Z 101de110 f i Projectile.obj
 0001:001dd300       ??_EidBFGProjectile@@UAEPAXI@Z 101de300 f i Projectile.obj
 0001:001dd300       ??_GidBFGProjectile@@UAEPAXI@Z 101de300 f i Projectile.obj
 0001:001dd3f0       ??_EidDebris@@UAEPAXI@Z    101de3f0 f i Projectile.obj
 0001:001dd3f0       ??_GidDebris@@UAEPAXI@Z    101de3f0 f i Projectile.obj
 0001:001dd440       ??_EidGuidedProjectile@@UAEPAXI@Z 101de440 f i Projectile.obj
 0001:001dd440       ??_GidGuidedProjectile@@UAEPAXI@Z 101de440 f i Projectile.obj
 0001:001dd480       ??_EidProjectile@@UAEPAXI@Z 101de480 f i Projectile.obj
 0001:001dd480       ??_GidProjectile@@UAEPAXI@Z 101de480 f i Projectile.obj
 0001:001dd4c0       ??_EidSoulCubeMissile@@UAEPAXI@Z 101de4c0 f i Projectile.obj
 0001:001dd4c0       ??_GidSoulCubeMissile@@UAEPAXI@Z 101de4c0 f i Projectile.obj
 0001:001dd500       ??_EsbFoodProjectile@@UAEPAXI@Z 101de500 f i Projectile.obj
 0001:001dd500       ??_GsbFoodProjectile@@UAEPAXI@Z 101de500 f i Projectile.obj
 0001:001dd540       ?AddDefaultDamageEffect@idProjectile@@AAEXABUtrace_s@@ABVidVec3@@@Z 101de540 f   Projectile.obj
 0001:001dd720       ?Append@?$idList@UbeamTarget_t@@@@QAEHABUbeamTarget_t@@@Z 101de720 f i Projectile.obj
 0001:001dd790       ?CatchProjectile@idProjectile@@QAEXPAVidEntity@@PBD@Z 101de790 f   Projectile.obj
 0001:001dd980       ?ClientPredictionCollide@idProjectile@@SA_NPAVidEntity@@ABVidDict@@ABUtrace_s@@ABVidVec3@@_N@Z 101de980 f   Projectile.obj
 0001:001ddac0       ?ClientPredictionThink@idProjectile@@UAEXXZ 101deac0 f   Projectile.obj
 0001:001ddad0       ?ClientReceiveEvent@idProjectile@@UAE_NHHABVidBitMsg@@@Z 101dead0 f   Projectile.obj
 0001:001ddc20       ?Collide@idDebris@@UAE_NABUtrace_s@@ABVidVec3@@@Z 101dec20 f   Projectile.obj
 0001:001ddc50       ?Collide@idProjectile@@UAE_NABUtrace_s@@ABVidVec3@@@Z 101dec50 f   Projectile.obj
 0001:001de350       ?Create@idDebris@@QAEXPAVidEntity@@ABVidVec3@@ABVidMat3@@@Z 101df350 f   Projectile.obj
 0001:001de3f0       ?Create@idProjectile@@QAEXPAVidEntity@@ABVidVec3@@1@Z 101df3f0 f   Projectile.obj
 0001:001de780       ?CreateInstance@idBFGProjectile@@SAPAVidClass@@XZ 101df780 f   Projectile.obj
 0001:001de8a0       ?CreateInstance@idDebris@@SAPAVidClass@@XZ 101df8a0 f   Projectile.obj
 0001:001de990       ?CreateInstance@idGuidedProjectile@@SAPAVidClass@@XZ 101df990 f   Projectile.obj
 0001:001dea30       ?CreateInstance@idProjectile@@SAPAVidClass@@XZ 101dfa30 f   Projectile.obj
 0001:001dead0       ?CreateInstance@idSoulCubeMissile@@SAPAVidClass@@XZ 101dfad0 f   Projectile.obj
 0001:001deb80       ?CreateInstance@sbFoodProjectile@@SAPAVidClass@@XZ 101dfb80 f   Projectile.obj
 0001:001dec30       ?DefaultDamageEffect@idProjectile@@SAXPAVidEntity@@ABVidDict@@ABUtrace_s@@ABVidVec3@@@Z 101dfc30 f   Projectile.obj
 0001:001dedd0       ?Explode@idBFGProjectile@@UAEXABUtrace_s@@PAVidEntity@@@Z 101dfdd0 f   Projectile.obj
 0001:001df1b0       ?Explode@idDebris@@QAEXXZ  101e01b0 f   Projectile.obj
 0001:001df320       ?Explode@idProjectile@@UAEXABUtrace_s@@PAVidEntity@@@Z 101e0320 f   Projectile.obj
 0001:001dfdf0       ?Fizzle@idDebris@@QAEXXZ   101e0df0 f   Projectile.obj
 0001:001dff60       ?Fizzle@idProjectile@@QAEXXZ 101e0f60 f   Projectile.obj
 0001:001e0070       ?FreeBeams@idBFGProjectile@@AAEXXZ 101e1070 f   Projectile.obj
 0001:001e00e0       ?FreeLightDef@idProjectile@@UAEXXZ 101e10e0 f   Projectile.obj
 0001:001e0110       ?GetGravity@idProjectile@@SA?AVidVec3@@PBVidDict@@@Z 101e1110 f   Projectile.obj
 0001:001e0170       ?GetProjectileState@idProjectile@@QAEHXZ 101e1170 f   Projectile.obj
 0001:001e0180       ?GetSeekPos@idGuidedProjectile@@MAEXAAVidVec3@@@Z 101e1180 f   Projectile.obj
 0001:001e02c0       ?GetSeekPos@idSoulCubeMissile@@MAEXAAVidVec3@@@Z 101e12c0 f   Projectile.obj
 0001:001e0510       ?GetType@idBFGProjectile@@UBEPAVidTypeInfo@@XZ 101e1510 f   Projectile.obj
 0001:001e0520       ?GetType@idDebris@@UBEPAVidTypeInfo@@XZ 101e1520 f   Projectile.obj
 0001:001e0530       ?GetType@idGuidedProjectile@@UBEPAVidTypeInfo@@XZ 101e1530 f   Projectile.obj
 0001:001e0540       ?GetType@idProjectile@@UBEPAVidTypeInfo@@XZ 101e1540 f   Projectile.obj
 0001:001e0550       ?GetType@idSoulCubeMissile@@UBEPAVidTypeInfo@@XZ 101e1550 f   Projectile.obj
 0001:001e0560       ?GetType@sbFoodProjectile@@UBEPAVidTypeInfo@@XZ 101e1560 f   Projectile.obj
 0001:001e0570       ?GetVelocity@idProjectile@@SA?AVidVec3@@PBVidDict@@@Z 101e1570 f   Projectile.obj
 0001:001e0590       ?KillTarget@idSoulCubeMissile@@IAEXABVidVec3@@@Z 101e1590 f   Projectile.obj
 0001:001e0800       ?Killed@idDebris@@UAEXPAVidEntity@@0HABVidVec3@@H@Z 101e1800 f   Projectile.obj
 0001:001e0850       ?Killed@idProjectile@@UAEXPAVidEntity@@0HABVidVec3@@H@Z 101e1850 f   Projectile.obj
 0001:001e09f0       ?Launch@idBFGProjectile@@UAEXABVidVec3@@00MMMM@Z 101e19f0 f   Projectile.obj
 0001:001e1450       ?Launch@idDebris@@QAEXXZ   101e2450 f   Projectile.obj
 0001:001e1d90       ?Launch@idGuidedProjectile@@UAEXABVidVec3@@00MMMM@Z 101e2d90 f   Projectile.obj
 0001:001e22a0       ?Launch@idProjectile@@UAEXABVidVec3@@00MMMM@Z 101e32a0 f   Projectile.obj
 0001:001e31d0       ?Launch@idSoulCubeMissile@@UAEXABVidVec3@@00MMMM@Z 101e41d0 f   Projectile.obj
 0001:001e35d0       ?RandomInt@idRandom@@QAEHH@Z 101e45d0 f i Projectile.obj
 0001:001e3600       ?ReadFromSnapshot@idProjectile@@UAEXABVidBitMsgDelta@@@Z 101e4600 f   Projectile.obj
 0001:001e3bf0       ?Resize@?$idList@UbeamTarget_t@@@@QAEXH@Z 101e4bf0 f i Projectile.obj
 0001:001e3cb0       ?Restore@idBFGProjectile@@QAEXPAVidRestoreGame@@@Z 101e4cb0 f   Projectile.obj
 0001:001e3dc0       ?Restore@idDebris@@QAEXPAVidRestoreGame@@@Z 101e4dc0 f   Projectile.obj
 0001:001e3e20       ?Restore@idGuidedProjectile@@QAEXPAVidRestoreGame@@@Z 101e4e20 f   Projectile.obj
 0001:001e3ee0       ?Restore@idProjectile@@QAEXPAVidRestoreGame@@@Z 101e4ee0 f   Projectile.obj
 0001:001e40c0       ?Restore@idSoulCubeMissile@@QAEXPAVidRestoreGame@@@Z 101e50c0 f   Projectile.obj
 0001:001e4170       ?Save@idBFGProjectile@@QBEXPAVidSaveGame@@@Z 101e5170 f   Projectile.obj
 0001:001e4220       ?Save@idDebris@@QBEXPAVidSaveGame@@@Z 101e5220 f   Projectile.obj
 0001:001e4270       ?Save@idGuidedProjectile@@QBEXPAVidSaveGame@@@Z 101e5270 f   Projectile.obj
 0001:001e4350       ?Save@idProjectile@@QBEXPAVidSaveGame@@@Z 101e5350 f   Projectile.obj
 0001:001e4470       ?Save@idSoulCubeMissile@@QBEXPAVidSaveGame@@@Z 101e5470 f   Projectile.obj
 0001:001e4520       ?Spawn@idBFGProjectile@@QAEXXZ 101e5520 f   Projectile.obj
 0001:001e4650       ?Spawn@idDebris@@QAEXXZ    101e5650 f   Projectile.obj
 0001:001e4670       ?Spawn@idProjectile@@QAEXXZ 101e5670 f   Projectile.obj
 0001:001e4770       ?Spawn@idSoulCubeMissile@@QAEXXZ 101e5770 f   Projectile.obj
 0001:001e47e0       ?Think@idBFGProjectile@@UAEXXZ 101e57e0 f   Projectile.obj
 0001:001e4df0       ?Think@idDebris@@UAEXXZ    101e5df0 f   Projectile.obj
 0001:001e4ec0       ?Think@idGuidedProjectile@@UAEXXZ 101e5ec0 f   Projectile.obj
 0001:001e5310       ?Think@idProjectile@@UAEXXZ 101e6310 f   Projectile.obj
 0001:001e5760       ?Think@idSoulCubeMissile@@UAEXXZ 101e6760 f   Projectile.obj
 0001:001e5aa0       ?WriteToSnapshot@idProjectile@@UBEXAAVidBitMsgDelta@@@Z 101e6aa0 f   Projectile.obj
 0001:001e5c80       ?erase@?$vector@PAVidProjectile@@V?$allocator@PAVidProjectile@@@std@@@std@@QAE?AV?$_Vector_iterator@V?$_Vector_val@U?$_Simple_types@PAVidProjectile@@@std@@@std@@@2@V?$_Vector_const_iterator@V?$_Vector_val@U?$_Simple_types@PAVidProjectile@@@std@@@std@@@2@0@Z 101e6c80 f i Projectile.obj
 0001:001e5cc0       ??0idPVS@@QAE@XZ           101e6cc0 f   Pvs.obj
 0001:001e5db0       ??1idPVS@@QAE@XZ           101e6db0 f   Pvs.obj
 0001:001e5dc0       ?AddPassageBoundaries@idPVS@@ABEXABVidWinding@@0_NPAVidPlane@@AAHH@Z 101e6dc0 f   Pvs.obj
 0001:001e6250       ?AllocCurrentPVS@idPVS@@ABE?AUpvsHandle_s@@I@Z 101e7250 f   Pvs.obj
 0001:001e62c0       ?AreaPVSFromPortalPVS@idPVS@@ABEHXZ 101e72c0 f   Pvs.obj
 0001:001e6470       ?CheckAreasForPortalSky@idPVS@@QAE_NUpvsHandle_s@@ABVidVec3@@@Z 101e7470 f   Pvs.obj
 0001:001e64f0       ?CreatePVSData@idPVS@@AAEXXZ 101e74f0 f   Pvs.obj
 0001:001e67a0       ?CreatePassages@idPVS@@ABEXXZ 101e77a0 f   Pvs.obj
 0001:001e6b90       ?DrawPVS@idPVS@@QBEXABVidVec3@@W4pvsType_t@@@Z 101e7b90 f   Pvs.obj
 0001:001e6ed0       ?FloodFrontPortalPVS_r@idPVS@@ABEXPAUpvsPortal_s@@H@Z 101e7ed0 f   Pvs.obj
 0001:001e6f50       ?FloodPassagePVS_r@idPVS@@ABEPAUpvsStack_s@@PAUpvsPortal_s@@PBU3@PAU2@@Z 101e7f50 f   Pvs.obj
 0001:001e7110       ?FreeCurrentPVS@idPVS@@QBEXUpvsHandle_s@@@Z 101e8110 f   Pvs.obj
 0001:001e7150       ?FrontPortalPVS@idPVS@@ABEXXZ 101e8150 f   Pvs.obj
 0001:001e73c0       ?GetConnectedAreas@idPVS@@ABEXHPA_N@Z 101e83c0 f   Pvs.obj
 0001:001e7460       ?GetPVSArea@idPVS@@QBEHABVidVec3@@@Z 101e8460 f   Pvs.obj
 0001:001e7470       ?GetPVSAreas@idPVS@@QBEHABVidBounds@@PAHH@Z 101e8470 f   Pvs.obj
 0001:001e7480       ?InCurrentPVS@idPVS@@QBE_NUpvsHandle_s@@PBHH@Z 101e8480 f   Pvs.obj
 0001:001e7510       ?Init@idPVS@@QAEXXZ        101e8510 f   Pvs.obj
 0001:001e7920       ?MergeCurrentPVS@idPVS@@QBE?AUpvsHandle_s@@U2@0@Z 101e8920 f   Pvs.obj
 0001:001e79e0       ?SetupCurrentPVS@idPVS@@QBE?AUpvsHandle_s@@HW4pvsType_t@@@Z 101e89e0 f   Pvs.obj
 0001:001e7ad0       ?SetupCurrentPVS@idPVS@@QBE?AUpvsHandle_s@@PBHHW4pvsType_t@@@Z 101e8ad0 f   Pvs.obj
 0001:001e7cd0       ?Shutdown@idPVS@@QAEXXZ    101e8cd0 f   Pvs.obj
 0001:001e7d50       ?Event_ReverseSweep@idSecurityCamera@@AAEXXZ 101e8d50 f   SecurityCamera.obj
 0001:001e7da0       ?Event_ContinueSweep@idSecurityCamera@@AAEXXZ 101e8da0 f   SecurityCamera.obj
 0001:001e7eb0       ?Event_Pause@idSecurityCamera@@AAEXXZ 101e8eb0 f   SecurityCamera.obj
 0001:001e7f30       ?Event_Alert@idSecurityCamera@@AAEXXZ 101e8f30 f   SecurityCamera.obj
 0001:001e7fd0       ?Event_AddLight@idSecurityCamera@@AAEXXZ 101e8fd0 f   SecurityCamera.obj
 0001:001e83e0       ??_EidSecurityCamera@@UAEPAXI@Z 101e93e0 f i SecurityCamera.obj
 0001:001e83e0       ??_GidSecurityCamera@@UAEPAXI@Z 101e93e0 f i SecurityCamera.obj
 0001:001e8430       ?CanSeeAllEntityBounds@idSecurityCamera@@QAE_NPAVidEntity@@@Z 101e9430 f   SecurityCamera.obj
 0001:001e86f0       ?CanSeeEntity@idSecurityCamera@@QAE_NPAVidEntity@@@Z 101e96f0 f   SecurityCamera.obj
 0001:001e89b0       ?CanSeePlayer@idSecurityCamera@@AAE_NXZ 101e99b0 f   SecurityCamera.obj
 0001:001e8c30       ?CreateInstance@idSecurityCamera@@SAPAVidClass@@XZ 101e9c30 f   SecurityCamera.obj
 0001:001e8d60       ?DrawFov@idSecurityCamera@@AAEXXZ 101e9d60 f   SecurityCamera.obj
 0001:001e94e0       ?GetAxis@idSecurityCamera@@ABE?BVidVec3@@XZ 101ea4e0 f   SecurityCamera.obj
 0001:001e9590       ?GetRenderView@idSecurityCamera@@UAEPAUrenderView_s@@XZ 101ea590 f   SecurityCamera.obj
 0001:001e9660       ?GetType@idSecurityCamera@@UBEPAVidTypeInfo@@XZ 101ea660 f   SecurityCamera.obj
 0001:001e9670       ?Killed@idSecurityCamera@@UAEXPAVidEntity@@0HABVidVec3@@H@Z 101ea670 f   SecurityCamera.obj
 0001:001e97f0       ?Pain@idSecurityCamera@@UAE_NPAVidEntity@@0HABVidVec3@@H@Z 101ea7f0 f   SecurityCamera.obj
 0001:001e9830       ?Present@idSecurityCamera@@UAEXXZ 101ea830 f   SecurityCamera.obj
 0001:001e98a0       ?Restore@idSecurityCamera@@QAEXPAVidRestoreGame@@@Z 101ea8a0 f   SecurityCamera.obj
 0001:001e99b0       ?Save@idSecurityCamera@@QBEXPAVidSaveGame@@@Z 101ea9b0 f   SecurityCamera.obj
 0001:001e9b00       ?Spawn@idSecurityCamera@@QAEXXZ 101eab00 f   SecurityCamera.obj
 0001:001e9f80       ?StartSweep@idSecurityCamera@@AAEXXZ 101eaf80 f   SecurityCamera.obj
 0001:001ea030       ?Think@idSecurityCamera@@UAEXXZ 101eb030 f   SecurityCamera.obj
 0001:001ea230       ??0idSmokeParticles@@QAE@XZ 101eb230 f   SmokeParticles.obj
 0001:001ea2d0       ?EmitSmoke@idSmokeParticles@@QAE_NPBVidDeclParticle@@HMABVidVec3@@ABVidMat3@@H@Z 101eb2d0 f   SmokeParticles.obj
 0001:001ea670       ?FreeSmokes@idSmokeParticles@@QAEXXZ 101eb670 f   SmokeParticles.obj
 0001:001ea780       ?Init@idSmokeParticles@@QAEXXZ 101eb780 f   SmokeParticles.obj
 0001:001eaa50       ?ModelCallback@idSmokeParticles@@CA_NPAUrenderEntity_s@@PBUrenderView_s@@@Z 101eba50 f   SmokeParticles.obj
 0001:001eaa70       ?Shutdown@idSmokeParticles@@QAEXXZ 101eba70 f   SmokeParticles.obj
 0001:001eaac0       ?UpdateRenderEntity@idSmokeParticles@@AAE_NPAUrenderEntity_s@@PBUrenderView_s@@@Z 101ebac0 f   SmokeParticles.obj
 0001:001eae70       ?Event_Trigger@idSound@@AAEXPAVidEntity@@@Z 101ebe70 f   Sound.obj
 0001:001eafc0       ?Event_Timer@idSound@@AAEXXZ 101ebfc0 f   Sound.obj
 0001:001eb040       ?Event_On@idSound@@AAEXXZ  101ec040 f   Sound.obj
 0001:001eb0e0       ?Event_Off@idSound@@AAEXXZ 101ec0e0 f   Sound.obj
 0001:001eb120       ?CreateInstance@idSound@@SAPAVidClass@@XZ 101ec120 f   Sound.obj
 0001:001eb240       ?GetType@idSound@@UBEPAVidTypeInfo@@XZ 101ec240 f   Sound.obj
 0001:001eb250       ?Restore@idSound@@QAEXPAVidRestoreGame@@@Z 101ec250 f   Sound.obj
 0001:001eb2d0       ?Save@idSound@@QBEXPAVidSaveGame@@@Z 101ec2d0 f   Sound.obj
 0001:001eb370       ?SetSound@idSound@@QAEXPBDH@Z 101ec370 f   Sound.obj
 0001:001eb400       ?ShowEditingDialog@idSound@@UAEXXZ 101ec400 f   Sound.obj
 0001:001eb420       ?Spawn@idSound@@QAEXXZ     101ec420 f   Sound.obj
 0001:001eb610       ?Think@idSound@@UAEXXZ     101ec610 f   Sound.obj
 0001:001eb630       ?UpdateChangeableSpawnArgs@idSound@@UAEXPBVidDict@@@Z 101ec630 f   Sound.obj
 0001:001eb950       ?Event_Activate@idTarget_Remove@@AAEXPAVidEntity@@@Z 101ec950 f   Target.obj
 0001:001eb9b0       ?Event_Activate@idTarget_Show@@AAEXPAVidEntity@@@Z 101ec9b0 f   Target.obj
 0001:001eba10       ?Event_Activate@idTarget_Damage@@AAEXPAVidEntity@@@Z 101eca10 f   Target.obj
 0001:001ebaa0       ?Event_Activate@idTarget_SessionCommand@@AAEXPAVidEntity@@@Z 101ecaa0 f   Target.obj
 0001:001ebae0       ?Event_Activate@idTarget_EndLevel@@AAEXPAVidEntity@@@Z 101ecae0 f   Target.obj
 0001:001ebca0       ?Event_Activate@idTarget_WaitForButton@@AAEXPAVidEntity@@@Z 101ecca0 f   Target.obj
 0001:001ebcd0       ?Event_Activate@idTarget_SetGlobalShaderTime@@AAEXPAVidEntity@@@Z 101eccd0 f   Target.obj
 0001:001ebd30       ?Event_Activate@idTarget_SetShaderParm@@AAEXPAVidEntity@@@Z 101ecd30 f   Target.obj
 0001:001ebef0       ?Event_Activate@idTarget_SetShaderTime@@AAEXPAVidEntity@@@Z 101ecef0 f   Target.obj
 0001:001ebfa0       ?Event_Activate@idTarget_FadeEntity@@AAEXPAVidEntity@@@Z 101ecfa0 f   Target.obj
 0001:001ec080       ?Event_Activate@idTarget_LightFadeIn@@AAEXPAVidEntity@@@Z 101ed080 f   Target.obj
 0001:001ec160       ?Event_Activate@idTarget_LightFadeOut@@AAEXPAVidEntity@@@Z 101ed160 f   Target.obj
 0001:001ec240       ?Event_Activate@idTarget_Give@@AAEXPAVidEntity@@@Z 101ed240 f   Target.obj
 0001:001ec4f0       ?Event_Activate@idTarget_GiveEmail@@AAEXPAVidEntity@@@Z 101ed4f0 f   Target.obj
 0001:001ec590       ?Event_Activate@idTarget_SetModel@@AAEXPAVidEntity@@@Z 101ed590 f   Target.obj
 0001:001ec600       ?Event_Activate@idTarget_SetInfluence@@AAEXPAVidEntity@@@Z 101ed600 f   Target.obj
 0001:001ecf90       ?Event_RestoreInfluence@idTarget_SetInfluence@@AAEXXZ 101edf90 f   Target.obj
 0001:001ed3d0       ?Event_GatherEntities@idTarget_SetInfluence@@AAEXXZ 101ee3d0 f   Target.obj
 0001:001ede00       ?Event_Flash@idTarget_SetInfluence@@AAEXMH@Z 101eee00 f   Target.obj
 0001:001edee0       ?Event_ClearFlash@idTarget_SetInfluence@@AAEXM@Z 101eeee0 f   Target.obj
 0001:001edf10       ?Event_Activate@idTarget_SetKeyVal@@AAEXPAVidEntity@@@Z 101eef10 f   Target.obj
 0001:001ee1e0       ?Event_Activate@idTarget_SetFov@@AAEXPAVidEntity@@@Z 101ef1e0 f   Target.obj
 0001:001ee2f0       ?Event_Activate@idTarget_SetPrimaryObjective@@AAEXPAVidEntity@@@Z 101ef2f0 f   Target.obj
 0001:001ee360       ?Event_Activate@idTarget_LockDoor@@AAEXPAVidEntity@@@Z 101ef360 f   Target.obj
 0001:001ee410       ?Event_Activate@idTarget_CallObjectFunction@@AAEXPAVidEntity@@@Z 101ef410 f   Target.obj
