 ICARUS

 Timestamp is 662154d1 (Thu Apr 18 12:13:53 2024)

 Preferred load address is 00400000

 Start         Length     Name                   Class
 0001:00000000 00009280H .text$di                CODE
 0001:00009280 0020be80H .text$mn                CODE
 0001:00215100 00007320H .text$x                 CODE
 0001:0021c420 00002646H .text$yd                CODE
 0002:00000000 00000994H .idata$5                DATA
 0002:00000994 00000008H .00cfg                  DATA
 0002:0000099c 00000004H .CRT$XCA                DATA
 0002:000009a0 00000004H .CRT$XCAA               DATA
 0002:000009a4 00000004H .CRT$XCL                DATA
 0002:000009a8 00000794H .CRT$XCU                DATA
 0002:0000113c 00000004H .CRT$XCZ                DATA
 0002:00001140 00000004H .CRT$XIA                DATA
 0002:00001144 00000004H .CRT$XIAA               DATA
 0002:00001148 00000004H .CRT$XIAC               DATA
 0002:0000114c 00000014H .CRT$XIC                DATA
 0002:00001160 00000004H .CRT$XIZ                DATA
 0002:00001164 00000004H .CRT$XLA                DATA
 0002:00001168 00000004H .CRT$XLZ                DATA
 0002:0000116c 00000004H .CRT$XPA                DATA
 0002:00001170 0000000cH .CRT$XPX                DATA
 0002:0000117c 00000004H .CRT$XPXA               DATA
 0002:00001180 00000004H .CRT$XPZ                DATA
 0002:00001184 00000004H .CRT$XTA                DATA
 0002:00001188 00000008H .CRT$XTZ                DATA
 0002:0000118c 00000000H .gfids$y                DATA
 0002:00001190 0004deb0H .rdata                  DATA
 0002:0004f040 00000000H .rdata$CastGuardVftablesA DATA
 0002:0004f040 00000000H .rdata$CastGuardVftablesC DATA
 0002:0004f040 00000018H .rdata$T                DATA
 0002:0004f058 00003090H .rdata$r                DATA
 0002:000520e8 0000082cH .rdata$sxdata           DATA
 0002:00052914 000004c0H .rdata$voltmd           DATA
 0002:00052dd4 000003d0H .rdata$zzzdbg           DATA
 0002:000531a4 00000004H .rtc$IAA                DATA
 0002:000531a8 00000004H .rtc$IZZ                DATA
 0002:000531ac 00000004H .rtc$TAA                DATA
 0002:000531b0 00000004H .rtc$TZZ                DATA
 0002:000531b4 00000004H .tls                    DATA
 0002:000531b8 00000004H .tls$                   DATA
 0002:000531bc 00000004H .tls$ZZZ                DATA
 0002:000531c0 0000c1c4H .xdata$x                DATA
 0002:0005f384 00000000H ATL$__a                 DATA
 0002:0005f384 00000000H ATL$__z                 DATA
 0002:0005f384 00000000H .edata                  DATA
 0002:0005f384 00000104H .idata$2                DATA
 0002:0005f488 00000014H .idata$3                DATA
 0002:0005f49c 00000994H .idata$4                DATA
 0002:0005fe30 00002576H .idata$6                DATA
 0003:00000000 00905630H .data                   DATA
 0003:00905630 000001e8H .data$r                 DATA
 0003:00905818 000011d8H .data$rs                DATA
 0003:009069f0 01a1660cH .bss                    DATA
 0004:00000000 00000008H .mydata                 DATA
 0005:00000000 00000030H _RDATA                  DATA
 0006:00000000 00000060H .rsrc$01                DATA
 0006:00000060 00000180H .rsrc$02                DATA

  Address         Publics by Value              Rva+Base       Lib:Object

 0000:00000000       ___AbsoluteZero            00000000     <absolute>
 0000:00000000       ___arm64x_extra_rfe_table  00000000     <absolute>
 0000:00000000       ___arm64x_extra_rfe_table_size 00000000     <absolute>
 0000:00000000       ___arm64x_native_entrypoint 00000000     <absolute>
 0000:00000000       ___arm64x_redirection_metadata 00000000     <absolute>
 0000:00000000       ___arm64x_redirection_metadata_count 00000000     <absolute>
 0000:00000000       ___dynamic_value_reloc_table 00000000     <absolute>
 0000:00000000       ___enclave_config          00000000     <absolute>
 0000:00000000       ___guard_check_icall_a64n_fptr 00000000     <absolute>
 0000:00000000       ___guard_eh_cont_count     00000000     <absolute>
 0000:00000000       ___guard_eh_cont_table     00000000     <absolute>
 0000:00000000       ___guard_fids_count        00000000     <absolute>
 0000:00000000       ___guard_fids_table        00000000     <absolute>
 0000:00000000       ___guard_iat_count         00000000     <absolute>
 0000:00000000       ___guard_iat_table         00000000     <absolute>
 0000:00000000       ___guard_longjmp_count     00000000     <absolute>
 0000:00000000       ___guard_longjmp_table     00000000     <absolute>
 0000:00000000       ___hybrid_auxiliary_delayload_iat 00000000     <absolute>
 0000:00000000       ___hybrid_auxiliary_delayload_iat_copy 00000000     <absolute>
 0000:00000000       ___hybrid_auxiliary_iat    00000000     <absolute>
 0000:00000000       ___hybrid_auxiliary_iat_copy 00000000     <absolute>
 0000:00000000       ___hybrid_code_map         00000000     <absolute>
 0000:00000000       ___hybrid_code_map_count   00000000     <absolute>
 0000:00000000       ___hybrid_image_info_bitfield 00000000     <absolute>
 0000:00000000       ___x64_code_ranges_to_entry_points 00000000     <absolute>
 0000:00000000       ___x64_code_ranges_to_entry_points_count 00000000     <absolute>
 0000:00000000       __except_list              00000000     <absolute>
 0000:0000002c       __tls_array                0000002c     <absolute>
 0000:00000100       ___guard_flags             00000100     <absolute>
 0000:0000020b       ___safe_se_handler_count   0000020b     <absolute>
 0000:00000000       ___ImageBase               00400000     <linker-defined>
 0001:00009280       ??1idStr@@QAE@XZ           0040a280 f i CollisionModel_contacts.obj
 0001:000092b0       ?Contacts@idCollisionModelManagerLocal@@UAEHPAUcontactInfo_t@@HABVidVec3@@ABVidVec6@@MPBVidTraceModel@@ABVidMat3@@HH14@Z 0040a2b0 f   CollisionModel_contacts.obj
 0001:00009390       ?Contents@idCollisionModelManagerLocal@@UAEHABVidVec3@@PBVidTraceModel@@ABVidMat3@@HH02@Z 0040a390 f   CollisionModel_contents.obj
 0001:00009420       ?ContentsTrm@idCollisionModelManagerLocal@@AAEHPAUtrace_s@@ABVidVec3@@PBVidTraceModel@@ABVidMat3@@HH13@Z 0040a420 f   CollisionModel_contents.obj
 0001:0000a850       ?IsRotated@idMat3@@QBE_NXZ 0040b850 f i CollisionModel_contents.obj
 0001:0000a900       ?TestTrmInPolygon@idCollisionModelManagerLocal@@AAE_NPAUcm_traceWork_s@@PAUcm_polygon_s@@@Z 0040b900 f   CollisionModel_contents.obj
 0001:0000b760       ?TestTrmVertsInBrush@idCollisionModelManagerLocal@@AAE_NPAUcm_traceWork_s@@PAUcm_brush_s@@@Z 0040c760 f   CollisionModel_contents.obj
 0001:0000b990       ?GetRenderEntity@idRenderEntityLocal@@UAEXPAUrenderEntity_s@@@Z 0040c990 f i RenderEntity.obj
 0001:0000b990       ?GetRenderLight@idRenderLightLocal@@UAEXPAUrenderLight_s@@@Z 0040c990 f i RenderEntity.obj
 0001:0000b990       ?HandleBuddyUpdate@idEditWindow@@UAEXPAVidWindow@@@Z 0040c990 f i EditWindow.obj
 0001:0000b990       ?HandleBuddyUpdate@idWindow@@UAEXPAV1@@Z 0040c990 f i BindWindow.obj
 0001:0000b990       ?InternalSetBool@idCVar@@EAEX_N@Z 0040c990 f i CollisionModel_debug.obj
 0001:0000b990       ?InternalSetFloat@idCVar@@EAEXM@Z 0040c990 f i CollisionModel_debug.obj
 0001:0000b990       ?InternalSetInteger@idCVar@@EAEXH@Z 0040c990 f i CollisionModel_debug.obj
 0001:0000b990       ?InternalSetString@idCVar@@EAEXPBD@Z 0040c990 f i CollisionModel_debug.obj
 0001:0000b990       ?OnHit@SSDEntity@@UAEXH@Z  0040c990 f i GameSSDWindow.obj
 0001:0000b990       ?ResetTime@idCinematic@@UAEXH@Z 0040c990 f i Cinematic.obj
 0001:0000b990       ?SetBuddy@idWindow@@UAEXPAV1@@Z 0040c990 f i BindWindow.obj
 0001:0000b990       ?Write@idAudioHardwareWIN32@@UAEX_N@Z 0040c990 f i win_snd.obj
 0001:0000b990       ?WriteToDemoFile@idWindow@@UAEXPAVidDemoFile@@@Z 0040c990 f i Window.obj
 0001:0000b9a0       ??_EidCVar@@UAEPAXI@Z      0040c9a0 f i CollisionModel_debug.obj
 0001:0000b9a0       ??_GidCVar@@UAEPAXI@Z      0040c9a0 f i CollisionModel_debug.obj
 0001:0000b9d0       ??$ArgCompletion_String@$1?cm_contentsNameByIndex@@3PAPBDA@idCmdSystem@@SAXABVidCmdArgs@@P6AXPBD@Z@Z 0040c9d0 f i CollisionModel_debug.obj
 0001:0000ba20       ??0idStr@@QAE@XZ           0040ca20 f i CollisionModel_debug.obj
 0001:0000ba40       ??1idCVar@@UAE@XZ          0040ca40 f i CollisionModel_debug.obj
 0001:0000ba50       ??1idFixedWinding@@UAE@XZ  0040ca50 f i CollisionModel_debug.obj
 0001:0000ba80       ??1MemInfo_t@@QAE@XZ       0040ca80 f i Common.obj
 0001:0000ba80       ??1cm_model_s@@QAE@XZ      0040ca80 f i CollisionModel_load.obj
 0001:0000ba80       ??1debugText_s@@QAE@XZ     0040ca80 f i tr_rendertools.obj
 0001:0000ba80       ??1fileInPack_s@@QAE@XZ    0040ca80 f i FileSystem.obj
 0001:0000ba80       ??1idMD5Joint@@QAE@XZ      0040ca80 f i Model_md5.obj
 0001:0000ba80       ??1idToken@@QAE@XZ         0040ca80 f i CollisionModel_debug.obj
 0001:0000bac0       ??_EidFixedWinding@@UAEPAXI@Z 0040cac0 f i CollisionModel_debug.obj
 0001:0000bac0       ??_GidFixedWinding@@UAEPAXI@Z 0040cac0 f i CollisionModel_debug.obj
 0001:0000bb00       ??_EidWinding@@UAEPAXI@Z   0040cb00 f i CollisionModel_debug.obj
 0001:0000bb00       ??_GidWinding@@UAEPAXI@Z   0040cb00 f i CollisionModel_debug.obj
 0001:0000bb40       ?ArgCompletion_Boolean@idCmdSystem@@SAXABVidCmdArgs@@P6AXPBD@Z@Z 0040cb40 f i CollisionModel_debug.obj
 0001:0000bba0       ?Argv@idCmdArgs@@QBEPBDH@Z 0040cba0 f i CollisionModel_debug.obj
 0001:0000bbc0       ?Clear@idFixedWinding@@UAEXXZ 0040cbc0 f i CollisionModel_debug.obj
 0001:0000bbd0       ?Clear@idWinding@@UAEXXZ   0040cbd0 f i CollisionModel_debug.obj
 0001:0000bbf0       ?ContentsFromString@idCollisionModelManagerLocal@@ABEHPBD@Z 0040cbf0 f   CollisionModel_debug.obj
 0001:0000bd00       ?DebugOutput@idCollisionModelManagerLocal@@UAEXABVidVec3@@@Z 0040cd00 f   CollisionModel_debug.obj
 0001:0000c820       ?DrawEdge@idCollisionModelManagerLocal@@AAEXPAUcm_model_s@@HABVidVec3@@ABVidMat3@@@Z 0040d820 f   CollisionModel_debug.obj
 0001:0000cc30       ?DrawModel@idCollisionModelManagerLocal@@UAEXHABVidVec3@@ABVidMat3@@0M@Z 0040dc30 f   CollisionModel_debug.obj
 0001:0000cd50       ?DrawNodePolygons@idCollisionModelManagerLocal@@AAEXPAUcm_model_s@@PAUcm_node_s@@ABVidVec3@@ABVidMat3@@2M@Z 0040dd50 f   CollisionModel_debug.obj
 0001:0000cea0       ?DrawPolygon@idCollisionModelManagerLocal@@AAEXPAUcm_model_s@@PAUcm_polygon_s@@ABVidVec3@@ABVidMat3@@2@Z 0040dea0 f   CollisionModel_debug.obj
 0001:0000d430       ?Normalize@idVec3@@QAEMXZ  0040e430 f i CollisionModel_debug.obj
 0001:0000d520       ?StringFromContents@idCollisionModelManagerLocal@@ABEPBDH@Z 0040e520 f   CollisionModel_debug.obj
 0001:0000d5b0       ___local_stdio_printf_options 0040e5b0 f i CollisionModel_debug.obj
 0001:0000d5c0       ___local_stdio_scanf_options 0040e5c0 f i CollisionModel_debug.obj
 0001:0000d5d0       _sprintf                   0040e5d0 f i CollisionModel_debug.obj
 0001:0000d600       _sscanf                    0040e600 f i CollisionModel_debug.obj
 0001:0000d630       ?CountBrushMemory@idCollisionModelManagerLocal@@ABEHPAUcm_node_s@@@Z 0040e630 f   CollisionModel_files.obj
 0001:0000d690       ?CountPolygonMemory@idCollisionModelManagerLocal@@ABEHPAUcm_node_s@@@Z 0040e690 f   CollisionModel_files.obj
 0001:0000d6f0       ?GetUnsignedLongValue@idToken@@QAEKXZ 0040e6f0 f i CollisionModel_files.obj
 0001:0000d710       ?LoadCollisionModelFile@idCollisionModelManagerLocal@@AAE_NPBDI@Z 0040e710 f   CollisionModel_files.obj
 0001:0000d950       ?ParseBrushes@idCollisionModelManagerLocal@@AAEXPAVidLexer@@PAUcm_model_s@@@Z 0040e950 f   CollisionModel_files.obj
 0001:0000db80       ?ParseCollisionModel@idCollisionModelManagerLocal@@AAE_NPAVidLexer@@@Z 0040eb80 f   CollisionModel_files.obj
 0001:0000df70       ?ParseNodes@idCollisionModelManagerLocal@@AAEPAUcm_node_s@@PAVidLexer@@PAUcm_model_s@@PAU2@@Z 0040ef70 f   CollisionModel_files.obj
 0001:0000e010       ?ParsePolygons@idCollisionModelManagerLocal@@AAEXPAVidLexer@@PAUcm_model_s@@@Z 0040f010 f   CollisionModel_files.obj
 0001:0000e220       ?WriteBrushes@idCollisionModelManagerLocal@@AAEXPAVidFile@@PAUcm_node_s@@@Z 0040f220 f   CollisionModel_files.obj
 0001:0000e3b0       ?WriteCollisionModel@idCollisionModelManagerLocal@@AAEXPAVidFile@@PAUcm_model_s@@@Z 0040f3b0 f   CollisionModel_files.obj
 0001:0000e690       ?WriteCollisionModelForMapEntity@idCollisionModelManagerLocal@@UAE_NPBVidMapEntity@@PBD_N@Z 0040f690 f   CollisionModel_files.obj
 0001:0000e830       ?WriteCollisionModelsToFile@idCollisionModelManagerLocal@@AAEXPBDHHI@Z 0040f830 f   CollisionModel_files.obj
 0001:0000e950       ?WriteNodes@idCollisionModelManagerLocal@@AAEXPAVidFile@@PAUcm_node_s@@@Z 0040f950 f   CollisionModel_files.obj
 0001:0000e9c0       ?WritePolygons@idCollisionModelManagerLocal@@AAEXPAVidFile@@PAUcm_node_s@@@Z 0040f9c0 f   CollisionModel_files.obj
 0001:0000eb60       ??_EidCollisionModelManager@@UAEPAXI@Z 0040fb60 f i CollisionModel_load.obj
 0001:0000eb60       ??_GidCollisionModelManager@@UAEPAXI@Z 0040fb60 f i CollisionModel_load.obj
 0001:0000eb90       ?LoadMap@idCollisionModelManagerLocal@@UAEXPBVidMapFile@@@Z 0040fb90 f   CollisionModel_load.obj
 0001:0000ec70       ?FreeMap@idCollisionModelManagerLocal@@UAEXXZ 0040fc70 f   CollisionModel_load.obj
 0001:0000ed80       ?LoadModel@idCollisionModelManagerLocal@@UAEHPBD_N@Z 0040fd80 f   CollisionModel_load.obj
 0001:0000ee40       ?SetupTrmModel@idCollisionModelManagerLocal@@UAEHABVidTraceModel@@PBVidMaterial@@@Z 0040fe40 f   CollisionModel_load.obj
 0001:0000f1a0       ?TrmFromModel@idCollisionModelManagerLocal@@UAE_NPBDAAVidTraceModel@@@Z 004101a0 f   CollisionModel_load.obj
 0001:0000f1f0       ?GetModelName@idCollisionModelManagerLocal@@UBEPBDH@Z 004101f0 f   CollisionModel_load.obj
 0001:0000f230       ?GetModelBounds@idCollisionModelManagerLocal@@UBE_NHAAVidBounds@@@Z 00410230 f   CollisionModel_load.obj
 0001:0000f280       ?GetModelContents@idCollisionModelManagerLocal@@UBE_NHAAH@Z 00410280 f   CollisionModel_load.obj
 0001:0000f2d0       ?GetModelVertex@idCollisionModelManagerLocal@@UBE_NHHAAVidVec3@@@Z 004102d0 f   CollisionModel_load.obj
 0001:0000f350       ?GetModelEdge@idCollisionModelManagerLocal@@UBE_NHHAAVidVec3@@0@Z 00410350 f   CollisionModel_load.obj
 0001:0000f400       ?GetModelPolygon@idCollisionModelManagerLocal@@UBE_NHHAAVidFixedWinding@@@Z 00410400 f   CollisionModel_load.obj
 0001:0000f510       ?ModelInfo@idCollisionModelManagerLocal@@UAEXH@Z 00410510 f   CollisionModel_load.obj
 0001:0000f5e0       ?ListModels@idCollisionModelManagerLocal@@UAEXXZ 004105e0 f   CollisionModel_load.obj
 0001:0000f650       ??_EidCollisionModelManagerLocal@@UAEPAXI@Z 00410650 f i CollisionModel_load.obj
 0001:0000f650       ??_GidCollisionModelManagerLocal@@UAEPAXI@Z 00410650 f i CollisionModel_load.obj
 0001:0000f6b0       ??0idFixedWinding@@QAE@XZ  004106b0 f i CollisionModel_load.obj
 0001:0000f6f0       ??1idSurface@@QAE@XZ       004106f0 f i CollisionModel_load.obj
 0001:0000f790       ??4?$idList@H@@QAEAAV0@ABV0@@Z 00410790 f i CollisionModel_load.obj
 0001:0000f810       ??4idBounds@@QAEAAV0@$$QAV0@@Z 00410810 f i DeclParticle.obj
 0001:0000f810       ??4idBounds@@QAEAAV0@ABV0@@Z 00410810 f i CollisionModel_load.obj
 0001:0000f840       ??4idFixedWinding@@QAEAAV0@ABV0@@Z 00410840 f i CollisionModel_load.obj
 0001:0000f8c0       ??4idSurface@@QAEAAV0@ABV0@@Z 004108c0 f i CollisionModel_load.obj
 0001:0000fa90       ?AccumulateModelInfo@idCollisionModelManagerLocal@@AAEXPAUcm_model_s@@@Z 00410a90 f   CollisionModel_load.obj
 0001:0000fba0       ?AllocBrush@idCollisionModelManagerLocal@@AAEPAUcm_brush_s@@PAUcm_model_s@@H@Z 00410ba0 f   CollisionModel_load.obj
 0001:0000fbf0       ?AllocBrushReference@idCollisionModelManagerLocal@@AAEPAUcm_brushRef_s@@PAUcm_model_s@@H@Z 00410bf0 f   CollisionModel_load.obj
 0001:0000fc60       ?AllocModel@idCollisionModelManagerLocal@@AAEPAUcm_model_s@@XZ 00410c60 f   CollisionModel_load.obj
 0001:0000fd60       ?AllocNode@idCollisionModelManagerLocal@@AAEPAUcm_node_s@@PAUcm_model_s@@H@Z 00410d60 f   CollisionModel_load.obj
 0001:0000fdd0       ?AllocPolygon@idCollisionModelManagerLocal@@AAEPAUcm_polygon_s@@PAUcm_model_s@@H@Z 00410dd0 f   CollisionModel_load.obj
 0001:0000fe20       ?AllocPolygonReference@idCollisionModelManagerLocal@@AAEPAUcm_polygonRef_s@@PAUcm_model_s@@H@Z 00410e20 f   CollisionModel_load.obj
 0001:0000fe90       ?BuildModels@idCollisionModelManagerLocal@@AAEXPBVidMapFile@@@Z 00410e90 f   CollisionModel_load.obj
 0001:000103b0       ?CM_GetNodeBounds@@YAXPAVidBounds@@PAUcm_node_s@@@Z 004113b0 f   CollisionModel_load.obj
 0001:00010440       ?CM_GetNodeContents@@YAHPAUcm_node_s@@@Z 00411440 f   CollisionModel_load.obj
 0001:00010720       ?CalculateEdgeNormals@idCollisionModelManagerLocal@@AAEXPAUcm_model_s@@PAUcm_node_s@@@Z 00411720 f   CollisionModel_load.obj
 0001:00010c80       ?ChopWindingListWithBrush@idCollisionModelManagerLocal@@AAEXPAUcm_windingList_s@@PAUcm_brush_s@@@Z 00411c80 f   CollisionModel_load.obj
 0001:000113f0       ?ChoppedAwayByProcBSP@idCollisionModelManagerLocal@@AAEHABVidFixedWinding@@ABVidPlane@@H@Z 004123f0 f   CollisionModel_load.obj
 0001:00011560       ?Clear@idCollisionModelManagerLocal@@AAEXXZ 00412560 f   CollisionModel_load.obj
 0001:00011610       ?ClearHash@idCollisionModelManagerLocal@@AAEXAAVidBounds@@@Z 00412610 f   CollisionModel_load.obj
 0001:00011700       ?CollisionModelForMapEntity@idCollisionModelManagerLocal@@AAEPAUcm_model_s@@PBVidMapEntity@@@Z 00412700 f   CollisionModel_load.obj
 0001:00011b50       ?ConvertBrush@idCollisionModelManagerLocal@@AAEXPAUcm_model_s@@PBVidMapBrush@@H@Z 00412b50 f   CollisionModel_load.obj
 0001:00011f40       ?ConvertBrushSides@idCollisionModelManagerLocal@@AAEXPAUcm_model_s@@PBVidMapBrush@@H@Z 00412f40 f   CollisionModel_load.obj
 0001:000121c0       ?CreateAxialBSPTree@idCollisionModelManagerLocal@@AAEPAUcm_node_s@@PAUcm_model_s@@PAU2@@Z 004131c0 f   CollisionModel_load.obj
 0001:00012330       ?CreatePatchPolygons@idCollisionModelManagerLocal@@AAEXPAUcm_model_s@@AAVidSurface_Patch@@PBVidMaterial@@H@Z 00413330 f   CollisionModel_load.obj
 0001:00012b30       ?CreatePolygon@idCollisionModelManagerLocal@@AAEXPAUcm_model_s@@PAVidFixedWinding@@ABVidPlane@@PBVidMaterial@@H@Z 00413b30 f   CollisionModel_load.obj
 0001:00012d40       ?FindInternalEdges@idCollisionModelManagerLocal@@AAEXPAUcm_model_s@@PAUcm_node_s@@@Z 00413d40 f   CollisionModel_load.obj
 0001:00012e60       ?FindInternalEdgesOnPolygon@idCollisionModelManagerLocal@@AAEXPAUcm_model_s@@PAUcm_polygon_s@@1@Z 00413e60 f   CollisionModel_load.obj
 0001:00013150       ?FindInternalPolygonEdges@idCollisionModelManagerLocal@@AAEXPAUcm_model_s@@PAUcm_node_s@@PAUcm_polygon_s@@@Z 00414150 f   CollisionModel_load.obj
 0001:00013520       ?FindModel@idCollisionModelManagerLocal@@AAEHPBD@Z 00414520 f   CollisionModel_load.obj
 0001:00013560       ?FinishModel@idCollisionModelManagerLocal@@AAEXPAUcm_model_s@@@Z 00414560 f   CollisionModel_load.obj
 0001:00013600       ?FixDegenerateNormal@idPlane@@QAE_NXZ 00414600 f i CollisionModel_load.obj
 0001:000137e0       ?FreeModel@idCollisionModelManagerLocal@@AAEXPAUcm_model_s@@@Z 004147e0 f   CollisionModel_load.obj
 0001:000138c0       ?FreeTree_r@idCollisionModelManagerLocal@@AAEXPAUcm_model_s@@PAUcm_node_s@@1@Z 004148c0 f   CollisionModel_load.obj
 0001:00013a10       ?GetEdge@idCollisionModelManagerLocal@@AAEHPAUcm_model_s@@ABVidVec3@@1PAHH@Z 00414a10 f   CollisionModel_load.obj
 0001:00013c30       ?GetVertex@idCollisionModelManagerLocal@@AAEHPAUcm_model_s@@ABVidVec3@@PAH@Z 00414c30 f   CollisionModel_load.obj
 0001:00013ef0       ?Length@idVec3@@QBEMXZ     00414ef0 f i CollisionModel_load.obj
 0001:00013fa0       ?LoadProcBSP@idCollisionModelManagerLocal@@AAEXPBD@Z 00414fa0 f   CollisionModel_load.obj
 0001:00014230       ?LoadRenderModel@idCollisionModelManagerLocal@@AAEPAUcm_model_s@@PBD@Z 00415230 f   CollisionModel_load.obj
 0001:000147e0       ?MergePolygonWithTreePolygons@idCollisionModelManagerLocal@@AAE_NPAUcm_model_s@@PAUcm_node_s@@PAUcm_polygon_s@@@Z 004157e0 f   CollisionModel_load.obj
 0001:00014930       ?MergeTreePolygons@idCollisionModelManagerLocal@@AAEXPAUcm_model_s@@PAUcm_node_s@@@Z 00415930 f   CollisionModel_load.obj
 0001:00014b20       ?OptimizeArrays@idCollisionModelManagerLocal@@AAEXPAUcm_model_s@@@Z 00415b20 f   CollisionModel_load.obj
 0001:00014d80       ?PointInsidePolygon@idCollisionModelManagerLocal@@AAE_NPAUcm_model_s@@PAUcm_polygon_s@@AAVidVec3@@@Z 00415d80 f   CollisionModel_load.obj
 0001:00014ea0       ?PolygonFromWinding@idCollisionModelManagerLocal@@AAEXPAUcm_model_s@@PAVidFixedWinding@@ABVidPlane@@PBVidMaterial@@H@Z 00415ea0 f   CollisionModel_load.obj
 0001:00014fb0       ?PrintModelInfo@idCollisionModelManagerLocal@@AAEXPBUcm_model_s@@@Z 00415fb0 f   CollisionModel_load.obj
 0001:00015120       ?R_ChopWindingListWithTreeBrushes@idCollisionModelManagerLocal@@AAEXPAUcm_windingList_s@@PAUcm_node_s@@@Z 00416120 f   CollisionModel_load.obj
 0001:00015210       ?R_ChoppedAwayByProcBSP@idCollisionModelManagerLocal@@AAEHHPAVidFixedWinding@@ABVidVec3@@1M@Z 00416210 f   CollisionModel_load.obj
 0001:000153a0       ?R_CreateAxialBSPTree@idCollisionModelManagerLocal@@AAEPAUcm_node_s@@PAUcm_model_s@@PAU2@ABVidBounds@@@Z 004163a0 f   CollisionModel_load.obj
 0001:00015620       ?R_FilterBrushIntoTree@idCollisionModelManagerLocal@@AAEXPAUcm_model_s@@PAUcm_node_s@@PAUcm_brushRef_s@@PAUcm_brush_s@@@Z 00416620 f   CollisionModel_load.obj
 0001:00015710       ?R_FilterPolygonIntoTree@idCollisionModelManagerLocal@@AAEXPAUcm_model_s@@PAUcm_node_s@@PAUcm_polygonRef_s@@PAUcm_polygon_s@@@Z 00416710 f   CollisionModel_load.obj
 0001:00015800       ?RemapEdges@idCollisionModelManagerLocal@@AAEXPAUcm_node_s@@PAH@Z 00416800 f   CollisionModel_load.obj
 0001:00015890       ?RemoveBrushReferences_r@idCollisionModelManagerLocal@@AAEXPAUcm_node_s@@PAUcm_brush_s@@@Z 00416890 f   CollisionModel_load.obj
 0001:00015900       ?RemovePolygonReferences_r@idCollisionModelManagerLocal@@AAEXPAUcm_node_s@@PAUcm_polygon_s@@@Z 00416900 f   CollisionModel_load.obj
 0001:00015970       ?ReplacePolygons@idCollisionModelManagerLocal@@AAEXPAUcm_model_s@@PAUcm_node_s@@PAUcm_polygon_s@@22@Z 00416970 f   CollisionModel_load.obj
 0001:00015a40       ?SetupHash@idCollisionModelManagerLocal@@AAEXXZ 00416a40 f   CollisionModel_load.obj
 0001:00015bf0       ?SetupTrmModelStructure@idCollisionModelManagerLocal@@AAEXXZ 00416bf0 f   CollisionModel_load.obj
 0001:00015ee0       ?ShutdownHash@idCollisionModelManagerLocal@@AAEXXZ 00416ee0 f   CollisionModel_load.obj
 0001:00016050       ?TrmFromModel@idCollisionModelManagerLocal@@AAE_NPBUcm_model_s@@AAVidTraceModel@@@Z 00417050 f   CollisionModel_load.obj
 0001:000164a0       ?TrmFromModel_r@idCollisionModelManagerLocal@@AAE_NAAVidTraceModel@@PAUcm_node_s@@@Z 004174a0 f   CollisionModel_load.obj
 0001:00016610       ?TryMergePolygons@idCollisionModelManagerLocal@@AAEPAUcm_polygon_s@@PAUcm_model_s@@PAU2@1@Z 00417610 f   CollisionModel_load.obj
 0001:00017140       ?WindingOutsideBrushes@idCollisionModelManagerLocal@@AAEPAVidFixedWinding@@PAV2@ABVidPlane@@HHPAUcm_node_s@@@Z 00418140 f   CollisionModel_load.obj
 0001:000175a0       ??4idMat3@@QAEAAV0@$$QAV0@@Z 004185a0 f i CollisionModel_rotate.obj
 0001:000175a0       ??4idMat3@@QAEAAV0@ABV0@@Z 004185a0 f i CollisionModel_translate.obj
 0001:000175e0       ??4trace_s@@QAEAAU0@ABU0@@Z 004185e0 f i CollisionModel_rotate.obj
 0001:00017690       ??X@YAAAVidVec3@@AAV0@ABVidMat3@@@Z 00418690 f i CollisionModel_rotate.obj
 0001:00017710       ?BoundsForRotation@idCollisionModelManagerLocal@@AAEXABVidVec3@@000AAVidBounds@@@Z 00418710 f   CollisionModel_rotate.obj
 0001:00017a70       ?CM_RotateEdge@@YAXAAVidVec3@@0ABV1@1M@Z 00418a70 f   CollisionModel_rotate.obj
 0001:00017d70       ?CollisionBetweenEdgeBounds@idCollisionModelManagerLocal@@AAEHPAUcm_traceWork_s@@ABVidVec3@@111MAAV3@2@Z 00418d70 f   CollisionModel_rotate.obj
 0001:00018520       ?EdgeFurthestFromEdge@idCollisionModelManagerLocal@@AAEHPAUcm_traceWork_s@@ABVidPluecker@@ABVidVec3@@2AAM3@Z 00419520 f   CollisionModel_rotate.obj
 0001:00018930       ?PointFurthestFromPlane@idCollisionModelManagerLocal@@AAEHPBUcm_traceWork_s@@ABVidVec3@@ABVidPlane@@MAAM3@Z 00419930 f   CollisionModel_rotate.obj
 0001:00018bb0       ?RotateEdgeThroughEdge@idCollisionModelManagerLocal@@AAEHPAUcm_traceWork_s@@ABVidPluecker@@ABVidVec3@@2MAAM@Z 00419bb0 f   CollisionModel_rotate.obj
 0001:00018f90       ?RotatePointThroughEpsilonPlane@idCollisionModelManagerLocal@@AAEHPBUcm_traceWork_s@@ABVidVec3@@1ABVidPlane@@M1AAMAAV3@4@Z 00419f90 f   CollisionModel_rotate.obj
 0001:00019630       ?RotatePointThroughPlane@idCollisionModelManagerLocal@@AAEHPBUcm_traceWork_s@@ABVidVec3@@ABVidPlane@@MMAAM@Z 0041a630 f   CollisionModel_rotate.obj
 0001:000199a0       ?RotateTrmEdgeThroughPolygon@idCollisionModelManagerLocal@@AAEXPAUcm_traceWork_s@@PAUcm_polygon_s@@PAUcm_trmEdge_s@@@Z 0041a9a0 f   CollisionModel_rotate.obj
 0001:0001a2b0       ?RotateTrmThroughPolygon@idCollisionModelManagerLocal@@AAE_NPAUcm_traceWork_s@@PAUcm_polygon_s@@@Z 0041b2b0 f   CollisionModel_rotate.obj
 0001:0001a880       ?RotateTrmVertexThroughPolygon@idCollisionModelManagerLocal@@AAEXPAUcm_traceWork_s@@PAUcm_polygon_s@@PAUcm_trmVertex_s@@H@Z 0041b880 f   CollisionModel_rotate.obj
 0001:0001ab80       ?RotateVertexThroughTrmPolygon@idCollisionModelManagerLocal@@AAEXPAUcm_traceWork_s@@PAUcm_trmPolygon_s@@PAUcm_polygon_s@@PAUcm_vertex_s@@AAVidVec3@@@Z 0041bb80 f   CollisionModel_rotate.obj
 0001:0001afd0       ?Rotation180@idCollisionModelManagerLocal@@AAEXPAUtrace_s@@ABVidVec3@@1MM1PBVidTraceModel@@ABVidMat3@@HH13@Z 0041bfd0 f   CollisionModel_rotate.obj
 0001:0001db40       ?Rotation@idCollisionModelManagerLocal@@UAEXPAUtrace_s@@ABVidVec3@@ABVidRotation@@PBVidTraceModel@@ABVidMat3@@HH14@Z 0041eb40 f   CollisionModel_rotate.obj
 0001:0001dd20       ?Set@idRotation@@QAEXABVidVec3@@0M@Z 0041ed20 f i CollisionModel_rotate.obj
 0001:0001dd60       ?Sqrt@idMath@@SAMM@Z       0041ed60 f i CollisionModel_rotate.obj
 0001:0001de00       ?TraceThroughAxialBSPTree_r@idCollisionModelManagerLocal@@AAEXPAUcm_traceWork_s@@PAUcm_node_s@@MMAAVidVec3@@2@Z 0041ee00 f   CollisionModel_trace.obj
 0001:0001e1d0       ?TraceThroughModel@idCollisionModelManagerLocal@@AAEXPAUcm_traceWork_s@@@Z 0041f1d0 f   CollisionModel_trace.obj
 0001:0001e410       ??4contactInfo_t@@QAEAAU0@ABU0@@Z 0041f410 f i CollisionModel_translate.obj
 0001:0001e470       ?SetupTranslationHeartPlanes@idCollisionModelManagerLocal@@AAEXPAUcm_traceWork_s@@@Z 0041f470 f   CollisionModel_translate.obj
 0001:0001e660       ?SetupTrm@idCollisionModelManagerLocal@@AAEXPAUcm_traceWork_s@@PBVidTraceModel@@@Z 0041f660 f   CollisionModel_translate.obj
 0001:0001e7a0       ?TranslatePointThroughPolygon@idCollisionModelManagerLocal@@AAEXPAUcm_traceWork_s@@PAUcm_polygon_s@@PAUcm_trmVertex_s@@@Z 0041f7a0 f   CollisionModel_translate.obj
 0001:0001eb20       ?TranslateTrmEdgeThroughPolygon@idCollisionModelManagerLocal@@AAEXPAUcm_traceWork_s@@PAUcm_polygon_s@@PAUcm_trmEdge_s@@@Z 0041fb20 f   CollisionModel_translate.obj
 0001:0001f520       ?TranslateTrmThroughPolygon@idCollisionModelManagerLocal@@AAE_NPAUcm_traceWork_s@@PAUcm_polygon_s@@@Z 00420520 f   CollisionModel_translate.obj
 0001:0001fcd0       ?TranslateTrmVertexThroughPolygon@idCollisionModelManagerLocal@@AAEXPAUcm_traceWork_s@@PAUcm_polygon_s@@PAUcm_trmVertex_s@@H@Z 00420cd0 f   CollisionModel_translate.obj
 0001:00020010       ?TranslateVertexThroughTrmPolygon@idCollisionModelManagerLocal@@AAEXPAUcm_traceWork_s@@PAUcm_trmPolygon_s@@PAUcm_polygon_s@@PAUcm_vertex_s@@AAVidVec3@@AAVidPluecker@@@Z 00421010 f   CollisionModel_translate.obj
 0001:00020390       ?Translation@idCollisionModelManagerLocal@@UAEXPAUtrace_s@@ABVidVec3@@1PBVidTraceModel@@ABVidMat3@@HH13@Z 00421390 f   CollisionModel_translate.obj
 0001:00021fe0       ??_EidCmdSystem@@UAEPAXI@Z 00422fe0 f i CmdSystem.obj
 0001:00021fe0       ??_GidCmdSystem@@UAEPAXI@Z 00422fe0 f i CmdSystem.obj
 0001:00022010       ?Init@idCmdSystemLocal@@UAEXXZ 00423010 f   CmdSystem.obj
 0001:00022150       ?Shutdown@idCmdSystemLocal@@UAEXXZ 00423150 f   CmdSystem.obj
 0001:00022270       ?AddCommand@idCmdSystemLocal@@UAEXPBDP6AXABVidCmdArgs@@@ZH0P6AX1P6AX0@Z@Z@Z 00423270 f   CmdSystem.obj
 0001:00022300       ?RemoveCommand@idCmdSystemLocal@@UAEXPBD@Z 00423300 f   CmdSystem.obj
 0001:00022360       ?RemoveFlaggedCommands@idCmdSystemLocal@@UAEXH@Z 00423360 f   CmdSystem.obj
 0001:000223b0       ?CommandCompletion@idCmdSystemLocal@@UAEXP6AXPBD@Z@Z 004233b0 f   CmdSystem.obj
 0001:000223e0       ?ArgCompletion@idCmdSystemLocal@@UAEXPBDP6AX0@Z@Z 004233e0 f   CmdSystem.obj
 0001:00022470       ?BufferCommandText@idCmdSystemLocal@@UAEXW4cmdExecution_t@@PBD@Z 00423470 f   CmdSystem.obj
 0001:00022580       ?ExecuteCommandBuffer@idCmdSystemLocal@@UAEXXZ 00423580 f   CmdSystem.obj
 0001:00022780       ?ArgCompletion_FolderExtension@idCmdSystemLocal@@UAAXABVidCmdArgs@@P6AXPBD@Z1_NZZ 00423780 f   CmdSystem.obj
 0001:00023150       ?ArgCompletion_DeclName@idCmdSystemLocal@@UAEXABVidCmdArgs@@P6AXPBD@ZH@Z 00424150 f   CmdSystem.obj
 0001:00023360       ?BufferCommandArgs@idCmdSystemLocal@@UAEXW4cmdExecution_t@@ABVidCmdArgs@@@Z 00424360 f   CmdSystem.obj
 0001:00023450       ?SetupReloadEngine@idCmdSystemLocal@@UAEXABVidCmdArgs@@@Z 00424450 f   CmdSystem.obj
 0001:00023480       ?PostReloadEngine@idCmdSystemLocal@@UAE_NXZ 00424480 f   CmdSystem.obj
 0001:000234b0       ??_EidCmdSystemLocal@@UAEPAXI@Z 004244b0 f i CmdSystem.obj
 0001:000234b0       ??_GidCmdSystemLocal@@UAEPAXI@Z 004244b0 f i CmdSystem.obj
 0001:000234e0       ??$idListSortCompare@PBUcommandDef_s@@@@YAHPBQBUcommandDef_s@@0@Z 004244e0 f i CmdSystem.obj
 0001:00023500       ??0idStr@@QAE@ABV0@@Z      00424500 f i CmdSystem.obj
 0001:00023550       ??1?$idList@H@@QAE@XZ      00424550 f i FileSystem.obj
 0001:00023550       ??1?$idList@M@@QAE@XZ      00424550 f i Model_liquid.obj
 0001:00023550       ??1?$idList@PAUidTimeLineEvent@@@@QAE@XZ 00424550 f i Window.obj
 0001:00023550       ??1?$idList@PAUmaMaterial_t@@@@QAE@XZ 00424550 f i Model_ma.obj
 0001:00023550       ??1?$idList@PAUmaObject_t@@@@QAE@XZ 00424550 f i Model_ma.obj
 0001:00023550       ??1?$idList@PAUpack_t@@@@QAE@XZ 00424550 f i FileSystem.obj
 0001:00023550       ??1?$idList@PAVBOBrick@@@@QAE@XZ 00424550 f i GameBustOutWindow.obj
 0001:00023550       ??1?$idList@PAVBOEntity@@@@QAE@XZ 00424550 f i GameBustOutWindow.obj
 0001:00023550       ??1?$idList@PAVBSEntity@@@@QAE@XZ 00424550 f i GameBearShootWindow.obj
 0001:00023550       ??1?$idList@PAVSSDEntity@@@@QAE@XZ 00424550 f i GameSSDWindow.obj
 0001:00023550       ??1?$idList@PAVSoundFX@@@@QAE@XZ 00424550 f i snd_system.obj
 0001:00023550       ??1?$idList@PAVidBrushBSPNode@@@@QAE@XZ 00424550 f i AASBuild_ledge.obj
 0001:00023550       ??1?$idList@PAVidBrushList@@@@QAE@XZ 00424550 f i AASBuild.obj
 0001:00023550       ??1?$idList@PAVidBrushSide@@@@QAE@XZ 00424550 f i AASBuild.obj
 0001:00023550       ??1?$idList@PAVidDeclAF_Body@@@@QAE@XZ 00424550 f i DeclAF.obj
 0001:00023550       ??1?$idList@PAVidDeclAF_Constraint@@@@QAE@XZ 00424550 f i DeclAF.obj
 0001:00023550       ??1?$idList@PAVidDeclFile@@@@QAE@XZ 00424550 f i DeclManager.obj
 0001:00023550       ??1?$idList@PAVidDeclFolder@@@@QAE@XZ 00424550 f i DeclManager.obj
 0001:00023550       ??1?$idList@PAVidDeclLocal@@@@QAE@XZ 00424550 f i DeclManager.obj
 0001:00023550       ??1?$idList@PAVidDeclType@@@@QAE@XZ 00424550 f i DeclManager.obj
 0001:00023550       ??1?$idList@PAVidGuiScript@@@@QAE@XZ 00424550 f i GuiScript.obj
 0001:00023550       ??1?$idList@PAVidImage@@@@QAE@XZ 00424550 f i Image_init.obj
 0001:00023550       ??1?$idList@PAVidInternalCVar@@@@QAE@XZ 00424550 f i CVarSystem.obj
 0001:00023550       ??1?$idList@PAVidMapBrushSide@@@@QAE@XZ 00424550 f i idLib:MapFile.obj
 0001:00023550       ??1?$idList@PAVidMapEntity@@@@QAE@XZ 00424550 f i Common.obj
 0001:00023550       ??1?$idList@PAVidMapPrimitive@@@@QAE@XZ 00424550 f i idLib:MapFile.obj
 0001:00023550       ??1?$idList@PAVidPoolStr@@@@QAE@XZ 00424550 f i idLib:Dict.obj
 0001:00023550       ??1?$idList@PAVidRegister@@@@QAE@XZ 00424550 f i Window.obj
 0001:00023550       ??1?$idList@PAVidRenderEntityLocal@@@@QAE@XZ 00424550 f i RenderWorld.obj
 0001:00023550       ??1?$idList@PAVidRenderLightLocal@@@@QAE@XZ 00424550 f i RenderWorld.obj
 0001:00023550       ??1?$idList@PAVidRenderModel@@@@QAE@XZ 00424550 f i ModelManager.obj
 0001:00023550       ??1?$idList@PAVidRenderWorldLocal@@@@QAE@XZ 00424550 f i RenderSystem.obj
 0001:00023550       ??1?$idList@PAVidSoundSample@@@@QAE@XZ 00424550 f i snd_cache.obj
 0001:00023550       ??1?$idList@PAVidStr@@@@QAE@XZ 00424550 f i Common.obj
 0001:00023550       ??1?$idList@PAVidWinVar@@@@QAE@XZ 00424550 f i Window.obj
 0001:00023550       ??1?$idList@PAVidWindow@@@@QAE@XZ 00424550 f i Window.obj
 0001:00023550       ??1?$idList@PAVrvNamedEvent@@@@QAE@XZ 00424550 f i Window.obj
 0001:00023550       ??1?$idList@PBUcommandDef_s@@@@QAE@XZ 00424550 f i CmdSystem.obj
 0001:00023550       ??1?$idList@PBVidDeclEntityDef@@@@QAE@XZ 00424550 f i DeclEntityDef.obj
 0001:00023550       ??1?$idList@PBVidInternalCVar@@@@QAE@XZ 00424550 f i CVarSystem.obj
 0001:00023550       ??1?$idList@PBVidPoolStr@@@@QAE@XZ 00424550 f i idLib:Dict.obj
 0001:00023550       ??1?$idList@USSDAsteroidData_t@@@@QAE@XZ 00424550 f i GameSSDWindow.obj
 0001:00023550       ??1?$idList@USSDAstronautData_t@@@@QAE@XZ 00424550 f i GameSSDWindow.obj
 0001:00023550       ??1?$idList@USSDLevelData_t@@@@QAE@XZ 00424550 f i GameSSDWindow.obj
 0001:00023550       ??1?$idList@USSDPowerupData_t@@@@QAE@XZ 00424550 f i GameSSDWindow.obj
 0001:00023550       ??1?$idList@USSDWeaponData_t@@@@QAE@XZ 00424550 f i GameSSDWindow.obj
 0001:00023550       ??1?$idList@UaasArea_s@@@@QAE@XZ 00424550 f i AASFile.obj
 0001:00023550       ??1?$idList@UaasCluster_s@@@@QAE@XZ 00424550 f i AASFile.obj
 0001:00023550       ??1?$idList@UaasEdge_s@@@@QAE@XZ 00424550 f i AASFile.obj
 0001:00023550       ??1?$idList@UaasFace_s@@@@QAE@XZ 00424550 f i AASFile.obj
 0001:00023550       ??1?$idList@UaasNode_s@@@@QAE@XZ 00424550 f i AASFile.obj
 0001:00023550       ??1?$idList@UaasPortal_s@@@@QAE@XZ 00424550 f i AASFile.obj
 0001:00023550       ??1?$idList@UdrawWin_t@@@@QAE@XZ 00424550 f i Window.obj
 0001:00023550       ??1?$idList@UfileTIME_T@@@@QAE@XZ 00424550 f i Session_menu.obj
 0001:00023550       ??1?$idList@UguiModelSurface_t@@@@QAE@XZ 00424550 f i GuiModel.obj
 0001:00023550       ??1?$idList@UidGSWinVar@@@@QAE@XZ 00424550 f i GuiScript.obj
 0001:00023550       ??1?$idList@UidTabRect@@@@QAE@XZ 00424550 f i ListWindow.obj
 0001:00023550       ??1?$idList@UidTransitionData@@@@QAE@XZ 00424550 f i Window.obj
 0001:00023550       ??1?$idList@UinServer_t@@@@QAE@XZ 00424550 f i ServerScan.obj
 0001:00023550       ??1?$idList@Ujob_t@idParallelJobList_Threads@@@@QAE@XZ 00424550 f i idLib:ParallelJobList.obj
 0001:00023550       ??1?$idList@UmodelSurface_s@@@@QAE@XZ 00424550 f i Model.obj
 0001:00023550       ??1?$idList@UvertexWeight_s@@@@QAE@XZ 00424550 f i Model_md5.obj
 0001:00023550       ??1?$idList@UwexpOp_t@@@@QAE@XZ 00424550 f i Window.obj
 0001:00023550       ??1?$idList@VidDrawVert@@@@QAE@XZ 00424550 f i GuiModel.obj
 0001:00023550       ??1?$idList@VidKeyValue@@@@QAE@XZ 00424550 f i CVarSystem.obj
 0001:00023550       ??1?$idList@VidPlane@@@@QAE@XZ 00424550 f i AASBuild_gravity.obj
 0001:00023550       ??1?$idList@VidSysInterlockedInteger@@@@QAE@XZ 00424550 f i idLib:ParallelJobList.obj
 0001:00023550       ??1?$idList@VidVec2@@@@QAE@XZ 00424550 f i ListWindow.obj
 0001:00023550       ??1?$idList@VidVec3@@@@QAE@XZ 00424550 f i AASFile.obj
 0001:00023550       ??1idMultiWinVar@@QAE@XZ   00424550 f i ChoiceWindow.obj
 0001:00023550       ?Clear@?$idList@PAVidGuiScript@@@@QAEXXZ 00424550 f i GuiScript.obj
 0001:00023580       ??1idCmdSystemLocal@@UAE@XZ 00424580 f i CmdSystem.obj
 0001:00023650       ??H@YA?AVidStr@@PBDABV0@@Z 00424650 f i CmdSystem.obj
 0001:00023740       ?AppendCommandText@idCmdSystemLocal@@AAEXPBD@Z 00424740 f   CmdSystem.obj
 0001:000237a0       ?ArgCompletion_ConfigName@idCmdSystem@@SAXABVidCmdArgs@@P6AXPBD@Z@Z 004247a0 f i CmdSystem.obj
 0001:000237d0       ?Echo_f@idCmdSystemLocal@@CAXABVidCmdArgs@@@Z 004247d0 f   CmdSystem.obj
 0001:00023830       ?Exec_f@idCmdSystemLocal@@CAXABVidCmdArgs@@@Z 00424830 f   CmdSystem.obj
 0001:00023950       ?ExecuteTokenizedString@idCmdSystemLocal@@AAEXABVidCmdArgs@@@Z 00424950 f   CmdSystem.obj
 0001:00023a30       ?GameList_f@idCmdSystemLocal@@CAXABVidCmdArgs@@@Z 00424a30 f   CmdSystem.obj
 0001:00023a40       ?ListByFlags@idCmdSystemLocal@@CAXABVidCmdArgs@@W4cmdFlags_t@@@Z 00424a40 f   CmdSystem.obj
 0001:00023d50       ?List_f@idCmdSystemLocal@@CAXABVidCmdArgs@@@Z 00424d50 f   CmdSystem.obj
 0001:00023d60       ?Parse_f@idCmdSystemLocal@@CAXABVidCmdArgs@@@Z 00424d60 f   CmdSystem.obj
 0001:00023db0       ?RendererList_f@idCmdSystemLocal@@CAXABVidCmdArgs@@@Z 00424db0 f   CmdSystem.obj
 0001:00023dc0       ?Resize@?$idList@VidCmdArgs@@@@QAEXH@Z 00424dc0 f i CmdSystem.obj
 0001:00023e80       ?Resize@?$idList@VidStr@@@@QAEXH@Z 00424e80 f i CmdSystem.obj
 0001:00024030       ?SoundList_f@idCmdSystemLocal@@CAXABVidCmdArgs@@@Z 00425030 f   CmdSystem.obj
 0001:00024040       ?SystemList_f@idCmdSystemLocal@@CAXABVidCmdArgs@@@Z 00425040 f   CmdSystem.obj
 0001:00024050       ?ToolList_f@idCmdSystemLocal@@CAXABVidCmdArgs@@@Z 00425050 f   CmdSystem.obj
 0001:00024060       ?Vstr_f@idCmdSystemLocal@@CAXABVidCmdArgs@@@Z 00425060 f   CmdSystem.obj
 0001:000240b0       ?Wait_f@idCmdSystemLocal@@CAXABVidCmdArgs@@@Z 004250b0 f   CmdSystem.obj
 0001:000240e0       ??$ArgCompletion_Integer@$0A@$01@idCmdSystem@@SAXABVidCmdArgs@@P6AXPBD@Z@Z 004250e0 f i Common.obj
 0001:00024120       ??$idListSortCompare@PAVidStr@@@@YAHPBQAVidStr@@0@Z 00425120 f i Common.obj
 0001:00024120       ??$idListSortCompare@PBVidPoolStr@@@@YAHPBQBVidPoolStr@@0@Z 00425120 f i idLib:Dict.obj
 0001:00024140       ??$idListSortCompare@VidStr@@@@YAHPBVidStr@@0@Z 00425140 f i Common.obj
 0001:00024150       ??0idException@@QAE@PBD@Z  00425150 f i Common.obj
 0001:00024170       ??0idMapFile@@QAE@XZ       00425170 f i Common.obj
 0001:00024250       ??0idStr@@QAE@PBD@Z        00425250 f i Common.obj
 0001:000242b0       ??1?$idHashTable@V?$idList@VidStr@@@@@@QAE@XZ 004252b0 f i Common.obj
 0001:000243b0       ??1?$idList@VidStr@@@@QAE@XZ 004253b0 f i Common.obj
 0001:00024430       ??1idCommon@@UAE@XZ        00425430 f i Common.obj
 0001:00024490       ??1idCommonLocal@@UAE@XZ   00425490 f i Common.obj
 0001:000245d0       ??1idMapFile@@QAE@XZ       004255d0 f i Common.obj
 0001:00024640       ??4?$idList@VidStr@@@@QAEAAV0@ABV0@@Z 00425640 f i Common.obj
 0001:000247c0       ??_EidCommon@@UAEPAXI@Z    004257c0 f i Common.obj
 0001:000247c0       ??_GidCommon@@UAEPAXI@Z    004257c0 f i Common.obj
 0001:00024830       ??_EidCommonLocal@@UAEPAXI@Z 00425830 f i Common.obj
 0001:00024830       ??_GidCommonLocal@@UAEPAXI@Z 00425830 f i Common.obj
 0001:00024860       ?ActivateTool@idCommonLocal@@UAEX_N@Z 00425860 f   Common.obj
 0001:00024880       ?AddJobToGameLogicJobList@idCommonLocal@@UAEXP6AXPAX@Z0@Z 00425880 f   Common.obj
 0001:00024890       ?Append@?$idList@VidStr@@@@QAEHABVidStr@@@Z 00425890 f i Common.obj
 0001:00024930       ?ArgCompletion_MapName@idCmdSystem@@SAXABVidCmdArgs@@P6AXPBD@Z@Z 00425930 f i Common.obj
 0001:00024960       ?ArgCompletion_ModelName@idCmdSystem@@SAXABVidCmdArgs@@P6AXPBD@Z@Z 00425960 f i Common.obj
 0001:000249a0       ?Async@idCommonLocal@@UAEXXZ 004259a0 f   Common.obj
 0001:00024b30       ?BeginRedirect@idCommonLocal@@UAEXPADHP6AXPBD@Z@Z 00425b30 f   Common.obj
 0001:00024b70       ?BindingFromKey@idCommonLocal@@UAEPBDPBD@Z 00425b70 f   Common.obj
 0001:00024b80       ?ButtonState@idCommonLocal@@UAEHH@Z 00425b80 f   Common.obj
 0001:00024b90       ?CheckToolMode@idCommonLocal@@AAEXXZ 00425b90 f   Common.obj
 0001:00024d50       ?ClearWarnings@idCommonLocal@@UAEXPBD@Z 00425d50 f   Common.obj
 0001:00024df0       ?CloseFullScreenGUIOverlay@idCommonLocal@@UAEXXZ 00425df0 f   Common.obj
 0001:00024e90       ?Com_ExecMachineSpec_f@@YAXABVidCmdArgs@@@Z 00425e90 f   Common.obj
 0001:00025800       ?Com_FinishBuild_f@@YAXABVidCmdArgs@@@Z 00426800 f   Common.obj
 0001:000258c0       ?Com_LocalizeGuiParmsTest_f@@YAXABVidCmdArgs@@@Z 004268c0 f   Common.obj
 0001:00025d80       ?Com_LocalizeGuis_f@@YAXABVidCmdArgs@@@Z 00426d80 f   Common.obj
 0001:00025fc0       ?Com_LocalizeMapsTest_f@@YAXABVidCmdArgs@@@Z 00426fc0 f   Common.obj
 0001:000267f0       ?Com_LocalizeMaps_f@@YAXABVidCmdArgs@@@Z 004277f0 f   Common.obj
 0001:00026c10       ?Com_ReloadEngine_f@@YAXABVidCmdArgs@@@Z 00427c10 f   Common.obj
 0001:00026cf0       ?Com_ReloadLanguage_f@@YAXABVidCmdArgs@@@Z 00427cf0 f   Common.obj
 0001:00026d00       ?Com_SetMachineSpec_f@@YAXABVidCmdArgs@@@Z 00427d00 f   Common.obj
 0001:00026d10       ?Com_StartBuild_f@@YAXABVidCmdArgs@@@Z 00427d10 f   Common.obj
 0001:00026d20       ?Com_WriteConfig_f@@YAXABVidCmdArgs@@@Z 00427d20 f   Common.obj
 0001:00026e30       ?DPrintf@idCommonLocal@@UAAXPBDZZ 00427e30 f   Common.obj
 0001:00026ec0       ?DWarning@idCommonLocal@@UAAXPBDZZ 00427ec0 f   Common.obj
 0001:00026f20       ?DeleteContents@?$idList@PAVidMapEntity@@@@QAEX_N@Z 00427f20 f i Common.obj
 0001:000270b0       ?EndRedirect@idCommonLocal@@UAEXXZ 004280b0 f   Common.obj
 0001:000270f0       ?EnumWindowsProc@@YGHPAUHWND__@@J@Z 004280f0 f   Common.obj
 0001:00027150       ?Error@idCommonLocal@@UAAXPBDZZ 00428150 f   Common.obj
 0001:000273b0       ?FatalError@idCommonLocal@@UAAXPBDZZ 004283b0 f   Common.obj
 0001:00027470       ?FilterLangList@idCommonLocal@@AAEXPAV?$idList@VidStr@@@@VidStr@@@Z 00428470 f   Common.obj
 0001:00027690       ?FindIndex@?$idList@VidStr@@@@QBEHABVidStr@@@Z 00428690 f i Common.obj
 0001:000276e0       ?FlushOpenGL@idCommonLocal@@UAEXXZ 004286e0 f   Common.obj
 0001:000276f0       ?Frame@idCommonLocal@@UAEXXZ 004286f0 f   Common.obj
 0001:000278d0       ?GUIFrame@idCommonLocal@@UAEX_N0@Z 004288d0 f   Common.obj
 0001:00027920       ?GetFileList@@YAXPBD0AAV?$idList@VidStr@@@@@Z 00428920 f   Common.obj
 0001:00027c80       ?GetLanguageDict@idCommonLocal@@UAEPBVidLangDict@@XZ 00428c80 f   Common.obj
 0001:00027c90       ?Init@idCommonLocal@@UAEXHPAPBDPBD@Z 00428c90 f   Common.obj
 0001:00027f80       ?InitCommands@idCommonLocal@@AAEXXZ 00428f80 f   Common.obj
 0001:00028340       ?InitGame@idCommonLocal@@QAEXXZ 00429340 f   Common.obj
 0001:00028890       ?InitLanguageDict@idCommonLocal@@QAEXXZ 00429890 f   Common.obj
 0001:00028d30       ?InitTool@idCommonLocal@@UAEXW4toolFlag_t@@PBVidDict@@@Z 00429d30 f   Common.obj
 0001:00028d30       ?ProjectOverlay@idRenderEntityLocal@@UAEXQBVidPlane@@PBVidMaterial@@@Z 00429d30 f   RenderEntity.obj
 0001:00028d30       ?ReadFromDemoFile@idWindow@@UAEXPAVidDemoFile@@_N@Z 00429d30 f   Window.obj
 0001:00028d30       ?UpdateRenderEntity@idRenderEntityLocal@@UAEXPBUrenderEntity_s@@_N@Z 00429d30 f   RenderEntity.obj
 0001:00028d30       ?UpdateRenderLight@idRenderLightLocal@@UAEXPBUrenderLight_s@@_N@Z 00429d30 f   RenderEntity.obj
 0001:00028d40       ?IsInitialized@idCommonLocal@@UBE_NXZ 00429d40 f   Common.obj
 0001:00028d50       ?KeyState@idCommonLocal@@UAEHH@Z 00429d50 f   Common.obj
 0001:00028d60       ?KeysFromBinding@idCommonLocal@@UAEPBDPBD@Z 00429d60 f   Common.obj
 0001:00028d70       ?LoadGuiParmExcludeList@@YAXAAV?$idList@VidStr@@@@@Z 00429d70 f   Common.obj
 0001:00028f80       ?LoadMapLocalizeData@@YAXAAV?$idHashTable@V?$idList@VidStr@@@@@@@Z 00429f80 f   Common.obj
 0001:00029290       ?LocalizeGui@idCommonLocal@@QAEXPBDAAVidLangDict@@@Z 0042a290 f   Common.obj
 0001:00029a60       ?LocalizeMap@@YAHPBDAAVidLangDict@@AAV?$idHashTable@V?$idList@VidStr@@@@@@AAV?$idList@VidStr@@@@_N@Z 0042aa60 f   Common.obj
 0001:0002a0c0       ?OpenFullScreenGUIOverlay@idCommonLocal@@UAEXXZ 0042b0c0 f   Common.obj
 0001:0002a110       ?PacifierUpdate@idCommonLocal@@UAEXXZ 0042b110 f   Common.obj
 0001:0002a120       ?PrintLoadingMessage@idCommonLocal@@AAEXPBD@Z 0042b120 f   Common.obj
 0001:0002a480       ?PrintWarnings@idCommonLocal@@UAEXXZ 0042b480 f   Common.obj
 0001:0002a530       ?Printf@idCommonLocal@@UAAXPBDZZ 0042b530 f   Common.obj
 0001:0002a550       ?Quit@idCommonLocal@@UAEXXZ 0042b550 f   Common.obj
 0001:0002a570       ?ReloadMaterialImages@idCommonLocal@@UAEXPBD@Z 0042b570 f   Common.obj
 0001:0002a580       ?Set@?$idHashTable@V?$idList@VidStr@@@@@@QAEXPBDAAV?$idList@VidStr@@@@@Z 0042b580 f i Common.obj
 0001:0002a740       ?SetMachineSpec@idCommonLocal@@QAEXXZ 0042b740 f   Common.obj
 0001:0002a8c0       ?SetRefreshOnPrint@idCommonLocal@@UAEX_N@Z 0042b8c0 f   Common.obj
 0001:0002a8d0       ?ShiftKeyIsDown@idCommonLocal@@UAE_NXZ 0042b8d0 f   Common.obj
 0001:0002a8f0       ?Shutdown@idCommonLocal@@UAEXXZ 0042b8f0 f   Common.obj
 0001:0002aa80       ?ShutdownGame@idCommonLocal@@QAEX_N@Z 0042ba80 f   Common.obj
 0001:0002ab80       ?SingleAsyncTic@idCommonLocal@@AAEXXZ 0042bb80 f   Common.obj
 0001:0002ac60       ?Sort@?$idList@VidStr@@@@QAEXP6AHPBVidStr@@0@Z@Z 0042bc60 f i Common.obj
 0001:0002ae40       ?StartupVariable@idCommonLocal@@UAEXPBD_N@Z 0042be40 f   Common.obj
 0001:0002af30       ??1idBrushList@@QAE@XZ     0042bf30 f   Brush.obj
 0001:0002af30       ??1idEditField@@QAE@XZ     0042bf30 f   EditField.obj
 0001:0002af30       ??1serverClient_s@@QAE@XZ  0042bf30 f   AsyncNetwork.obj
 0001:0002af30       ?Close@idCinematic@@UAEXXZ 0042bf30 f   Cinematic.obj
 0001:0002af30       ?EntityUpdate@SSDEntity@@UAEXXZ 0042bf30 f   GameSSDWindow.obj
 0001:0002af30       ?FinishCompress@idCompressor_None@@UAEXXZ 0042bf30 f   Compressor.obj
 0001:0002af30       ?Flush@idFile@@UAEXXZ      0042bf30 f   File.obj
 0001:0002af30       ?Flush@idFile_BitMsg@@UAEXXZ 0042bf30 f   File.obj
 0001:0002af30       ?Flush@idFile_Memory@@UAEXXZ 0042bf30 f   File.obj
 0001:0002af30       ?ForceFlush@idFile@@UAEXXZ 0042bf30 f   File.obj
 0001:0002af30       ?ForceFlush@idFile_BitMsg@@UAEXXZ 0042bf30 f   File.obj
 0001:0002af30       ?ForceFlush@idFile_Memory@@UAEXXZ 0042bf30 f   File.obj
 0001:0002af30       ?ForceUpdate@idRenderEntityLocal@@UAEXXZ 0042bf30 f   RenderEntity.obj
 0001:0002af30       ?ForceUpdate@idRenderLightLocal@@UAEXXZ 0042bf30 f   RenderEntity.obj
 0001:0002af30       ?FreeData@idDeclAudio@@UAEXXZ 0042bf30 f   DeclPDA.obj
 0001:0002af30       ?FreeData@idDeclEmail@@UAEXXZ 0042bf30 f   DeclPDA.obj
 0001:0002af30       ?FreeData@idDeclLocal@@MAEXXZ 0042bf30 f   DeclManager.obj
 0001:0002af30       ?FreeData@idDeclVideo@@UAEXXZ 0042bf30 f   DeclPDA.obj
 0001:0002af30       ?FreeRenderEntity@idRenderEntityLocal@@UAEXXZ 0042bf30 f   RenderEntity.obj
 0001:0002af30       ?FreeRenderLight@idRenderLightLocal@@UAEXXZ 0042bf30 f   RenderEntity.obj
 0001:0002af30       ?GLW_WM_CREATE@@YAXPAUHWND__@@@Z 0042bf30 f   win_glimp.obj
 0001:0002af30       ?GainCapture@idWindow@@UAEXXZ 0042bf30 f   Window.obj
 0001:0002af30       ?GainFocus@idWindow@@UAEXXZ 0042bf30 f   Window.obj
 0001:0002af30       ?HasAction@idWindow@@UAEXXZ 0042bf30 f   BindWindow.obj
 0001:0002af30       ?HasScripts@idWindow@@UAEXXZ 0042bf30 f   BindWindow.obj
 0001:0002af30       ?Initialize@SoundFX@@UAEXXZ 0042bf30 f   snd_emitter.obj
 0001:0002af30       ?LoseFocus@idWindow@@UAEXXZ 0042bf30 f   Window.obj
 0001:0002af30       ?Mem_DumpCompressed_f@@YAXABVidCmdArgs@@@Z 0042bf30 f   idLib:Heap.obj
 0001:0002af30       ?Mem_Dump_f@@YAXABVidCmdArgs@@@Z 0042bf30 f   idLib:Heap.obj
 0001:0002af30       ?Mem_EnableLeakTest@@YAXPBD@Z 0042bf30 f   idLib:Heap.obj
 0001:0002af30       ?Moved@idWindow@@UAEXXZ    0042bf30 f   Window.obj
 0001:0002af30       ?Nop@idParallelJobList_Threads@@CAXPAX@Z 0042bf30 f   idLib:ParallelJobList.obj
 0001:0002af30       ?OnStrikePlayer@SSDEntity@@UAEXXZ 0042bf30 f   GameSSDWindow.obj
 0001:0002af30       ?PostParse@idWindow@@UAEXXZ 0042bf30 f   Window.obj
 0001:0002af30       ?Print@idDeclLocal@@MBEXXZ 0042bf30 f   DeclManager.obj
 0001:0002af30       ?R_DoneFreeType@@YAXXZ     0042bf30 f   tr_font.obj
 0001:0002af30       ?RemoveDecals@idRenderEntityLocal@@UAEXXZ 0042bf30 f   RenderEntity.obj
 0001:0002af30       ?Reset@idRenderModelStatic@@UAEXXZ 0042bf30 f   Model.obj
 0001:0002af30       ?RevBitFieldNoSwap@@YAXPAXH@Z 0042bf30 f   idLib:Lib.obj
 0001:0002af30       ?RevBytesNoSwap@@YAXPAXHH@Z 0042bf30 f   idLib:Lib.obj
 0001:0002af30       ?Sized@idWindow@@UAEXXZ    0042bf30 f   Window.obj
 0001:0002af30       ?StopWritingDemo@idRenderWorldLocal@@UAEXXZ 0042bf30 f   RenderWorld_demo.obj
 0001:0002af30       ?StoreSteamStats@idCommonLocal@@UAEXXZ 0042bf30 f   Common.obj
 0001:0002af30       ?Sys_DoPreferences@@YAXXZ  0042bf30 f   win_main.obj
 0001:0002af30       ?Sys_EndKeyboardInputEvents@@YAXXZ 0042bf30 f   win_input.obj
 0001:0002af30       ?Sys_EndMouseInputEvents@@YAXXZ 0042bf30 f   win_input.obj
 0001:0002af30       ?Sys_SetFatalError@@YAXPBD@Z 0042bf30 f   win_main.obj
 0001:0002af30       ?Sys_ShutdownSymbols@@YAXXZ 0042bf30 f   win_shared.obj
 0001:0002af30       @_guard_check_icall_nop@4  0042bf30 f   libcmt:guard_support.obj
 0001:0002af30       _Curl_SSL_Close            0042bf30 f   CurlLib:ssluse.obj
 0001:0002af30       _Curl_SSL_init             0042bf30 f   CurlLib:ssluse.obj
 0001:0002af30       __initialize_denormal_control 0042bf30 f   libcmt:denormal_control.obj
 0001:0002af30       __initialize_invalid_parameter_handler 0042bf30 f   libcmt:invalid_parameter_handler.obj
 0001:0002af30       _jpeg_mem_term             0042bf30 f   jmemnobs.obj
 0001:0002af40       ?SubmitGameLogicJobList@idCommonLocal@@UAEXXZ 0042bf40 f   Common.obj
 0001:0002af50       ?SyncUpGuiActiveOnMapLoad@idCommonLocal@@UAEXXZ 0042bf50 f   Common.obj
 0001:0002afa0       ?TestGuiParm@@YA_NPBD0AAV?$idList@VidStr@@@@@Z 0042bfa0 f   Common.obj
 0001:0002b0c0       ?VPrintf@idCommonLocal@@UAEXPBDPAD@Z 0042c0c0 f   Common.obj
 0001:0002b420       ?WaitGameLogicJobList@idCommonLocal@@UAEXXZ 0042c420 f   Common.obj
 0001:0002b430       ?Warning@idCommonLocal@@UAAXPBDZZ 0042c430 f   Common.obj
 0001:0002b540       ?WriteConfigToFile@idCommonLocal@@UAEXPBD@Z 0042c540 f   Common.obj
 0001:0002b5b0       ?WriteFlaggedCVarsToFile@idCommonLocal@@UAEXPBDH0@Z 0042c5b0 f   Common.obj
 0001:0002b610       ??1idCompressor_BitStream@@UAE@XZ 0042c610 f i Compressor.obj
 0001:0002b610       ??1idFile@@UAE@XZ          0042c610 f i Compressor.obj
 0001:0002b620       ??_EidCompressor_Huffman@@UAEPAXI@Z 0042c620 f i Compressor.obj
 0001:0002b620       ??_GidCompressor_Huffman@@UAEPAXI@Z 0042c620 f i Compressor.obj
 0001:0002b650       ??_EidCompressor_LZSS@@UAEPAXI@Z 0042c650 f i Compressor.obj
 0001:0002b650       ??_GidCompressor_LZSS@@UAEPAXI@Z 0042c650 f i Compressor.obj
 0001:0002b680       ??_EidCompressor_LZW@@UAEPAXI@Z 0042c680 f i Compressor.obj
 0001:0002b680       ??_GidCompressor_LZW@@UAEPAXI@Z 0042c680 f i Compressor.obj
 0001:0002b6e0       ??_EidCompressor_None@@UAEPAXI@Z 0042c6e0 f i Compressor.obj
 0001:0002b6e0       ??_GidCompressor_None@@UAEPAXI@Z 0042c6e0 f i Compressor.obj
 0001:0002b710       ??_EidCompressor_RunLength_ZeroBased@@UAEPAXI@Z 0042c710 f i Compressor.obj
 0001:0002b710       ??_GidCompressor_RunLength_ZeroBased@@UAEPAXI@Z 0042c710 f i Compressor.obj
 0001:0002b740       ??_EidFile@@UAEPAXI@Z      0042c740 f i Compressor.obj
 0001:0002b740       ??_GidFile@@UAEPAXI@Z      0042c740 f i Compressor.obj
 0001:0002b770       ?AddRef@idCompressor_Huffman@@AAEXE@Z 0042c770 f   Compressor.obj
 0001:0002b940       ?AddToDict@idCompressor_LZW@@IAEHHH@Z 0042c940 f   Compressor.obj
 0001:0002b9e0       ?AllocHuffman@idCompressor@@SAPAV1@XZ 0042c9e0 f   Compressor.obj
 0001:0002ba10       ?AllocLZSS@idCompressor@@SAPAV1@XZ 0042ca10 f   Compressor.obj
 0001:0002ba40       ?AllocLZW@idCompressor@@SAPAV1@XZ 0042ca40 f   Compressor.obj
 0001:0002bad0       ?AllocNoCompression@idCompressor@@SAPAV1@XZ 0042cad0 f   Compressor.obj
 0001:0002bb00       ?AllocRunLength_ZeroBased@idCompressor@@SAPAV1@XZ 0042cb00 f   Compressor.obj
 0001:0002bb30       ?Compare@idCompressor_BitStream@@IBEHPBEH0HH@Z 0042cb30 f   Compressor.obj
 0001:0002bc70       ?CompressBlock@idCompressor_LZSS@@MAEXXZ 0042cc70 f   Compressor.obj
 0001:0002bde0       ?DecompressBlock@idCompressor_LZSS@@MAEXXZ 0042cde0 f   Compressor.obj
 0001:0002bed0       ?DecompressBlock@idCompressor_LZW@@IAEXXZ 0042ced0 f   Compressor.obj
 0001:0002c010       ?FindMatch@idCompressor_LZSS@@IAE_NHHAAH0@Z 0042d010 f   Compressor.obj
 0001:0002c120       ?FinishCompress@idCompressor_BitStream@@UAEXXZ 0042d120 f   Compressor.obj
 0001:0002c160       ?FinishCompress@idCompressor_Huffman@@UAEXXZ 0042d160 f   Compressor.obj
 0001:0002c1a0       ?FinishCompress@idCompressor_LZSS@@UAEXXZ 0042d1a0 f   Compressor.obj
 0001:0002c200       ?FinishCompress@idCompressor_LZW@@UAEXXZ 0042d200 f   Compressor.obj
 0001:0002c260       ?Flush@idCompressor_None@@UAEXXZ 0042d260 f   Compressor.obj
 0001:0002c260       ?ForceFlush@idCompressor_None@@UAEXXZ 0042d260 f   Compressor.obj
 0001:0002c270       ?GetCompressionRatio@idCompressor_BitStream@@UBEMXZ 0042d270 f   Compressor.obj
 0001:0002c2e0       ?GetCompressionRatio@idCompressor_Huffman@@UBEMXZ 0042d2e0 f   Compressor.obj
 0001:0002c320       ?DepthHack@idRenderModelStatic@@UBEMXZ 0042d320 f   Model.obj
 0001:0002c320       ?GetCompressionRatio@idCompressor_None@@UBEMXZ 0042d320 f   Compressor.obj
 0001:0002c320       ?x@idWinInt@@UBEMXZ        0042d320 f   Window.obj
 0001:0002c330       ?GetFullPath@idCompressor_None@@UAEPBDXZ 0042d330 f   Compressor.obj
 0001:0002c350       ?GetName@idCompressor_None@@UAEPBDXZ 0042d350 f   Compressor.obj
 0001:0002c370       ?GetWordFromBlock@idCompressor_LZSS@@IBEHH@Z 0042d370 f   Compressor.obj
 0001:0002c420       ?Get_ppnode@idCompressor_Huffman@@AAEPAPAUnodetype@@XZ 0042d420 f   Compressor.obj
 0001:0002c450       ?Increment@idCompressor_Huffman@@AAEXPAUnodetype@@@Z 0042d450 f   Compressor.obj
 0001:0002c570       ?Init@idCompressor_BitStream@@UAEXPAVidFile@@_NH@Z 0042d570 f   Compressor.obj
 0001:0002c5f0       ?Init@idCompressor_Huffman@@UAEXPAVidFile@@_NH@Z 0042d5f0 f   Compressor.obj
 0001:0002c7a0       ?Init@idCompressor_LZSS@@UAEXPAVidFile@@_NH@Z 0042d7a0 f   Compressor.obj
 0001:0002c7f0       ?Init@idCompressor_LZW@@UAEXPAVidFile@@_NH@Z 0042d7f0 f   Compressor.obj
 0001:0002c890       ?Init@idCompressor_None@@UAEXPAVidFile@@_NH@Z 0042d890 f   Compressor.obj
 0001:0002c8b0       ?InitCompress@idCompressor_BitStream@@IAEXPBXH@Z 0042d8b0 f i Compressor.obj
 0001:0002c910       ?InitDecompress@idCompressor_BitStream@@IAEXPAXH@Z 0042d910 f i Compressor.obj
 0001:0002c980       ?Length@idCompressor_None@@UAEHXZ 0042d980 f   Compressor.obj
 0001:0002c990       ?Read@idCompressor_Huffman@@UAEHPAXH@Z 0042d990 f   Compressor.obj
 0001:0002cb50       ?Read@idCompressor_LZSS@@UAEHPAXH@Z 0042db50 f   Compressor.obj
 0001:0002cc10       ?Read@idCompressor_LZW@@UAEHPAXH@Z 0042dc10 f   Compressor.obj
 0001:0002ccc0       ?Read@idCompressor_None@@UAEHPAXH@Z 0042dcc0 f   Compressor.obj
 0001:0002cce0       ?Read@idCompressor_RunLength_ZeroBased@@UAEHPAXH@Z 0042dce0 f   Compressor.obj
 0001:0002cd80       ?ReadBits@idCompressor_BitStream@@IAEHH@Z 0042dd80 f   Compressor.obj
 0001:0002cef0       ?Seek@idCompressor_None@@UAEHJW4fsOrigin_t@@@Z 0042def0 f   Compressor.obj
 0001:0002cf10       ?Send@idCompressor_Huffman@@AAEXPAUnodetype@@0PAE@Z 0042df10 f   Compressor.obj
 0001:0002cf90       ?Swaplist@idCompressor_Huffman@@AAEXPAUnodetype@@0@Z 0042df90 f   Compressor.obj
 0001:0002cff0       ?Tell@idCompressor_None@@UAEHXZ 0042dff0 f   Compressor.obj
 0001:0002d000       ?Timestamp@idCompressor_None@@UAEJXZ 0042e000 f   Compressor.obj
 0001:0002d010       ?Transmit@idCompressor_Huffman@@AAEXHPAE@Z 0042e010 f   Compressor.obj
 0001:0002d1e0       ?UnreadBits@idCompressor_BitStream@@IAEXH@Z 0042e1e0 f   Compressor.obj
 0001:0002d270       ?Write@idCompressor_Huffman@@UAEHPBXH@Z 0042e270 f   Compressor.obj
 0001:0002d2f0       ?Write@idCompressor_LZSS@@UAEHPBXH@Z 0042e2f0 f   Compressor.obj
 0001:0002d390       ?Write@idCompressor_LZW@@UAEHPBXH@Z 0042e390 f   Compressor.obj
 0001:0002d4d0       ?Write@idCompressor_None@@UAEHPBXH@Z 0042e4d0 f   Compressor.obj
 0001:0002d4f0       ?Write@idCompressor_RunLength_ZeroBased@@UAEHPBXH@Z 0042e4f0 f   Compressor.obj
 0001:0002d5d0       ?WriteBits@idCompressor_BitStream@@IAEXHH@Z 0042e5d0 f   Compressor.obj
 0001:0002d730       ?WriteChain@idCompressor_LZW@@IAEHH@Z 0042e730 f   Compressor.obj
 0001:0002d8b0       ??_EidConsole@@UAEPAXI@Z   0042e8b0 f i Console.obj
 0001:0002d8b0       ??_GidConsole@@UAEPAXI@Z   0042e8b0 f i Console.obj
 0001:0002d8e0       ?Init@idConsoleLocal@@UAEXXZ 0042e8e0 f   Console.obj
 0001:0002d980       ?Shutdown@idConsoleLocal@@UAEXXZ 0042e980 f   Console.obj
 0001:0002d9b0       ?LoadGraphics@idConsoleLocal@@UAEXXZ 0042e9b0 f   Console.obj
 0001:0002da00       ?ProcessEvent@idConsoleLocal@@UAE_NPBUsysEvent_s@@_N@Z 0042ea00 f   Console.obj
 0001:0002dba0       ?Active@idConsoleLocal@@UAE_NXZ 0042eba0 f   Console.obj
 0001:0002dbb0       ?ClearNotifyLines@idConsoleLocal@@UAEXXZ 0042ebb0 f   Console.obj
 0001:0002dbe0       ?Close@idConsoleLocal@@UAEXXZ 0042ebe0 f   Console.obj
 0001:0002dc10       ?Print@idConsoleLocal@@UAEXPBD@Z 0042ec10 f   Console.obj
 0001:0002ddc0       ?Draw@idConsoleLocal@@UAEX_N@Z 0042edc0 f   Console.obj
 0001:0002e3c0       ??_EidConsoleLocal@@UAEPAXI@Z 0042f3c0 f i Console.obj
 0001:0002e3c0       ??_GidConsoleLocal@@UAEPAXI@Z 0042f3c0 f i Console.obj
 0001:0002e440       ??1idConsole@@UAE@XZ       0042f440 f i Console.obj
 0001:0002e450       ??1idLangKeyValue@@QAE@XZ  0042f450 f i idLib:LangDict.obj
 0001:0002e450       ??1pakDlEntry_t@@QAE@XZ    0042f450 f i AsyncClient.obj
 0001:0002e450       ??1soundDecoderInfo_t@@QAE@XZ 0042f450 f i Console.obj
 0001:0002e5c0       ?DrawSolidConsole@idConsoleLocal@@AAEXM@Z 0042f5c0 f   Console.obj
 0001:0002eb30       ?Dump@idConsoleLocal@@QAEXPBD@Z 0042fb30 f   Console.obj
 0001:0002ecf0       ?KeyDownEvent@idConsoleLocal@@AAEXH@Z 0042fcf0 f   Console.obj
 0001:0002efe0       ?Linefeed@idConsoleLocal@@AAEXXZ 0042ffe0 f   Console.obj
 0001:0002f060       ?PageDown@idConsoleLocal@@AAEXXZ 00430060 f   Console.obj
 0001:0002f080       ?PageUp@idConsoleLocal@@AAEXXZ 00430080 f   Console.obj
 0001:0002f0b0       ?SCR_DrawAsyncStats@@YAMM@Z 004300b0 f   Console.obj
 0001:0002f2e0       ?SCR_DrawTextLeftAlign@@YAXAAMPBDZZ 004302e0 f   Console.obj
 0001:0002f360       ?SCR_DrawTextRightAlign@@YAXAAMPBDZZ 00430360 f   Console.obj
 0001:0002f3f0       ?Init@idCVarSystemLocal@@UAEXXZ 004303f0 f   CVarSystem.obj
 0001:0002f510       ?Shutdown@idCVarSystemLocal@@UAEXXZ 00430510 f   CVarSystem.obj
 0001:0002f580       ?IsInitialized@idCVarSystemLocal@@UBE_NXZ 00430580 f   CVarSystem.obj
 0001:0002f590       ?Register@idCVarSystemLocal@@UAEXPAVidCVar@@@Z 00430590 f   CVarSystem.obj
 0001:0002f7d0       ?Find@idCVarSystemLocal@@UAEPAVidCVar@@PBD@Z 004307d0 f   CVarSystem.obj
 0001:0002f7e0       ?SetCVarString@idCVarSystemLocal@@UAEXPBD0H@Z 004307e0 f   CVarSystem.obj
 0001:0002f7f0       ?SetCVarBool@idCVarSystemLocal@@UAEXPBD_NH@Z 004307f0 f   CVarSystem.obj
 0001:0002f860       ?SetCVarInteger@idCVarSystemLocal@@UAEXPBDHH@Z 00430860 f   CVarSystem.obj
 0001:0002f8c0       ?SetCVarFloat@idCVarSystemLocal@@UAEXPBDMH@Z 004308c0 f   CVarSystem.obj
 0001:0002f930       ?GetCVarString@idCVarSystemLocal@@UBEPBDPBD@Z 00430930 f   CVarSystem.obj
 0001:0002f950       ?GetCVarBool@idCVarSystemLocal@@UBE_NPBD@Z 00430950 f   CVarSystem.obj
 0001:0002f970       ?GetCVarInteger@idCVarSystemLocal@@UBEHPBD@Z 00430970 f   CVarSystem.obj
 0001:0002f990       ?GetCVarFloat@idCVarSystemLocal@@UBEMPBD@Z 00430990 f   CVarSystem.obj
 0001:0002f9b0       ?Command@idCVarSystemLocal@@UAE_NABVidCmdArgs@@@Z 004309b0 f   CVarSystem.obj
 0001:0002fa50       ?CommandCompletion@idCVarSystemLocal@@UAEXP6AXPBD@Z@Z 00430a50 f   CVarSystem.obj
 0001:0002fa80       ?ArgCompletion@idCVarSystemLocal@@UAEXPBDP6AX0@Z@Z 00430a80 f   CVarSystem.obj
 0001:0002fb20       ?SetFlag@idWindow@@QAEXI@Z 00430b20 f   Window.obj
 0001:0002fb20       ?SetModifiedFlags@idCVarSystemLocal@@UAEXH@Z 00430b20 f   CVarSystem.obj
 0001:0002fb30       ?GetModifiedFlags@idCVarSystemLocal@@UBEHXZ 00430b30 f   CVarSystem.obj
 0001:0002fb30       ?NumAreas@idRenderWorldLocal@@UBEHXZ 00430b30 f   RenderWorld.obj
 0001:0002fb30       ?c_str@idWinBackground@@UBEPBDXZ 00430b30 f   SimpleWindow.obj
 0001:0002fb40       ?ClearFlag@idWindow@@QAEXI@Z 00430b40 f   Window.obj
 0001:0002fb40       ?ClearModifiedFlags@idCVarSystemLocal@@UAEXH@Z 00430b40 f   CVarSystem.obj
 0001:0002fb50       ?ResetFlaggedVariables@idCVarSystemLocal@@UAEXH@Z 00430b50 f   CVarSystem.obj
 0001:0002fbd0       ?RemoveFlaggedAutoCompletion@idCVarSystemLocal@@UAEXH@Z 00430bd0 f   CVarSystem.obj
 0001:0002fc00       ?WriteFlaggedVariables@idCVarSystemLocal@@UBEXHPBDPAVidFile@@@Z 00430c00 f   CVarSystem.obj
 0001:0002fc50       ?MoveCVarsToDict@idCVarSystemLocal@@UBEPBVidDict@@H@Z 00430c50 f   CVarSystem.obj
 0001:0002fca0       ?SetCVarsFromDict@idCVarSystemLocal@@UAEXABVidDict@@@Z 00430ca0 f   CVarSystem.obj
 0001:0002fcf0       ??_EidCVarSystemLocal@@UAEPAXI@Z 00430cf0 f i CVarSystem.obj
 0001:0002fcf0       ??_GidCVarSystemLocal@@UAEPAXI@Z 00430cf0 f i CVarSystem.obj
 0001:0002fd80       ??$idListSortCompare@PBVidInternalCVar@@@@YAHPBQBVidInternalCVar@@0@Z 00430d80 f i CVarSystem.obj
 0001:0002fdb0       ??0idDict@@QAE@XZ          00430db0 f i CVarSystem.obj
 0001:0002fee0       ??0idStr@@QAE@H@Z          00430ee0 f i CVarSystem.obj
 0001:0002ff50       ??0idStr@@QAE@M@Z          00430f50 f i CVarSystem.obj
 0001:00030000       ??1idCVarSystem@@UAE@XZ    00431000 f i CVarSystem.obj
 0001:00030010       ??1idHashIndex@@QAE@XZ     00431010 f i CVarSystem.obj
 0001:00030040       ??4idStr@@QAEXABV0@@Z      00431040 f i CVarSystem.obj
 0001:00030080       ??_EidCVarSystem@@UAEPAXI@Z 00431080 f i CVarSystem.obj
 0001:00030080       ??_GidCVarSystem@@UAEPAXI@Z 00431080 f i CVarSystem.obj
 0001:000300b0       ??_EidInternalCVar@@UAEPAXI@Z 004310b0 f i CVarSystem.obj
 0001:000300b0       ??_GidInternalCVar@@UAEPAXI@Z 004310b0 f i CVarSystem.obj
 0001:00030150       ?Add@idHashIndex@@QAEXHH@Z 00431150 f i CVarSystem.obj
 0001:000301b0       ?Append@?$idList@H@@QAEHABH@Z 004311b0 f i FileSystem.obj
 0001:000301b0       ?Append@?$idList@M@@QAEHABM@Z 004311b0 f i Window.obj
 0001:000301b0       ?Append@?$idList@PAUidTimeLineEvent@@@@QAEHABQAUidTimeLineEvent@@@Z 004311b0 f i Window.obj
 0001:000301b0       ?Append@?$idList@PAUpack_t@@@@QAEHABQAUpack_t@@@Z 004311b0 f i FileSystem.obj
 0001:000301b0       ?Append@?$idList@PAVBOEntity@@@@QAEHABQAVBOEntity@@@Z 004311b0 f i GameBustOutWindow.obj
 0001:000301b0       ?Append@?$idList@PAVBSEntity@@@@QAEHABQAVBSEntity@@@Z 004311b0 f i GameBearShootWindow.obj
 0001:000301b0       ?Append@?$idList@PAVSSDEntity@@@@QAEHABQAVSSDEntity@@@Z 004311b0 f i GameSSDWindow.obj
 0001:000301b0       ?Append@?$idList@PAVidBrushSide@@@@QAEHABQAVidBrushSide@@@Z 004311b0 f i Brush.obj
 0001:000301b0       ?Append@?$idList@PAVidDeclFile@@@@QAEHABQAVidDeclFile@@@Z 004311b0 f i DeclManager.obj
 0001:000301b0       ?Append@?$idList@PAVidDeclLocal@@@@QAEHABQAVidDeclLocal@@@Z 004311b0 f i DeclManager.obj
 0001:000301b0       ?Append@?$idList@PAVidImage@@@@QAEHABQAVidImage@@@Z 004311b0 f i Image_init.obj
 0001:000301b0       ?Append@?$idList@PAVidInternalCVar@@@@QAEHABQAVidInternalCVar@@@Z 004311b0 f i CVarSystem.obj
 0001:000301b0       ?Append@?$idList@PAVidMapBrushSide@@@@QAEHABQAVidMapBrushSide@@@Z 004311b0 f i idLib:MapFile.obj
 0001:000301b0       ?Append@?$idList@PAVidMapPrimitive@@@@QAEHABQAVidMapPrimitive@@@Z 004311b0 f i idLib:MapFile.obj
 0001:000301b0       ?Append@?$idList@PAVidParticleStage@@@@QAEHABQAVidParticleStage@@@Z 004311b0 f i DeclParticle.obj
 0001:000301b0       ?Append@?$idList@PAVidRegister@@@@QAEHABQAVidRegister@@@Z 004311b0 f i RegExp.obj
 0001:000301b0       ?Append@?$idList@PAVidRenderEntityLocal@@@@QAEHABQAVidRenderEntityLocal@@@Z 004311b0 f i RenderWorld.obj
 0001:000301b0       ?Append@?$idList@PAVidRenderLightLocal@@@@QAEHABQAVidRenderLightLocal@@@Z 004311b0 f i RenderWorld.obj
 0001:000301b0       ?Append@?$idList@PAVidRenderModel@@@@QAEHABQAVidRenderModel@@@Z 004311b0 f i RenderWorld_load.obj
 0001:000301b0       ?Append@?$idList@PAVidSoundEmitterLocal@@@@QAEHABQAVidSoundEmitterLocal@@@Z 004311b0 f i snd_world.obj
 0001:000301b0       ?Append@?$idList@PAVidStr@@@@QAEHABQAVidStr@@@Z 004311b0 f i DemoFile.obj
 0001:000301b0       ?Append@?$idList@PAVidUserInterfaceLocal@@@@QAEHABQAVidUserInterfaceLocal@@@Z 004311b0 f i UserInterface.obj
 0001:000301b0       ?Append@?$idList@PAVidWinVar@@@@QAEHABQAVidWinVar@@@Z 004311b0 f i ChoiceWindow.obj
 0001:000301b0       ?Append@?$idList@PAVrvNamedEvent@@@@QAEHABQAVrvNamedEvent@@@Z 004311b0 f i Window.obj
 0001:00030220       ?CopyValueStrings@idInternalCVar@@QAEPAPBDPAPBD@Z 00431220 f   CVarSystem.obj
 0001:000302d0       ?CreateColumn@@YAPBDPBDH0AAVidStr@@@Z 004312d0 f   CVarSystem.obj
 0001:00030430       ?FindInternal@idCVarSystemLocal@@QBEPAVidInternalCVar@@PBD@Z 00431430 f   CVarSystem.obj
 0001:000304f0       ?InternalServerSetString@idInternalCVar@@EAEXPBD@Z 004314f0 f   CVarSystem.obj
 0001:00030560       ?InternalSetBool@idInternalCVar@@EAEX_N@Z 00431560 f   CVarSystem.obj
 0001:000305d0       ?InternalSetFloat@idInternalCVar@@EAEXM@Z 004315d0 f   CVarSystem.obj
 0001:00030640       ?InternalSetInteger@idInternalCVar@@EAEXH@Z 00431640 f   CVarSystem.obj
 0001:000306a0       ?InternalSetString@idInternalCVar@@EAEXPBD@Z 004316a0 f   CVarSystem.obj
 0001:000306b0       ?ListByFlags@idCVarSystemLocal@@CAXABVidCmdArgs@@W4cvarFlags_t@@@Z 004316b0 f   CVarSystem.obj
 0001:00031480       ?List_f@idCVarSystemLocal@@CAXABVidCmdArgs@@@Z 00432480 f   CVarSystem.obj
 0001:00031490       ?Reset@idInternalCVar@@QAEXXZ 00432490 f   CVarSystem.obj
 0001:000314e0       ?Reset_f@idCVarSystemLocal@@CAXABVidCmdArgs@@@Z 004324e0 f   CVarSystem.obj
 0001:00031520       ?Resize@?$idList@H@@QAEXH@Z 00432520 f i FileSystem.obj
 0001:00031520       ?Resize@?$idList@M@@QAEXH@Z 00432520 f i DeclTable.obj
 0001:00031520       ?Resize@?$idList@PAUaseMaterial_t@@@@QAEXH@Z 00432520 f i Model_ase.obj
 0001:00031520       ?Resize@?$idList@PAUaseMesh_t@@@@QAEXH@Z 00432520 f i Model_ase.obj
 0001:00031520       ?Resize@?$idList@PAUaseObject_t@@@@QAEXH@Z 00432520 f i Model_ase.obj
 0001:00031520       ?Resize@?$idList@PAUidTimeLineEvent@@@@QAEXH@Z 00432520 f i Window.obj
 0001:00031520       ?Resize@?$idList@PAUmaMaterial_t@@@@QAEXH@Z 00432520 f i Model_ma.obj
 0001:00031520       ?Resize@?$idList@PAUmaObject_t@@@@QAEXH@Z 00432520 f i Model_ma.obj
 0001:00031520       ?Resize@?$idList@PAUmapLight_t@@@@QAEXH@Z 00432520 f i map.obj
 0001:00031520       ?Resize@?$idList@PAUoverlayMaterial_s@@@@QAEXH@Z 00432520 f i ModelOverlay.obj
 0001:00031520       ?Resize@?$idList@PAUoverlaySurface_s@@@@QAEXH@Z 00432520 f i ModelOverlay.obj
 0001:00031520       ?Resize@?$idList@PAUpack_t@@@@QAEXH@Z 00432520 f i FileSystem.obj
 0001:00031520       ?Resize@?$idList@PAVBOBrick@@@@QAEXH@Z 00432520 f i GameBustOutWindow.obj
 0001:00031520       ?Resize@?$idList@PAVBOEntity@@@@QAEXH@Z 00432520 f i GameBustOutWindow.obj
 0001:00031520       ?Resize@?$idList@PAVBSEntity@@@@QAEXH@Z 00432520 f i GameBearShootWindow.obj
 0001:00031520       ?Resize@?$idList@PAVSSDEntity@@@@QAEXH@Z 00432520 f i GameSSDWindow.obj
 0001:00031520       ?Resize@?$idList@PAVSoundFX@@@@QAEXH@Z 00432520 f i snd_system.obj
 0001:00031520       ?Resize@?$idList@PAVidBrushBSPNode@@@@QAEXH@Z 00432520 f i BrushBSP.obj
 0001:00031520       ?Resize@?$idList@PAVidBrushSide@@@@QAEXH@Z 00432520 f i AASBuild_ledge.obj
 0001:00031520       ?Resize@?$idList@PAVidDeclAF_Body@@@@QAEXH@Z 00432520 f i DeclAF.obj
 0001:00031520       ?Resize@?$idList@PAVidDeclAF_Constraint@@@@QAEXH@Z 00432520 f i DeclAF.obj
 0001:00031520       ?Resize@?$idList@PAVidDeclFile@@@@QAEXH@Z 00432520 f i DeclManager.obj
 0001:00031520       ?Resize@?$idList@PAVidDeclFolder@@@@QAEXH@Z 00432520 f i DeclManager.obj
 0001:00031520       ?Resize@?$idList@PAVidDeclLocal@@@@QAEXH@Z 00432520 f i DeclManager.obj
 0001:00031520       ?Resize@?$idList@PAVidDict@@@@QAEXH@Z 00432520 f i FileSystem.obj
 0001:00031520       ?Resize@?$idList@PAVidGuiScript@@@@QAEXH@Z 00432520 f i Window.obj
 0001:00031520       ?Resize@?$idList@PAVidImage@@@@QAEXH@Z 00432520 f i Image_init.obj
 0001:00031520       ?Resize@?$idList@PAVidInternalCVar@@@@QAEXH@Z 00432520 f i CVarSystem.obj
 0001:00031520       ?Resize@?$idList@PAVidMapBrushSide@@@@QAEXH@Z 00432520 f i idLib:MapFile.obj
 0001:00031520       ?Resize@?$idList@PAVidMapEntity@@@@QAEXH@Z 00432520 f i idLib:MapFile.obj
 0001:00031520       ?Resize@?$idList@PAVidMapPrimitive@@@@QAEXH@Z 00432520 f i idLib:MapFile.obj
 0001:00031520       ?Resize@?$idList@PAVidParticleStage@@@@QAEXH@Z 00432520 f i DeclParticle.obj
 0001:00031520       ?Resize@?$idList@PAVidPoolStr@@@@QAEXH@Z 00432520 f i idLib:Dict.obj
 0001:00031520       ?Resize@?$idList@PAVidRegister@@@@QAEXH@Z 00432520 f i RegExp.obj
 0001:00031520       ?Resize@?$idList@PAVidRenderEntityLocal@@@@QAEXH@Z 00432520 f i RenderWorld.obj
 0001:00031520       ?Resize@?$idList@PAVidRenderLightLocal@@@@QAEXH@Z 00432520 f i RenderWorld.obj
 0001:00031520       ?Resize@?$idList@PAVidRenderModel@@@@QAEXH@Z 00432520 f i ModelManager.obj
 0001:00031520       ?Resize@?$idList@PAVidRenderWorldLocal@@@@QAEXH@Z 00432520 f i RenderSystem.obj
 0001:00031520       ?Resize@?$idList@PAVidSoundEffect@@@@QAEXH@Z 00432520 f i snd_efxfile.obj
 0001:00031520       ?Resize@?$idList@PAVidSoundEmitterLocal@@@@QAEXH@Z 00432520 f i snd_world.obj
 0001:00031520       ?Resize@?$idList@PAVidSoundSample@@@@QAEXH@Z 00432520 f i snd_cache.obj
 0001:00031520       ?Resize@?$idList@PAVidStr@@@@QAEXH@Z 00432520 f i DemoFile.obj
 0001:00031520       ?Resize@?$idList@PAVidUserInterfaceLocal@@@@QAEXH@Z 00432520 f i UserInterface.obj
 0001:00031520       ?Resize@?$idList@PAVidWinVar@@@@QAEXH@Z 00432520 f i ChoiceWindow.obj
 0001:00031520       ?Resize@?$idList@PAVidWindow@@@@QAEXH@Z 00432520 f i Window.obj
 0001:00031520       ?Resize@?$idList@PAVrvNamedEvent@@@@QAEXH@Z 00432520 f i Window.obj
 0001:000315b0       ?Restart_f@idCVarSystemLocal@@CAXABVidCmdArgs@@@Z 004325b0 f   CVarSystem.obj
 0001:000317e0       ?Set@idInternalCVar@@QAEXPBD_N1@Z 004327e0 f   CVarSystem.obj
 0001:00031900       ?SetA_f@idCVarSystemLocal@@CAXABVidCmdArgs@@@Z 00432900 f   CVarSystem.obj
 0001:00031960       ?SetInternal@idCVarSystemLocal@@QAEXPBD0H@Z 00432960 f   CVarSystem.obj
 0001:00031b80       ?SetS_f@idCVarSystemLocal@@CAXABVidCmdArgs@@@Z 00432b80 f   CVarSystem.obj
 0001:00031be0       ?SetT_f@idCVarSystemLocal@@CAXABVidCmdArgs@@@Z 00432be0 f   CVarSystem.obj
 0001:00031c40       ?SetU_f@idCVarSystemLocal@@CAXABVidCmdArgs@@@Z 00432c40 f   CVarSystem.obj
 0001:00031ca0       ?Set_f@idCVarSystemLocal@@CAXABVidCmdArgs@@@Z 00432ca0 f   CVarSystem.obj
 0001:00031cf0       ?Toggle_f@idCVarSystemLocal@@CAXABVidCmdArgs@@@Z 00432cf0 f   CVarSystem.obj
 0001:00031f20       ?Update@idInternalCVar@@QAEXPBVidCVar@@@Z 00432f20 f   CVarSystem.obj
 0001:000320c0       ?UpdateValue@idInternalCVar@@QAEXXZ 004330c0 f   CVarSystem.obj
 0001:000323f0       ??0idAFVector@@QAE@XZ      004333f0 f   DeclAF.obj
 0001:00032450       ??0idDeclAF@@QAE@XZ        00433450 f   DeclAF.obj
 0001:000325b0       ??0idDeclAF_Body@@QAE@XZ   004335b0 f i DeclAF.obj
 0001:00032840       ??0idDeclAF_Constraint@@QAE@XZ 00433840 f i DeclAF.obj
 0001:00032ab0       ??1idAFVector@@QAE@XZ      00433ab0 f i DeclAF.obj
 0001:00032b00       ??1idDecl@@UAE@XZ          00433b00 f i DeclAF.obj
 0001:00032b10       ??_EidDecl@@UAEPAXI@Z      00433b10 f i DeclAF.obj
 0001:00032b10       ??_GidDecl@@UAEPAXI@Z      00433b10 f i DeclAF.obj
 0001:00032b40       ??_EidDeclAF@@UAEPAXI@Z    00433b40 f i DeclAF.obj
 0001:00032b40       ??_GidDeclAF@@UAEPAXI@Z    00433b40 f i DeclAF.obj
 0001:00032c40       ?DefaultDefinition@idDecl@@UBEPBDXZ 00433c40 f i DeclAF.obj
 0001:00032c50       ?DefaultDefinition@idDeclAF@@UBEPBDXZ 00433c50 f   DeclAF.obj
 0001:00032c60       ?DeleteContents@?$idList@PAVidDeclAF_Body@@@@QAEX_N@Z 00433c60 f i DeclAF.obj
 0001:00032e10       ?DeleteContents@?$idList@PAVidDeclAF_Constraint@@@@QAEX_N@Z 00433e10 f i DeclAF.obj
 0001:00032fa0       ?Finish@idAFVector@@QBE_NPBDQ6A_NPAXPBVidJointMat@@0AAVidVec3@@AAVidMat3@@@Z21@Z 00433fa0 f   DeclAF.obj
 0001:00033220       ?Finish@idDeclAF@@UBEXQ6A_NPAXPBVidJointMat@@PBDAAVidVec3@@AAVidMat3@@@Z10@Z 00434220 f   DeclAF.obj
 0001:00033380       ?FreeData@idDecl@@UAEXXZ   00434380 f i DeclAF.obj
 0001:00033390       ?FreeData@idDeclAF@@UAEXXZ 00434390 f   DeclAF.obj
 0001:00033440       ?List@idDecl@@UBEXXZ       00434440 f i DeclAF.obj
 0001:00033450       ?Parse@idAFVector@@QAE_NAAVidLexer@@@Z 00434450 f   DeclAF.obj
 0001:00033640       ?Parse@idDecl@@UAE_NPBDH@Z 00434640 f i DeclAF.obj
 0001:00033650       ?Parse@idDeclAF@@UAE_NPBDH@Z 00434650 f   DeclAF.obj
 0001:00033a80       ?ParseBallAndSocketJoint@idDeclAF@@AAE_NAAVidLexer@@@Z 00434a80 f   DeclAF.obj
 0001:00033eb0       ?ParseBody@idDeclAF@@AAE_NAAVidLexer@@@Z 00434eb0 f   DeclAF.obj
 0001:000347c0       ?ParseContents@idDeclAF@@ABE_NAAVidLexer@@AAH@Z 004357c0 f   DeclAF.obj
 0001:00034a60       ?ParseFixed@idDeclAF@@AAE_NAAVidLexer@@@Z 00435a60 f   DeclAF.obj
 0001:00034ca0       ?ParseHinge@idDeclAF@@AAE_NAAVidLexer@@@Z 00435ca0 f   DeclAF.obj
 0001:00035020       ?ParseSettings@idDeclAF@@AAE_NAAVidLexer@@@Z 00436020 f   DeclAF.obj
 0001:00035460       ?ParseSlider@idDeclAF@@AAE_NAAVidLexer@@@Z 00436460 f   DeclAF.obj
 0001:00035700       ?ParseSpring@idDeclAF@@AAE_NAAVidLexer@@@Z 00436700 f   DeclAF.obj
 0001:00035aa0       ?ParseUniversalJoint@idDeclAF@@AAE_NAAVidLexer@@@Z 00436aa0 f   DeclAF.obj
 0001:00035ef0       ?Print@idDecl@@UBEXXZ      00436ef0 f i DeclAF.obj
 0001:00035f00       ?SetDefault@idDeclAF_Body@@QAEXPBVidDeclAF@@@Z 00436f00 f   DeclAF.obj
 0001:000360f0       ?SetDefault@idDeclAF_Constraint@@QAEXPBVidDeclAF@@@Z 004370f0 f   DeclAF.obj
 0001:00036260       ?SetDefaultText@idDecl@@UAE_NXZ 00437260 f i DeclAF.obj
 0001:00036270       ?Size@idDecl@@UBEIXZ       00437270 f i DeclAF.obj
 0001:00036280       ?Size@idDeclAF@@UBEIXZ     00437280 f   DeclAF.obj
 0001:00036290       ?DefaultDefinition@idDeclEntityDef@@UBEPBDXZ 00437290 f   DeclEntityDef.obj
 0001:000362a0       ?FreeData@idDeclEntityDef@@UAEXXZ 004372a0 f   DeclEntityDef.obj
 0001:000362b0       ?Parse@idDeclEntityDef@@UAE_NPBDH@Z 004372b0 f   DeclEntityDef.obj
 0001:00036680       ?Print@idDeclEntityDef@@UAEXXZ 00437680 f   DeclEntityDef.obj
 0001:00036690       ?Size@idDeclEntityDef@@UBEIXZ 00437690 f   DeclEntityDef.obj
 0001:000366a0       ??0idFXSingleAction@@QAE@XZ 004376a0 f i DeclFX.obj
 0001:000366f0       ??1idFXSingleAction@@QAE@XZ 004376f0 f i DeclFX.obj
 0001:00036750       ??4idFXSingleAction@@QAEAAU0@ABU0@@Z 00437750 f i DeclFX.obj
 0001:000369b0       ?DefaultDefinition@idDeclFX@@UBEPBDXZ 004379b0 f   DeclFX.obj
 0001:000369c0       ?FreeData@idDeclFX@@UAEXXZ 004379c0 f   DeclFX.obj
 0001:00036a40       ?List@idDeclFX@@UBEXXZ     00437a40 f   DeclFX.obj
 0001:00036a70       ?Parse@idDeclFX@@UAE_NPBDH@Z 00437a70 f   DeclFX.obj
 0001:00036d40       ?ParseSingleFXAction@idDeclFX@@AAEXAAVidLexer@@AAUidFXSingleAction@@@Z 00437d40 f   DeclFX.obj
 0001:000377a0       ?Print@idDeclFX@@UBEXXZ    004387a0 f   DeclFX.obj
 0001:00037890       ?Resize@?$idList@UidFXSingleAction@@@@QAEXH@Z 00438890 f i DeclFX.obj
 0001:00037a00       ?Size@idDeclFX@@UBEIXZ     00438a00 f   DeclFX.obj
 0001:00037a10       ??_EidDeclManager@@UAEPAXI@Z 00438a10 f i DeclManager.obj
 0001:00037a10       ??_GidDeclManager@@UAEPAXI@Z 00438a10 f i DeclManager.obj
 0001:00037a40       ?Init@idDeclManagerLocal@@UAEXXZ 00438a40 f   DeclManager.obj
 0001:00038050       ?Shutdown@idDeclManagerLocal@@UAEXXZ 00439050 f   DeclManager.obj
 0001:000382b0       ?Reload@idDeclManagerLocal@@UAEX_N@Z 004392b0 f   DeclManager.obj
 0001:00038310       ?BeginLevelLoad@idDeclManagerLocal@@UAEXXZ 00439310 f   DeclManager.obj
 0001:00038380       ?EndLevelLoad@idDeclManagerLocal@@UAEXXZ 00439380 f   DeclManager.obj
 0001:00038390       ?RegisterDeclType@idDeclManagerLocal@@UAEXPBDW4declType_t@@P6APAVidDecl@@XZ@Z 00439390 f   DeclManager.obj
 0001:00038510       ?RegisterDeclFolder@idDeclManagerLocal@@UAEXPBD0W4declType_t@@@Z 00439510 f   DeclManager.obj
 0001:00038950       ?GetChecksum@idDeclManagerLocal@@UBEHXZ 00439950 f   DeclManager.obj
 0001:00038a40       ?GetNumDeclTypes@idDeclManagerLocal@@UBEHXZ 00439a40 f   DeclManager.obj
 0001:00038a40       ?Num@idListGUILocal@@UAEHXZ 00439a40 f   UserInterface.obj
 0001:00038a40       ?NumSurfaces@idRenderModelStatic@@UBEHXZ 00439a40 f   Model.obj
 0001:00038a40       ?pixelsWide@NSBitmapImageRep@@QAEHXZ 00439a40 f   NSBitmapImageRep.obj
 0001:00038a50       ?GetNumDecls@idDeclManagerLocal@@UAEHW4declType_t@@@Z 00439a50 f   DeclManager.obj
 0001:00038a90       ?GetDeclNameFromType@idDeclManagerLocal@@UBEPBDW4declType_t@@@Z 00439a90 f   DeclManager.obj
 0001:00038ae0       ?GetDeclTypeFromName@idDeclManagerLocal@@UBE?AW4declType_t@@PBD@Z 00439ae0 f   DeclManager.obj
 0001:00038b40       ?FindType@idDeclManagerLocal@@UAEPBVidDecl@@W4declType_t@@PBD_N@Z 00439b40 f   DeclManager.obj
 0001:00038bc0       ?DeclByIndex@idDeclManagerLocal@@UAEPBVidDecl@@W4declType_t@@H_N@Z 00439bc0 f   DeclManager.obj
 0001:00038c60       ?FindDeclWithoutParsing@idDeclManagerLocal@@UAEPBVidDecl@@W4declType_t@@PBD_N@Z 00439c60 f   DeclManager.obj
 0001:00038c80       ?ReloadFile@idDeclManagerLocal@@UAEXPBD_N@Z 00439c80 f   DeclManager.obj
 0001:00038d10       ?ListType@idDeclManagerLocal@@UAEXABVidCmdArgs@@W4declType_t@@@Z 00439d10 f   DeclManager.obj
 0001:00038eb0       ?PrintType@idDeclManagerLocal@@UAEXABVidCmdArgs@@W4declType_t@@@Z 00439eb0 f   DeclManager.obj
 0001:00039050       ?CreateNewDecl@idDeclManagerLocal@@UAEPAVidDecl@@W4declType_t@@PBD1@Z 0043a050 f   DeclManager.obj
 0001:000395f0       ?RenameDecl@idDeclManagerLocal@@UAE_NW4declType_t@@PBD1@Z 0043a5f0 f   DeclManager.obj
 0001:00039800       ?MediaPrint@idDeclManagerLocal@@UAAXPBDZZ 0043a800 f   DeclManager.obj
 0001:00039890       ?WritePrecacheCommands@idDeclManagerLocal@@UAEXPAVidFile@@@Z 0043a890 f   DeclManager.obj
 0001:00039970       ?FindMaterial@idDeclManagerLocal@@UAEPBVidMaterial@@PBD_N@Z 0043a970 f   DeclManager.obj
 0001:00039990       ?FindSkin@idDeclManagerLocal@@UAEPBVidDeclSkin@@PBD_N@Z 0043a990 f   DeclManager.obj
 0001:000399b0       ?FindSound@idDeclManagerLocal@@UAEPBVidSoundShader@@PBD_N@Z 0043a9b0 f   DeclManager.obj
 0001:000399d0       ?MaterialByIndex@idDeclManagerLocal@@UAEPBVidMaterial@@H_N@Z 0043a9d0 f   DeclManager.obj
 0001:000399f0       ?SkinByIndex@idDeclManagerLocal@@UAEPBVidDeclSkin@@H_N@Z 0043a9f0 f   DeclManager.obj
 0001:00039a10       ?SoundByIndex@idDeclManagerLocal@@UAEPBVidSoundShader@@H_N@Z 0043aa10 f   DeclManager.obj
 0001:00039a30       ??_EidDeclManagerLocal@@UAEPAXI@Z 0043aa30 f i DeclManager.obj
 0001:00039a30       ??_GidDeclManagerLocal@@UAEPAXI@Z 0043aa30 f i DeclManager.obj
 0001:00039a60       ??$ArgCompletion_Decl@$00@idCmdSystem@@SAXABVidCmdArgs@@P6AXPBD@Z@Z 0043aa60 f i DeclManager.obj
 0001:00039a80       ??$ArgCompletion_Decl@$01@idCmdSystem@@SAXABVidCmdArgs@@P6AXPBD@Z@Z 0043aa80 f i DeclManager.obj
 0001:00039aa0       ??$ArgCompletion_Decl@$02@idCmdSystem@@SAXABVidCmdArgs@@P6AXPBD@Z@Z 0043aaa0 f i DeclManager.obj
 0001:00039ac0       ??$ArgCompletion_Decl@$03@idCmdSystem@@SAXABVidCmdArgs@@P6AXPBD@Z@Z 0043aac0 f i DeclManager.obj
 0001:00039ae0       ??$ArgCompletion_Decl@$05@idCmdSystem@@SAXABVidCmdArgs@@P6AXPBD@Z@Z 0043aae0 f i DeclManager.obj
 0001:00039b00       ??$ArgCompletion_Decl@$06@idCmdSystem@@SAXABVidCmdArgs@@P6AXPBD@Z@Z 0043ab00 f i DeclManager.obj
 0001:00039b20       ??$ArgCompletion_Decl@$07@idCmdSystem@@SAXABVidCmdArgs@@P6AXPBD@Z@Z 0043ab20 f i DeclManager.obj
 0001:00039b40       ??$ArgCompletion_Decl@$08@idCmdSystem@@SAXABVidCmdArgs@@P6AXPBD@Z@Z 0043ab40 f i DeclManager.obj
 0001:00039b60       ??$ArgCompletion_Decl@$09@idCmdSystem@@SAXABVidCmdArgs@@P6AXPBD@Z@Z 0043ab60 f i DeclManager.obj
 0001:00039b80       ??$ArgCompletion_Decl@$0A@@idCmdSystem@@SAXABVidCmdArgs@@P6AXPBD@Z@Z 0043ab80 f i DeclManager.obj
 0001:00039ba0       ??$ArgCompletion_Decl@$0L@@idCmdSystem@@SAXABVidCmdArgs@@P6AXPBD@Z@Z 0043aba0 f i DeclManager.obj
 0001:00039bc0       ??$ArgCompletion_Decl@$0M@@idCmdSystem@@SAXABVidCmdArgs@@P6AXPBD@Z@Z 0043abc0 f i DeclManager.obj
 0001:00039be0       ??$ArgCompletion_String@$1?listDeclStrings@@3PAPBDA@idCmdSystem@@SAXABVidCmdArgs@@P6AXPBD@Z@Z 0043abe0 f i DeclManager.obj
 0001:00039c30       ??$idDeclAllocator@VidDeclAF@@@@YAPAVidDecl@@XZ 0043ac30 f i DeclManager.obj
 0001:00039c90       ??$idDeclAllocator@VidDeclAudio@@@@YAPAVidDecl@@XZ 0043ac90 f i DeclManager.obj
 0001:00039d20       ??$idDeclAllocator@VidDeclEmail@@@@YAPAVidDecl@@XZ 0043ad20 f i DeclManager.obj
 0001:00039e00       ??$idDeclAllocator@VidDeclEntityDef@@@@YAPAVidDecl@@XZ 0043ae00 f i DeclManager.obj
 0001:00039e70       ??$idDeclAllocator@VidDeclFX@@@@YAPAVidDecl@@XZ 0043ae70 f i DeclManager.obj
 0001:00039f00       ??$idDeclAllocator@VidDeclPDA@@@@YAPAVidDecl@@XZ 0043af00 f i DeclManager.obj
 0001:0003a070       ??$idDeclAllocator@VidDeclParticle@@@@YAPAVidDecl@@XZ 0043b070 f i DeclManager.obj
 0001:0003a0c0       ??$idDeclAllocator@VidDeclSkin@@@@YAPAVidDecl@@XZ 0043b0c0 f i DeclManager.obj
 0001:0003a120       ??$idDeclAllocator@VidDeclTable@@@@YAPAVidDecl@@XZ 0043b120 f i DeclManager.obj
 0001:0003a170       ??$idDeclAllocator@VidDeclVideo@@@@YAPAVidDecl@@XZ 0043b170 f i DeclManager.obj
 0001:0003a220       ??$idDeclAllocator@VidMaterial@@@@YAPAVidDecl@@XZ 0043b220 f i DeclManager.obj
 0001:0003a280       ??$idDeclAllocator@VidSoundShader@@@@YAPAVidDecl@@XZ 0043b280 f i DeclManager.obj
 0001:0003a2e0       ??$idListDecls_f@$00@@YAXABVidCmdArgs@@@Z 0043b2e0 f i DeclManager.obj
 0001:0003a300       ??$idListDecls_f@$01@@YAXABVidCmdArgs@@@Z 0043b300 f i DeclManager.obj
 0001:0003a320       ??$idListDecls_f@$02@@YAXABVidCmdArgs@@@Z 0043b320 f i DeclManager.obj
 0001:0003a340       ??$idListDecls_f@$03@@YAXABVidCmdArgs@@@Z 0043b340 f i DeclManager.obj
 0001:0003a360       ??$idListDecls_f@$05@@YAXABVidCmdArgs@@@Z 0043b360 f i DeclManager.obj
 0001:0003a380       ??$idListDecls_f@$06@@YAXABVidCmdArgs@@@Z 0043b380 f i DeclManager.obj
 0001:0003a3a0       ??$idListDecls_f@$07@@YAXABVidCmdArgs@@@Z 0043b3a0 f i DeclManager.obj
 0001:0003a3c0       ??$idListDecls_f@$08@@YAXABVidCmdArgs@@@Z 0043b3c0 f i DeclManager.obj
 0001:0003a3e0       ??$idListDecls_f@$09@@YAXABVidCmdArgs@@@Z 0043b3e0 f i DeclManager.obj
 0001:0003a400       ??$idListDecls_f@$0A@@@YAXABVidCmdArgs@@@Z 0043b400 f i DeclManager.obj
 0001:0003a420       ??$idListDecls_f@$0L@@@YAXABVidCmdArgs@@@Z 0043b420 f i DeclManager.obj
 0001:0003a440       ??$idListDecls_f@$0M@@@YAXABVidCmdArgs@@@Z 0043b440 f i DeclManager.obj
 0001:0003a460       ??$idPrintDecls_f@$00@@YAXABVidCmdArgs@@@Z 0043b460 f i DeclManager.obj
 0001:0003a480       ??$idPrintDecls_f@$01@@YAXABVidCmdArgs@@@Z 0043b480 f i DeclManager.obj
 0001:0003a4a0       ??$idPrintDecls_f@$02@@YAXABVidCmdArgs@@@Z 0043b4a0 f i DeclManager.obj
 0001:0003a4c0       ??$idPrintDecls_f@$03@@YAXABVidCmdArgs@@@Z 0043b4c0 f i DeclManager.obj
 0001:0003a4e0       ??$idPrintDecls_f@$05@@YAXABVidCmdArgs@@@Z 0043b4e0 f i DeclManager.obj
 0001:0003a500       ??$idPrintDecls_f@$06@@YAXABVidCmdArgs@@@Z 0043b500 f i DeclManager.obj
 0001:0003a520       ??$idPrintDecls_f@$07@@YAXABVidCmdArgs@@@Z 0043b520 f i DeclManager.obj
 0001:0003a540       ??$idPrintDecls_f@$08@@YAXABVidCmdArgs@@@Z 0043b540 f i DeclManager.obj
 0001:0003a560       ??$idPrintDecls_f@$09@@YAXABVidCmdArgs@@@Z 0043b560 f i DeclManager.obj
 0001:0003a580       ??$idPrintDecls_f@$0A@@@YAXABVidCmdArgs@@@Z 0043b580 f i DeclManager.obj
 0001:0003a5a0       ??$idPrintDecls_f@$0L@@@YAXABVidCmdArgs@@@Z 0043b5a0 f i DeclManager.obj
 0001:0003a5c0       ??$idPrintDecls_f@$0M@@@YAXABVidCmdArgs@@@Z 0043b5c0 f i DeclManager.obj
 0001:0003a5e0       ??0idHashIndex@@QAE@XZ     0043b5e0 f i DeclManager.obj
 0001:0003a600       ??1idDeclBase@@UAE@XZ      0043b600 f i DeclManager.obj
 0001:0003a610       ??1idDeclManager@@UAE@XZ   0043b610 f i DeclManager.obj
 0001:0003a620       ??1idDeclManagerLocal@@UAE@XZ 0043b620 f i DeclManager.obj
 0001:0003a710       ??1idDeclPDA@@UAE@XZ       0043b710 f i DeclManager.obj
 0001:0003a8b0       ??_F?$idList@H@@QAEXXZ     0043b8b0 f i Image_init.obj
 0001:0003a8b0       ??_F?$idList@PAVBOBrick@@@@QAEXXZ 0043b8b0 f i GameBustOutWindow.obj
 0001:0003a8b0       ??_F?$idList@PAVidDeclLocal@@@@QAEXXZ 0043b8b0 f i DeclManager.obj
 0001:0003a8d0       ??_EidDeclAudio@@UAEPAXI@Z 0043b8d0 f i DeclManager.obj
 0001:0003a8d0       ??_GidDeclAudio@@UAEPAXI@Z 0043b8d0 f i DeclManager.obj
 0001:0003a960       ??_EidDeclBase@@UAEPAXI@Z  0043b960 f i DeclManager.obj
 0001:0003a960       ??_GidDeclBase@@UAEPAXI@Z  0043b960 f i DeclManager.obj
 0001:0003a990       ??_EidDeclEmail@@UAEPAXI@Z 0043b990 f i DeclManager.obj
 0001:0003a990       ??_GidDeclEmail@@UAEPAXI@Z 0043b990 f i DeclManager.obj
 0001:0003aa40       ??_EidDeclEntityDef@@UAEPAXI@Z 0043ba40 f i DeclManager.obj
 0001:0003aa40       ??_GidDeclEntityDef@@UAEPAXI@Z 0043ba40 f i DeclManager.obj
 0001:0003aad0       ??_EidDeclFX@@UAEPAXI@Z    0043bad0 f i DeclManager.obj
 0001:0003aad0       ??_GidDeclFX@@UAEPAXI@Z    0043bad0 f i DeclManager.obj
 0001:0003ab80       ??_EidDeclLocal@@UAEPAXI@Z 0043bb80 f i DeclManager.obj
 0001:0003ab80       ??_GidDeclLocal@@UAEPAXI@Z 0043bb80 f i DeclManager.obj
 0001:0003abe0       ??_EidDeclPDA@@UAEPAXI@Z   0043bbe0 f i DeclManager.obj
 0001:0003abe0       ??_GidDeclPDA@@UAEPAXI@Z   0043bbe0 f i DeclManager.obj
 0001:0003ac10       ??_EidDeclParticle@@UAEPAXI@Z 0043bc10 f i DeclManager.obj
 0001:0003ac10       ??_GidDeclParticle@@UAEPAXI@Z 0043bc10 f i DeclManager.obj
 0001:0003ac60       ??_EidDeclSkin@@UAEPAXI@Z  0043bc60 f i DeclManager.obj
 0001:0003ac60       ??_GidDeclSkin@@UAEPAXI@Z  0043bc60 f i DeclManager.obj
 0001:0003ad20       ??_EidDeclTable@@UAEPAXI@Z 0043bd20 f i DeclManager.obj
 0001:0003ad20       ??_GidDeclTable@@UAEPAXI@Z 0043bd20 f i DeclManager.obj
 0001:0003ad70       ??_EidDeclVideo@@UAEPAXI@Z 0043bd70 f i DeclManager.obj
 0001:0003ad70       ??_GidDeclVideo@@UAEPAXI@Z 0043bd70 f i DeclManager.obj
 0001:0003ae10       ?BuildHuffmanCode_r@@YAXPAUhuffmanNode_s@@UhuffmanCode_s@@QAU2@@Z 0043be10 f   DeclManager.obj
 0001:0003aeb0       ?DefaultDefinition@idDeclLocal@@MBEPBDXZ 0043beb0 f   DeclManager.obj
 0001:0003aec0       ?EnsureNotPurged@idDeclLocal@@UAEXXZ 0043bec0 f   DeclManager.obj
 0001:0003aed0       ?EverReferenced@idDeclLocal@@UBE_NXZ 0043bed0 f   DeclManager.obj
 0001:0003aee0       ?FindTypeWithoutParsing@idDeclManagerLocal@@QAEPAVidDeclLocal@@W4declType_t@@PBD_N@Z 0043bee0 f   DeclManager.obj
 0001:0003b210       ?FreeHuffmanTree_r@@YAXPAUhuffmanNode_s@@@Z 0043c210 f   DeclManager.obj
 0001:0003b240       ?GetFileName@idDeclLocal@@UBEPBDXZ 0043c240 f   DeclManager.obj
 0001:0003b260       ?GetLineNum@idDeclLocal@@UBEHXZ 0043c260 f   DeclManager.obj
 0001:0003b270       ?CurrentImage@roq@@QAEPAVNSBitmapImageRep@@XZ 0043c270 f   roq.obj
 0001:0003b270       ?GetName@idDeclLocal@@UBEPBDXZ 0043c270 f   DeclManager.obj
 0001:0003b270       ?GetPlayingSoundWorld@idSoundSystemLocal@@UAEPAVidSoundWorld@@XZ 0043c270 f   snd_system.obj
 0001:0003b270       ?GetSample@idSampleDecoderLocal@@UBEPAVidSoundSample@@XZ 0043c270 f   snd_decoder.obj
 0001:0003b280       ?GetState@idDeclLocal@@UBE?AW4declState_t@@XZ 0043c280 f   DeclManager.obj
 0001:0003b290       ?GetText@idDeclLocal@@UBEXPAD@Z 0043c290 f   DeclManager.obj
 0001:0003b320       ?GetTextLength@idDeclLocal@@UBEHXZ 0043c320 f   DeclManager.obj
 0001:0003b320       ?Length@idFile_Memory@@UAEHXZ 0043c320 f   File.obj
 0001:0003b320       ?MotMeanX@codec@@QAEHXZ    0043c320 f   codec.obj
 0001:0003b330       ?GetType@idDeclLocal@@UBE?AW4declType_t@@XZ 0043c330 f   DeclManager.obj
 0001:0003b330       ?Length@idFile_InZip@@UAEHXZ 0043c330 f   File.obj
 0001:0003b330       ?Length@idFile_Permanent@@UAEHXZ 0043c330 f   File.obj
 0001:0003b340       ?Index@idDeclLocal@@UBEHXZ 0043c340 f   DeclManager.obj
 0001:0003b350       ?Invalidate@idDeclLocal@@UAEXXZ 0043c350 f   DeclManager.obj
 0001:0003b360       ?IsImplicit@idDeclLocal@@UBE_NXZ 0043c360 f   DeclManager.obj
 0001:0003b370       ?IsValid@idDeclLocal@@UBE_NXZ 0043c370 f   DeclManager.obj
 0001:0003b380       ?List@idDeclLocal@@MBEXXZ  0043c380 f   DeclManager.obj
 0001:0003b3b0       ?ListDecls_f@idDeclManagerLocal@@CAXABVidCmdArgs@@@Z 0043c3b0 f   DeclManager.obj
 0001:0003b4d0       ?ListHuffmanFrequencies_f@@YAXABVidCmdArgs@@@Z 0043c4d0 f   DeclManager.obj
 0001:0003b570       ?LoadAndParse@idDeclFile@@QAEHXZ 0043c570 f   DeclManager.obj
 0001:0003ba30       ?MakeDefault@idDeclLocal@@UAEXXZ 0043ca30 f   DeclManager.obj
 0001:0003bad0       ?MakeNameCanonical@idDeclManagerLocal@@SAXPBDPADH@Z 0043cad0 f   DeclManager.obj
 0001:0003bb50       ?Parse@idDeclLocal@@MAE_NPBDH@Z 0043cb50 f   DeclManager.obj
 0001:0003bbf0       ?ParseLocal@idDeclLocal@@IAEXXZ 0043cbf0 f   DeclManager.obj
 0001:0003bce0       ?Reload@idDeclLocal@@UAEXXZ 0043cce0 f   DeclManager.obj
 0001:0003bd20       ?ReloadDecls_f@idDeclManagerLocal@@CAXABVidCmdArgs@@@Z 0043cd20 f   DeclManager.obj
 0001:0003bde0       ?Remove@idHashIndex@@QAEXHH@Z 0043cde0 f i DeclManager.obj
 0001:0003be60       ?ReplaceSourceFileText@idDeclLocal@@UAE_NXZ 0043ce60 f   DeclManager.obj
 0001:0003c110       ?SetDefaultText@idDeclLocal@@MAE_NXZ 0043d110 f   DeclManager.obj
 0001:0003c110       ?Swap_IsBigEndian@@YA_NXZ  0043d110 f   idLib:Lib.obj
 0001:0003c110       ?hasAlpha@NSBitmapImageRep@@QAE_NXZ 0043d110 f   NSBitmapImageRep.obj
 0001:0003c120       ?SetText@idDeclLocal@@UAEXPBD@Z 0043d120 f   DeclManager.obj
 0001:0003c150       ?SetTextLocal@idDeclLocal@@IAEXPBDH@Z 0043d150 f   DeclManager.obj
 0001:0003c250       ?Size@idDeclLocal@@UBEIXZ  0043d250 f   DeclManager.obj
 0001:0003c270       ?SourceFileChanged@idDeclLocal@@UBE_NXZ 0043d270 f   DeclManager.obj
 0001:0003c2c0       ?TouchDecl_f@idDeclManagerLocal@@CAXABVidCmdArgs@@@Z 0043d2c0 f   DeclManager.obj
 0001:0003c460       ??0idBounds@@QAE@ABVidVec3@@0@Z 0043d460 f i DeclParticle.obj
 0001:0003c4a0       ??0idBounds@@QAE@ABVidVec3@@@Z 0043d4a0 f i DeclParticle.obj
 0001:0003c4d0       ??_EidParticleStage@@UAEPAXI@Z 0043d4d0 f i DeclParticle.obj
 0001:0003c4d0       ??_GidParticleStage@@UAEPAXI@Z 0043d4d0 f i DeclParticle.obj
 0001:0003c500       ?AddBounds@idBounds@@QAE_NABV1@@Z 0043d500 f i DeclParticle.obj
 0001:0003c580       ?Clear@idDrawVert@@QAEXXZ  0043d580 f i DeclParticle.obj
 0001:0003c5f0       ?CreateParticle@idParticleStage@@UBEHPAUparticleGen_t@@PAVidDrawVert@@@Z 0043d5f0 f   DeclParticle.obj
 0001:0003c9d0       ?DefaultDefinition@idDeclParticle@@UBEPBDXZ 0043d9d0 f   DeclParticle.obj
 0001:0003c9e0       ?FreeData@idDeclParticle@@UAEXXZ 0043d9e0 f   DeclParticle.obj
 0001:0003ca40       ?GetStageBounds@idDeclParticle@@AAEXPAVidParticleStage@@@Z 0043da40 f   DeclParticle.obj
 0001:0003cf30       ?NumQuadsPerParticle@idParticleStage@@UBEHXZ 0043df30 f   DeclParticle.obj
 0001:0003cf60       ?Parse@idDeclParticle@@UAE_NPBDH@Z 0043df60 f   DeclParticle.obj
 0001:0003d270       ?ParseParametric@idDeclParticle@@AAEXAAVidLexer@@PAVidParticleParm@@@Z 0043e270 f   DeclParticle.obj
 0001:0003d3b0       ?ParseParms@idDeclParticle@@AAEXAAVidLexer@@PAMH@Z 0043e3b0 f   DeclParticle.obj
 0001:0003d480       ?ParseParticleStage@idDeclParticle@@AAEPAVidParticleStage@@AAVidLexer@@@Z 0043e480 f   DeclParticle.obj
 0001:0003e200       ?ParticleOrigin@idParticleStage@@QBEXPAUparticleGen_t@@AAVidVec3@@@Z 0043f200 f   DeclParticle.obj
 0001:0003ed50       ?ParticleVerts@idParticleStage@@QBEHPAUparticleGen_t@@VidVec3@@PAVidDrawVert@@@Z 0043fd50 f   DeclParticle.obj
 0001:0003fb90       ?SinCos16@idMath@@SAXMAAM0@Z 00440b90 f i DeclParticle.obj
 0001:0003fcf0       ?Size@idDeclParticle@@UBEIXZ 00440cf0 f   DeclParticle.obj
 0001:0003fd00       ?AddAudio@idDeclPDA@@UBEXPBD_N@Z 00440d00 f   DeclPDA.obj
 0001:0003fe60       ?AddEmail@idDeclPDA@@UBEXPBD_N@Z 00440e60 f   DeclPDA.obj
 0001:0003ffc0       ?AddVideo@idDeclPDA@@UBEXPBD_N@Z 00440fc0 f   DeclPDA.obj
 0001:00040120       ?DefaultDefinition@idDeclAudio@@UBEPBDXZ 00441120 f   DeclPDA.obj
 0001:00040130       ?DefaultDefinition@idDeclEmail@@UBEPBDXZ 00441130 f   DeclPDA.obj
 0001:00040140       ?DefaultDefinition@idDeclPDA@@UBEPBDXZ 00441140 f   DeclPDA.obj
 0001:00040150       ?DefaultDefinition@idDeclVideo@@UBEPBDXZ 00441150 f   DeclPDA.obj
 0001:00040160       ?Find@?$idList@VidStr@@@@QBEPAVidStr@@ABV2@@Z 00441160 f i DeclPDA.obj
 0001:000401b0       ?FreeData@idDeclPDA@@UAEXXZ 004411b0 f   DeclPDA.obj
 0001:000402e0       ?GetAudioByIndex@idDeclPDA@@UBEPBVidDeclAudio@@H@Z 004412e0 f   DeclPDA.obj
 0001:00040310       ?GetEmailByIndex@idDeclPDA@@UBEPBVidDeclEmail@@H@Z 00441310 f   DeclPDA.obj
 0001:00040340       ?GetNumAudios@idDeclPDA@@UBE?BHXZ 00441340 f   DeclPDA.obj
 0001:00040350       ?GetAltSound@idSoundShader@@UBEPBV1@XZ 00441350 f   snd_shader.obj
 0001:00040350       ?GetFullPath@idFile_InZip@@UAEPBDXZ 00441350 f   File.obj
 0001:00040350       ?GetFullPath@idFile_Permanent@@UAEPBDXZ 00441350 f   File.obj
 0001:00040350       ?GetNumEmails@idDeclPDA@@UBE?BHXZ 00441350 f   DeclPDA.obj
 0001:00040360       ?GetFullPath@idFile_BitMsg@@UAEPBDXZ 00441360 f   File.obj
 0001:00040360       ?GetFullPath@idFile_Memory@@UAEPBDXZ 00441360 f   File.obj
 0001:00040360       ?GetName@idFile_BitMsg@@UAEPBDXZ 00441360 f   File.obj
 0001:00040360       ?GetName@idFile_InZip@@UAEPBDXZ 00441360 f   File.obj
 0001:00040360       ?GetName@idFile_Memory@@UAEPBDXZ 00441360 f   File.obj
 0001:00040360       ?GetName@idFile_Permanent@@UAEPBDXZ 00441360 f   File.obj
 0001:00040360       ?GetName@idSysThread@@QBEPBDXZ 00441360 f   idLib:Thread.obj
 0001:00040360       ?GetNumVideos@idDeclPDA@@UBE?BHXZ 00441360 f   DeclPDA.obj
 0001:00040360       ?GetReadCount@idFileSystemLocal@@UAEHXZ 00441360 f   FileSystem.obj
 0001:00040360       ?Index@idSoundEmitterLocal@@UBEHXZ 00441360 f   snd_emitter.obj
 0001:00040360       ?pixelsHigh@NSBitmapImageRep@@QAEHXZ 00441360 f   NSBitmapImageRep.obj
 0001:00040370       ?GetVideoByIndex@idDeclPDA@@UBEPBVidDeclVideo@@H@Z 00441370 f   DeclPDA.obj
 0001:000403a0       ?List@idDeclAudio@@UBEXXZ  004413a0 f   DeclPDA.obj
 0001:000403a0       ?List@idDeclEmail@@UBEXXZ  004413a0 f   DeclPDA.obj
 0001:000403a0       ?List@idDeclPDA@@UBEXXZ    004413a0 f   DeclPDA.obj
 0001:000403a0       ?List@idDeclVideo@@UBEXXZ  004413a0 f   DeclPDA.obj
 0001:000403a0       ?Print@idDeclAudio@@UBEXXZ 004413a0 f   DeclPDA.obj
 0001:000403a0       ?Print@idDeclEmail@@UBEXXZ 004413a0 f   DeclPDA.obj
 0001:000403a0       ?Print@idDeclPDA@@UBEXXZ   004413a0 f   DeclPDA.obj
 0001:000403a0       ?Print@idDeclVideo@@UBEXXZ 004413a0 f   DeclPDA.obj
 0001:000403c0       ?Parse@idDeclAudio@@UAE_NPBDH@Z 004413c0 f   DeclPDA.obj
 0001:00040660       ?Parse@idDeclEmail@@UAE_NPBDH@Z 00441660 f   DeclPDA.obj
 0001:00040990       ?Parse@idDeclPDA@@UAE_NPBDH@Z 00441990 f   DeclPDA.obj
 0001:00040e40       ?Parse@idDeclVideo@@UAE_NPBDH@Z 00441e40 f   DeclPDA.obj
 0001:00041160       ?RemoveAddedEmailsAndVideos@idDeclPDA@@UBEXXZ 00442160 f   DeclPDA.obj
 0001:00041290       ?SetSecurity@idDeclPDA@@UBEXPBD@Z 00442290 f   DeclPDA.obj
 0001:000412a0       ?Size@idDeclAudio@@UBEIXZ  004422a0 f   DeclPDA.obj
 0001:000412b0       ?Size@idDeclEmail@@UBEIXZ  004422b0 f   DeclPDA.obj
 0001:000412c0       ?Size@idDeclPDA@@UBEIXZ    004422c0 f   DeclPDA.obj
 0001:000412d0       ?Size@idDeclVideo@@UBEIXZ  004422d0 f   DeclPDA.obj
 0001:000412e0       ?DefaultDefinition@idDeclSkin@@UBEPBDXZ 004422e0 f   DeclSkin.obj
 0001:000412f0       ?FreeData@idDeclSkin@@UAEXXZ 004422f0 f   DeclSkin.obj
 0001:00041320       ?Parse@idDeclSkin@@UAE_NPBDH@Z 00442320 f   DeclSkin.obj
 0001:00041600       ?RemapShaderBySkin@idDeclSkin@@QBEPBVidMaterial@@PBV2@@Z 00442600 f   DeclSkin.obj
 0001:00041660       ?RemapShaderBySkins@idDeclSkin@@QBEPBVidMaterial@@PBV2@PBV1@@Z 00442660 f   DeclSkin.obj
 0001:000416e0       ?Resize@?$idList@USSDLevelData_t@@@@QAEXH@Z 004426e0 f i GameSSDWindow.obj
 0001:000416e0       ?Resize@?$idList@UaasEdge_s@@@@QAEXH@Z 004426e0 f i AASBuild_file.obj
 0001:000416e0       ?Resize@?$idList@UdrawWin_t@@@@QAEXH@Z 004426e0 f i Window.obj
 0001:000416e0       ?Resize@?$idList@UfileTIME_T@@@@QAEXH@Z 004426e0 f i Session_menu.obj
 0001:000416e0       ?Resize@?$idList@UskinMapping_t@@@@QAEXH@Z 004426e0 f i DeclSkin.obj
 0001:000416e0       ?Resize@?$idList@VidKeyValue@@@@QAEXH@Z 004426e0 f i idLib:Dict.obj
 0001:00041780       ?SetDefaultText@idDeclSkin@@UAE_NXZ 00442780 f   DeclSkin.obj
 0001:000417f0       ?Size@idDeclSkin@@UBEIXZ   004427f0 f   DeclSkin.obj
 0001:00041800       ?DefaultDefinition@idDeclTable@@UBEPBDXZ 00442800 f   DeclTable.obj
 0001:00041810       ?FreeData@idDeclTable@@UAEXXZ 00442810 f   DeclTable.obj
 0001:00041840       ?Parse@idDeclTable@@UAE_NPBDH@Z 00442840 f   DeclTable.obj
 0001:00041bf0       ?Size@idDeclTable@@UBEIXZ  00442bf0 f   DeclTable.obj
 0001:00041c00       ?TableLookup@idDeclTable@@QBEMM@Z 00442c00 f   DeclTable.obj
 0001:00041d60       ??0idDemoFile@@QAE@XZ      00442d60 f   DemoFile.obj
 0001:00041dd0       ??1idDemoFile@@UAE@XZ      00442dd0 f   DemoFile.obj
 0001:00041e50       ??_EidDemoFile@@UAEPAXI@Z  00442e50 f i DemoFile.obj
 0001:00041e50       ??_GidDemoFile@@UAEPAXI@Z  00442e50 f i DemoFile.obj
 0001:00041ee0       ?Close@idDemoFile@@QAEXXZ  00442ee0 f   DemoFile.obj
 0001:00042000       ?GetFullPath@idDemoFile@@UAEPBDXZ 00443000 f i DemoFile.obj
 0001:00042020       ?GetName@idDemoFile@@UAEPBDXZ 00443020 f i DemoFile.obj
 0001:00042040       ?Log@idDemoFile@@QAEXPBD@Z 00443040 f   DemoFile.obj
 0001:00042080       ?OpenForReading@idDemoFile@@QAE_NPBD@Z 00443080 f   DemoFile.obj
 0001:00042260       ?OpenForWriting@idDemoFile@@QAE_NPBD@Z 00443260 f   DemoFile.obj
 0001:00042330       ?Read@idDemoFile@@UAEHPAXH@Z 00443330 f   DemoFile.obj
 0001:00042360       ?ReadDict@idDemoFile@@QAEXAAVidDict@@@Z 00443360 f   DemoFile.obj
 0001:00042440       ?ReadHashString@idDemoFile@@QAEPBDXZ 00443440 f   DemoFile.obj
 0001:000425b0       ?Write@idDemoFile@@UAEHPBXH@Z 004435b0 f   DemoFile.obj
 0001:000425c0       ?WriteDict@idDemoFile@@QAEXABVidDict@@@Z 004435c0 f   DemoFile.obj
 0001:00042630       ?WriteHashString@idDemoFile@@QAEXPBD@Z 00443630 f   DemoFile.obj
 0001:00042780       ??0idEditField@@QAE@XZ     00443780 f   EditField.obj
 0001:000427b0       ?AutoComplete@idEditField@@QAEXXZ 004437b0 f   EditField.obj
 0001:00042ba0       ?CharEvent@idEditField@@QAEXH@Z 00443ba0 f   EditField.obj
 0001:00042cd0       ?Clear@idEditField@@QAEXXZ 00443cd0 f   EditField.obj
 0001:00042d00       ?ClearAutoComplete@idEditField@@QAEXXZ 00443d00 f   EditField.obj
 0001:00042d60       ?Draw@idEditField@@QAEXHHH_NPBVidMaterial@@@Z 00443d60 f   EditField.obj
 0001:00042fd0       ?GetAutoCompleteLength@idEditField@@QBEHXZ 00443fd0 f   EditField.obj
 0001:00042fe0       ?GetBuffer@idEditField@@QAEPADXZ 00443fe0 f   EditField.obj
 0001:00042ff0       ?GetCursor@idEditField@@QBEHXZ 00443ff0 f   EditField.obj
 0001:00042ff0       ?bitmapData@NSBitmapImageRep@@QAEPAEXZ 00443ff0 f   NSBitmapImageRep.obj
 0001:00043000       ?KeyDownEvent@idEditField@@QAEXH@Z 00444000 f   EditField.obj
 0001:000432e0       ?Paste@idEditField@@QAEXXZ 004442e0 f   EditField.obj
 0001:00043500       ?SetCursor@idEditField@@QAEXH@Z 00444500 f   EditField.obj
 0001:00043510       ?SetWidthInChars@idEditField@@QAEXH@Z 00444510 f   EditField.obj
 0001:00043520       ?Init@idEventLoop@@QAEXXZ  00444520 f   EventLoop.obj
 0001:00043610       ?JournalLevel@idEventLoop@@QBEHXZ 00444610 f   EventLoop.obj
 0001:00043620       ?Milliseconds@idEventLoop@@QAEHXZ 00444620 f   EventLoop.obj
 0001:00043630       ?RunEventLoop@idEventLoop@@QAEH_N@Z 00444630 f   EventLoop.obj
 0001:00043800       ?Shutdown@idEventLoop@@QAEXXZ 00444800 f   EventLoop.obj
 0001:00043840       ??0idFile_BitMsg@@QAE@AAVidBitMsg@@@Z 00444840 f   File.obj
 0001:000438c0       ??0idFile_BitMsg@@QAE@ABVidBitMsg@@@Z 004448c0 f   File.obj
 0001:00043940       ??0idFile_InZip@@QAE@XZ    00444940 f   File.obj
 0001:000439d0       ??0idFile_Memory@@QAE@PBD0H@Z 004449d0 f   File.obj
 0001:00043a60       ??0idFile_Memory@@QAE@XZ   00444a60 f   File.obj
 0001:00043b00       ??0idFile_Permanent@@QAE@XZ 00444b00 f   File.obj
 0001:00043ba0       ??1idFile_BitMsg@@UAE@XZ   00444ba0 f   File.obj
 0001:00043bf0       ??1idFile_Memory@@UAE@XZ   00444bf0 f   File.obj
 0001:00043c60       ??_EidFile_BitMsg@@UAEPAXI@Z 00444c60 f i File.obj
 0001:00043c60       ??_GidFile_BitMsg@@UAEPAXI@Z 00444c60 f i File.obj
 0001:00043cc0       ??_EidFile_InZip@@UAEPAXI@Z 00444cc0 f i File.obj
 0001:00043cc0       ??_GidFile_InZip@@UAEPAXI@Z 00444cc0 f i File.obj
 0001:00043d50       ??_EidFile_Memory@@UAEPAXI@Z 00444d50 f i File.obj
 0001:00043d50       ??_GidFile_Memory@@UAEPAXI@Z 00444d50 f i File.obj
 0001:00043dd0       ??_EidFile_Permanent@@UAEPAXI@Z 00444dd0 f i File.obj
 0001:00043dd0       ??_GidFile_Permanent@@UAEPAXI@Z 00444dd0 f i File.obj
 0001:00043e50       ?Clear@idFile_Memory@@UAEX_N@Z 00444e50 f   File.obj
 0001:00043ea0       ?FS_WriteFloatString@@YAHPADPBD0@Z 00444ea0 f   File.obj
 0001:000441e0       ?Flush@idFile_InZip@@UAEXXZ 004451e0 f   File.obj
 0001:00044200       ?Flush@idFile_Permanent@@UAEXXZ 00445200 f   File.obj
 0001:00044210       ?ForceFlush@idFile_InZip@@UAEXXZ 00445210 f   File.obj
 0001:00044230       ?ForceFlush@idFile_Permanent@@UAEXXZ 00445230 f   File.obj
 0001:00044250       ?GetFullPath@idFile@@UAEPBDXZ 00445250 f   File.obj
 0001:00044250       ?GetName@idFile@@UAEPBDXZ  00445250 f   File.obj
 0001:00044250       ?Sys_DefaultCDPath@@YAPBDXZ 00445250 f   win_main.obj
 0001:00044260       ?AnimationLength@idCinematic@@UAEHXZ 00445260 f   Cinematic.obj
 0001:00044260       ?FS_CloseOGG@@YAHPAX@Z     00445260 f   snd_decoder.obj
 0001:00044260       ?GetDefaultPose@idRenderModelStatic@@UBEPBVidJointQuat@@XZ 00445260 f   Model.obj
 0001:00044260       ?GetJoints@idRenderModelStatic@@UBEPBVidMD5Joint@@XZ 00445260 f   Model.obj
 0001:00044260       ?GetMixBuffer@idAudioHardwareWIN32@@UAEPAFXZ 00445260 f   win_snd.obj
 0001:00044260       ?IsDynamicModel@idRenderModelStatic@@UBE?AW4dynamicModel_t@@XZ 00445260 f   Model.obj
 0001:00044260       ?Length@idFile@@UAEHXZ     00445260 f   File.obj
 0001:00044260       ?NumJoints@idRenderModelStatic@@UBEHXZ 00445260 f   Model.obj
 0001:00044260       ?Run@idSysThread@@MAEHXZ   00445260 f   idLib:Thread.obj
 0001:00044260       ?Tell@idFile@@UAEHXZ       00445260 f   File.obj
 0001:00044260       ?Timestamp@idFile@@UAEJXZ  00445260 f   File.obj
 0001:00044260       ?Timestamp@idFile_BitMsg@@UAEJXZ 00445260 f   File.obj
 0001:00044260       ?Timestamp@idFile_InZip@@UAEJXZ 00445260 f   File.obj
 0001:00044260       ?Timestamp@idFile_Memory@@UAEJXZ 00445260 f   File.obj
 0001:00044260       _Curl_SSLConnect           00445260 f   CurlLib:ssluse.obj
 0001:00044260       ___scrt_exe_initialize_mta 00445260 f   libcmt:utility_desktop.obj
 0001:00044260       ___scrt_initialize_winrt   00445260 f   libcmt:utility_desktop.obj
 0001:00044260       ___scrt_stub_for_initialize_mta 00445260 f   libcmt:utility_desktop.obj
 0001:00044260       __get_startup_commit_mode  00445260 f   libcmt:commit_mode.obj
 0001:00044260       __get_startup_new_mode     00445260 f   libcmt:new_mode.obj
 0001:00044260       __get_startup_thread_locale_mode 00445260 f   libcmt:thread_locale.obj
 0001:00044260       __matherr                  00445260 f   libcmt:matherr.obj
 0001:00044260       _jpeg_mem_init             00445260 f   jmemnobs.obj
 0001:00044270       ?Length@idFile_BitMsg@@UAEHXZ 00445270 f   File.obj
 0001:00044270       ?Tell@idFile_BitMsg@@UAEHXZ 00445270 f   File.obj
 0001:00044280       ?MakeReadOnly@idFile_Memory@@UAEXXZ 00445280 f   File.obj
 0001:00044290       ?Printf@idFile@@UAAHPBDZZ  00445290 f   File.obj
 0001:00044370       ?Read@idFile@@UAEHPAXH@Z   00445370 f   File.obj
 0001:00044390       ?Read@idFile_BitMsg@@UAEHPAXH@Z 00445390 f   File.obj
 0001:000443c0       ?Read@idFile_InZip@@UAEHPAXH@Z 004453c0 f   File.obj
 0001:000443f0       ?Read@idFile_Memory@@UAEHPAXH@Z 004453f0 f   File.obj
 0001:00044450       ?Read@idFile_Permanent@@UAEHPAXH@Z 00445450 f   File.obj
 0001:00044520       ?ReadBool@idFile@@UAEHAA_N@Z 00445520 f   File.obj
 0001:00044540       ?ReadChar@idFile@@UAEHAAD@Z 00445540 f   File.obj
 0001:00044540       ?ReadUnsignedChar@idFile@@UAEHAAE@Z 00445540 f   File.obj
 0001:00044550       ?ReadFloat@idFile@@UAEHAAM@Z 00445550 f   File.obj
 0001:00044580       ?ReadInt@idFile@@UAEHAAH@Z 00445580 f   File.obj
 0001:00044580       ?ReadUnsignedInt@idFile@@UAEHAAI@Z 00445580 f   File.obj
 0001:000445b0       ?ReadMat3@idFile@@UAEHAAVidMat3@@@Z 004455b0 f   File.obj
 0001:000445e0       ?ReadShort@idFile@@UAEHAAF@Z 004455e0 f   File.obj
 0001:000445e0       ?ReadUnsignedShort@idFile@@UAEHAAG@Z 004455e0 f   File.obj
 0001:00044610       ?ReadString@idFile@@UAEHAAVidStr@@@Z 00445610 f   File.obj
 0001:00044680       ?ReadVec2@idFile@@UAEHAAVidVec2@@@Z 00445680 f   File.obj
 0001:000446b0       ?ReadVec3@idFile@@UAEHAAVidVec3@@@Z 004456b0 f   File.obj
 0001:000446e0       ?ReadVec4@idFile@@UAEHAAVidVec4@@@Z 004456e0 f   File.obj
 0001:00044710       ?ReadVec6@idFile@@UAEHAAVidVec6@@@Z 00445710 f   File.obj
 0001:00044740       ?Rewind@idFile@@UAEXXZ     00445740 f   File.obj
 0001:00044750       ?Seek@idFile@@UAEHJW4fsOrigin_t@@@Z 00445750 f   File.obj
 0001:00044750       ?Seek@idFile_BitMsg@@UAEHJW4fsOrigin_t@@@Z 00445750 f   File.obj
 0001:00044760       ?Seek@idFile_InZip@@UAEHJW4fsOrigin_t@@@Z 00445760 f   File.obj
 0001:00044850       ?Seek@idFile_Memory@@UAEHJW4fsOrigin_t@@@Z 00445850 f   File.obj
 0001:000448d0       ?Seek@idFile_Permanent@@UAEHJW4fsOrigin_t@@@Z 004458d0 f   File.obj
 0001:00044970       ?SetData@idFile_Memory@@QAEXPBDH@Z 00445970 f   File.obj
 0001:000449a0       ?Tell@idFile_InZip@@UAEHXZ 004459a0 f   File.obj
 0001:000449b0       ?Tell@idFile_Memory@@UAEHXZ 004459b0 f   File.obj
 0001:000449c0       ?Tell@idFile_Permanent@@UAEHXZ 004459c0 f   File.obj
 0001:000449d0       ?Timestamp@idFile_Permanent@@UAEJXZ 004459d0 f   File.obj
 0001:000449e0       ?VPrintf@idFile@@UAEHPBDPAD@Z 004459e0 f   File.obj
 0001:00044a30       ?Write@idFile@@UAEHPBXH@Z  00445a30 f   File.obj
 0001:00044a50       ?Write@idFile_BitMsg@@UAEHPBXH@Z 00445a50 f   File.obj
 0001:00044a90       ?Write@idFile_InZip@@UAEHPBXH@Z 00445a90 f   File.obj
 0001:00044ab0       ?Write@idFile_Memory@@UAEHPBXH@Z 00445ab0 f   File.obj
 0001:00044b90       ?Write@idFile_Permanent@@UAEHPBXH@Z 00445b90 f   File.obj
 0001:00044c60       ?WriteBool@idFile@@UAEH_N@Z 00445c60 f   File.obj
 0001:00044c70       ?WriteChar@idFile@@UAEHD@Z 00445c70 f   File.obj
 0001:00044c70       ?WriteUnsignedChar@idFile@@UAEHE@Z 00445c70 f   File.obj
 0001:00044c80       ?WriteFloat@idFile@@UAEHM@Z 00445c80 f   File.obj
 0001:00044cb0       ?WriteFloatString@idFile@@UAAHPBDZZ 00445cb0 f   File.obj
 0001:00044cf0       ?WriteInt@idFile@@UAEHH@Z  00445cf0 f   File.obj
 0001:00044cf0       ?WriteUnsignedInt@idFile@@UAEHI@Z 00445cf0 f   File.obj
 0001:00044d20       ?WriteMat3@idFile@@UAEHABVidMat3@@@Z 00445d20 f   File.obj
 0001:00044d70       ?WriteShort@idFile@@UAEHF@Z 00445d70 f   File.obj
 0001:00044d70       ?WriteUnsignedShort@idFile@@UAEHG@Z 00445d70 f   File.obj
 0001:00044da0       ?WriteString@idFile@@UAEHPBD@Z 00445da0 f   File.obj
 0001:00044de0       ?WriteVec2@idFile@@UAEHABVidVec2@@@Z 00445de0 f   File.obj
 0001:00044e20       ?WriteVec3@idFile@@UAEHABVidVec3@@@Z 00445e20 f   File.obj
 0001:00044e70       ?WriteVec4@idFile@@UAEHABVidVec4@@@Z 00445e70 f   File.obj
 0001:00044eb0       ?WriteVec6@idFile@@UAEHABVidVec6@@@Z 00445eb0 f   File.obj
 0001:00044f00       ?excludeFullName@@YA_NABUpureExclusion_s@@HABVidStr@@@Z 00445f00 f   FileSystem.obj
 0001:00044f30       ?excludeExtension@@YA_NABUpureExclusion_s@@HABVidStr@@@Z 00445f30 f   FileSystem.obj
 0001:00044f60       ?excludePathPrefixAndExtension@@YA_NABUpureExclusion_s@@HABVidStr@@@Z 00445f60 f   FileSystem.obj
 0001:00044fc0       ??$ArgCompletion_Integer@$0A@$02@idCmdSystem@@SAXABVidCmdArgs@@P6AXPBD@Z@Z 00445fc0 f i FileSystem.obj
 0001:00045000       ??$idListSortComparePaths@PAVidStr@@@@YAHPBQAVidStr@@0@Z 00446000 f i FileSystem.obj
 0001:00045020       ??0debugText_s@@QAE@XZ     00446020 f i tr_rendertools.obj
 0001:00045020       ??0fileInPack_s@@QAE@XZ    00446020 f i FileSystem.obj
 0001:00045040       ??0idDEntry@@QAE@XZ        00446040 f i FileSystem.obj
 0001:000450a0       ??0idStr@@QAE@PBDHH@Z      004460a0 f i FileSystem.obj
 0001:00045130       ??1backgroundDownload_s@@QAE@XZ 00446130 f i FileSystem.obj
 0001:00045170       ??1idDEntry@@UAE@XZ        00446170 f i FileSystem.obj
 0001:00045220       ??1idDict@@QAE@XZ          00446220 f i FileSystem.obj
 0001:00045290       ??1idFileSystem@@UAE@XZ    00446290 f i FileSystem.obj
 0001:000452a0       ??1idFileSystemLocal@@UAE@XZ 004462a0 f i FileSystem.obj
 0001:000453e0       ??H@YA?AVidStr@@ABV0@PBD@Z 004463e0 f i FileSystem.obj
 0001:00045490       ??_GaddonInfo_t@@QAEPAXI@Z 00446490 f i FileSystem.obj
 0001:00045500       ??_EidDEntry@@UAEPAXI@Z    00446500 f i FileSystem.obj
 0001:00045500       ??_GidDEntry@@UAEPAXI@Z    00446500 f i FileSystem.obj
 0001:00045520       ??_GidDict@@QAEPAXI@Z      00446520 f i FileSystem.obj
 0001:000455a0       ??_EidFileSystem@@UAEPAXI@Z 004465a0 f i FileSystem.obj
 0001:000455a0       ??_GidFileSystem@@UAEPAXI@Z 004465a0 f i FileSystem.obj
 0001:000455d0       ??_EidFileSystemLocal@@UAEPAXI@Z 004465d0 f i FileSystem.obj
 0001:000455d0       ??_GidFileSystemLocal@@UAEPAXI@Z 004465d0 f i FileSystem.obj
 0001:00045600       ?AddGameDirectory@idFileSystemLocal@@AAEXPBD0@Z 00446600 f   FileSystem.obj
 0001:00045a70       ?AddToReadCount@idFileSystemLocal@@UAEXH@Z 00446a70 f i FileSystem.obj
 0001:00045a80       ?AddUnique@idFileSystemLocal@@ABEHPBDAAV?$idList@VidStr@@@@AAVidHashIndex@@@Z 00446a80 f   FileSystem.obj
 0001:00045c00       ?AddZipFile@idFileSystemLocal@@UAEHPBD@Z 00446c00 f   FileSystem.obj
 0001:00045d30       ?ArgCompletion_FileName@idCmdSystem@@SAXABVidCmdArgs@@P6AXPBD@Z@Z 00446d30 f i FileSystem.obj
 0001:00045d60       ?BackgroundDownload@idFileSystemLocal@@UAEXPAUbackgroundDownload_s@@@Z 00446d60 f   FileSystem.obj
 0001:00045de0       ?BackgroundDownloadThread@@YAIPAX@Z 00446de0 f   FileSystem.obj
 0001:00045ff0       ?BuildOSPath@idFileSystemLocal@@UAEPBDPBD00@Z 00446ff0 f   FileSystem.obj
 0001:00046290       ?ClearDirCache@idFileSystemLocal@@UAEXXZ 00447290 f   FileSystem.obj
 0001:00046380       ?ClearPureChecksums@idFileSystemLocal@@UAEXXZ 00447380 f   FileSystem.obj
 0001:000463d0       ?CloseFile@idFileSystemLocal@@UAEXPAVidFile@@@Z 004473d0 f   FileSystem.obj
 0001:00046400       ?CopyFileA@idFileSystemLocal@@AAEXPAVidFile@@PBD@Z 00447400 f   FileSystem.obj
 0001:00046510       ?CopyFileA@idFileSystemLocal@@UAEXPBD0@Z 00447510 f   FileSystem.obj
 0001:00046620       ?CreateOSPath@idFileSystemLocal@@UAEXPBD@Z 00447620 f   FileSystem.obj
 0001:000466c0       ?CurlProgressFunction@idFileSystemLocal@@CAHPAXNNNN@Z 004476c0 f   FileSystem.obj
 0001:000466f0       ?CurlWriteFunction@idFileSystemLocal@@CAIPAXII0@Z 004476f0 f   FileSystem.obj
 0001:00046720       ?DeleteContents@?$idList@PAVidDict@@@@QAEX_N@Z 00447720 f i FileSystem.obj
 0001:00046820       ?DirTree_f@idFileSystemLocal@@SAXABVidCmdArgs@@@Z 00447820 f   FileSystem.obj
 0001:00046a30       ?Dir_f@idFileSystemLocal@@SAXABVidCmdArgs@@@Z 00447a30 f   FileSystem.obj
 0001:00046c40       ?DirectFileLength@idFileSystemLocal@@AAEHPAU_iobuf@@@Z 00447c40 f   FileSystem.obj
 0001:00046c80       ?FileAllowedFromDir@idFileSystemLocal@@AAE_NPBD@Z 00447c80 f   FileSystem.obj
 0001:00046e10       ?FileIsInPAK@idFileSystemLocal@@UAE_NPBD@Z 00447e10 f   FileSystem.obj
 0001:00046f40       ?FilenameCompare@idFileSystemLocal@@UBE_NPBD0@Z 00447f40 f   FileSystem.obj
 0001:00046fb0       ?FindDLL@idFileSystemLocal@@UAEXPBDQAD_N@Z 00447fb0 f   FileSystem.obj
 0001:00047350       ?FindFile@idFileSystemLocal@@UAE?AW4findFile_t@@PBD_N@Z 00448350 f   FileSystem.obj
 0001:000473f0       ?FindIndex@?$idList@H@@QBEHABH@Z 004483f0 f i FileSystem.obj
 0001:00047420       ?FindMapScreenshot@idFileSystemLocal@@UAEXPBDPADH@Z 00448420 f   FileSystem.obj
 0001:00047590       ?FindPakForFileChecksum@idFileSystemLocal@@AAEPAUpack_t@@PBDH_N@Z 00448590 f   FileSystem.obj
 0001:00047770       ?FollowAddonDependencies@idFileSystemLocal@@AAEXPAUpack_t@@@Z 00448770 f   FileSystem.obj
 0001:000478b0       ?FreeFile@idFileSystemLocal@@UAEXPAX@Z 004488b0 f   FileSystem.obj
 0001:00047900       ?FreeFileList@idFileSystemLocal@@UAEXPAVidFileList@@@Z 00448900 f   FileSystem.obj
 0001:000479a0       ?FreeModList@idFileSystemLocal@@UAEXPAVidModList@@@Z 004489a0 f   FileSystem.obj
 0001:00047a80       ?GetExtensionList@idFileSystemLocal@@ABEXPBDAAV?$idList@VidStr@@@@@Z 00448a80 f   FileSystem.obj
 0001:00047c50       ?GetFileChecksum@idFileSystemLocal@@AAEHPAVidFile@@@Z 00448c50 f   FileSystem.obj
 0001:00047cc0       ?GetFileList@idFileSystemLocal@@AAEHPBDABV?$idList@VidStr@@@@AAV2@AAVidHashIndex@@_N0@Z 00448cc0 f   FileSystem.obj
 0001:000482e0       ?GetFileListTree@idFileSystemLocal@@AAEHPBDABV?$idList@VidStr@@@@AAV2@AAVidHashIndex@@0@Z 004492e0 f   FileSystem.obj
 0001:00048520       ?GetMapDecl@idFileSystemLocal@@UAEPBVidDict@@H@Z 00449520 f   FileSystem.obj
 0001:00048600       ?GetNumMaps@idFileSystemLocal@@UAEHXZ 00449600 f   FileSystem.obj
 0001:00048660       ?GetOSMask@idFileSystemLocal@@UAEHXZ 00449660 f   FileSystem.obj
 0001:000486c0       ?GetPackStatus@idFileSystemLocal@@AAE?AW4pureStatus_t@@PAUpack_t@@@Z 004496c0 f   FileSystem.obj
 0001:00048820       ?GetPureServerChecksums@idFileSystemLocal@@UAEXQAHHPAH@Z 00449820 f   FileSystem.obj
 0001:00048880       ?HasD3XP@idFileSystemLocal@@UAE_NXZ 00449880 f   FileSystem.obj
 0001:00048a70       ?HashFileName@idFileSystemLocal@@ABEJPBD@Z 00449a70 f   FileSystem.obj
 0001:00048ae0       ?Init@idFileSystemLocal@@UAEXXZ 00449ae0 f   FileSystem.obj
 0001:00048c50       ?Insert@?$idList@VidStr@@@@QAEHABVidStr@@H@Z 00449c50 f i FileSystem.obj
 0001:00048d80       ?IsInitialized@idFileSystemLocal@@UBE_NXZ 00449d80 f   FileSystem.obj
 0001:00048da0       ?ListFiles@idFileSystemLocal@@UAEPAVidFileList@@PBD0_N10@Z 00449da0 f   FileSystem.obj
 0001:00049090       ?ListFilesTree@idFileSystemLocal@@UAEPAVidFileList@@PBD0_N0@Z 0044a090 f   FileSystem.obj
 0001:000493d0       ?ListMods@idFileSystemLocal@@UAEPAVidModList@@XZ 0044a3d0 f   FileSystem.obj
 0001:00049ed0       ?ListOSFiles@idFileSystemLocal@@AAEHPBD0AAV?$idList@VidStr@@@@@Z 0044aed0 f   FileSystem.obj
 0001:0004a030       ?LoadZipFile@idFileSystemLocal@@AAEPAUpack_t@@PBD@Z 0044b030 f   FileSystem.obj
 0001:0004a400       ?MakeTemporaryFile@idFileSystemLocal@@UAEPAVidFile@@XZ 0044b400 f   FileSystem.obj
 0001:0004a4d0       ?OSPathToRelativePath@idFileSystemLocal@@UAEPBDPBD@Z 0044b4d0 f   FileSystem.obj
 0001:0004a670       ?OpenExplicitFileRead@idFileSystemLocal@@UAEPAVidFile@@PBD@Z 0044b670 f   FileSystem.obj
 0001:0004a7a0       ?OpenExplicitFileWrite@idFileSystemLocal@@UAEPAVidFile@@PBD@Z 0044b7a0 f   FileSystem.obj
 0001:0004a8b0       ?OpenFileAppend@idFileSystemLocal@@UAEPAVidFile@@PBD_N0@Z 0044b8b0 f   FileSystem.obj
 0001:0004aa50       ?OpenFileByMode@idFileSystemLocal@@UAEPAVidFile@@PBDW4fsMode_t@@@Z 0044ba50 f   FileSystem.obj
 0001:0004aab0       ?OpenFileRead@idFileSystemLocal@@UAEPAVidFile@@PBD_N0@Z 0044bab0 f   FileSystem.obj
 0001:0004aae0       ?OpenFileReadFlags@idFileSystemLocal@@UAEPAVidFile@@PBDHPAPAUpack_t@@_N0@Z 0044bae0 f   FileSystem.obj
 0001:0004b380       ?OpenFileWrite@idFileSystemLocal@@UAEPAVidFile@@PBD0@Z 0044c380 f   FileSystem.obj
 0001:0004b510       ?OpenOSFile@idFileSystemLocal@@AAEPAU_iobuf@@PBD0PAVidStr@@@Z 0044c510 f   FileSystem.obj
 0001:0004b850       ?ParseAddonDef@idFileSystemLocal@@AAEPAUaddonInfo_t@@PBDH@Z 0044c850 f   FileSystem.obj
 0001:0004bd00       ?Path_f@idFileSystemLocal@@SAXABVidCmdArgs@@@Z 0044cd00 f   FileSystem.obj
 0001:0004bfb0       ?PerformingCopyFiles@idFileSystemLocal@@UBE_NXZ 0044cfb0 f   FileSystem.obj
 0001:0004bfc0       ?ReadFile@idFileSystemLocal@@UAEHPBDPAPAXPAJ@Z 0044cfc0 f   FileSystem.obj
 0001:0004c210       ?ReadFileFromZip@idFileSystemLocal@@AAEPAVidFile_InZip@@PAUpack_t@@PAUfileInPack_s@@PBD@Z 0044d210 f   FileSystem.obj
 0001:0004c3c0       ?RelativePathToOSPath@idFileSystemLocal@@UAEPBDPBD0@Z 0044d3c0 f   FileSystem.obj
 0001:0004c400       ?Remove@?$idList@VidStr@@@@QAE_NABVidStr@@@Z 0044d400 f i FileSystem.obj
 0001:0004c490       ?RemoveFile@idFileSystemLocal@@UAEXPBD@Z 0044d490 f   FileSystem.obj
 0001:0004c560       ?ResetReadCount@idFileSystemLocal@@UAEXXZ 0044d560 f i FileSystem.obj
 0001:0004c560       ?StopWritingDemo@idSoundWorldLocal@@UAEXXZ 0044d560 f i snd_world.obj
 0001:0004c570       ?Restart@idFileSystemLocal@@UAEXXZ 0044d570 f   FileSystem.obj
 0001:0004c5b0       ?RunningD3XP@idFileSystemLocal@@UAE_NXZ 0044d5b0 f   FileSystem.obj
 0001:0004c5f0       ?SetPureServerChecksums@idFileSystemLocal@@UAE?AW4fsPureReply_t@@QBHHQAHPAH@Z 0044d5f0 f   FileSystem.obj
 0001:0004caf0       ?SetRestartChecksums@idFileSystemLocal@@UAEXQBHH@Z 0044daf0 f   FileSystem.obj
 0001:0004cdf0       ?SetupGameDirectories@idFileSystemLocal@@AAEXPBD@Z 0044ddf0 f   FileSystem.obj
 0001:0004ce60       ?Shutdown@idFileSystemLocal@@UAEX_N@Z 0044de60 f   FileSystem.obj
 0001:0004d1f0       ?StartBackgroundDownloadThread@idFileSystemLocal@@UAEXXZ 0044e1f0 f   FileSystem.obj
 0001:0004d260       ?Startup@idFileSystemLocal@@AAEXXZ 0044e260 f   FileSystem.obj
 0001:0004db00       ?ToLower@idStr@@QAEXXZ     0044eb00 f i FileSystem.obj
 0001:0004db30       ?TouchFileList_f@idFileSystemLocal@@SAXABVidCmdArgs@@@Z 0044eb30 f   FileSystem.obj
 0001:0004dcd0       ?TouchFile_f@idFileSystemLocal@@SAXABVidCmdArgs@@@Z 0044ecd0 f   FileSystem.obj
 0001:0004dd40       ?UpdateGamePakChecksums@idFileSystemLocal@@UAE_NXZ 0044ed40 f   FileSystem.obj
 0001:0004e000       ?UpdatePureServerChecksums@idFileSystemLocal@@UAEXXZ 0044f000 f   FileSystem.obj
 0001:0004e360       ?ValidateDownloadPakForChecksum@idFileSystemLocal@@UAEHHQAD_N@Z 0044f360 f   FileSystem.obj
 0001:0004e620       ?WriteFile@idFileSystemLocal@@UAEHPBDPBXH0@Z 0044f620 f   FileSystem.obj
 0001:0004e6c0       ??0idKey@@QAE@XZ           0044f6c0 f i KeyInput.obj
 0001:0004e6f0       ??1idKey@@QAE@XZ           0044f6f0 f i KeyInput.obj
 0001:0004e730       ?ArgCompletion_KeyName@idKeyInput@@SAXABVidCmdArgs@@P6AXPBD@Z@Z 0044f730 f   KeyInput.obj
 0001:0004e7a0       ?BindingFromKey@idKeyInput@@SAPBDPBD@Z 0044f7a0 f   KeyInput.obj
 0001:0004e7d0       ?ClearStates@idKeyInput@@SAXXZ 0044f7d0 f   KeyInput.obj
 0001:0004e810       ?ExecKeyBinding@idKeyInput@@SA_NH@Z 0044f810 f   KeyInput.obj
 0001:0004e850       ?GetOverstrikeMode@idKeyInput@@SA_NXZ 0044f850 f   KeyInput.obj
 0001:0004e860       ?GetUsercmdAction@idKeyInput@@SAHH@Z 0044f860 f   KeyInput.obj
 0001:0004e870       ?Init@idKeyInput@@SAXXZ    0044f870 f   KeyInput.obj
 0001:0004e990       ?IsDown@idKeyInput@@SA_NH@Z 0044f990 f   KeyInput.obj
 0001:0004e9b0       ?KeyIsBoundTo@idKeyInput@@SA_NHPBD@Z 0044f9b0 f   KeyInput.obj
 0001:0004e9e0       ?KeyNumToString@idKeyInput@@SAPBDH_N@Z 0044f9e0 f   KeyInput.obj
 0001:0004eaf0       ?Key_BindUnBindTwo_f@@YAXABVidCmdArgs@@@Z 0044faf0 f   KeyInput.obj
 0001:0004ec50       ?Key_Bind_f@@YAXABVidCmdArgs@@@Z 0044fc50 f   KeyInput.obj
 0001:0004ede0       ?Key_ListBinds_f@@YAXABVidCmdArgs@@@Z 0044fde0 f   KeyInput.obj
 0001:0004eee0       ?Key_Unbind_f@@YAXABVidCmdArgs@@@Z 0044fee0 f   KeyInput.obj
 0001:0004ef60       ?Key_Unbindall_f@@YAXABVidCmdArgs@@@Z 0044ff60 f   KeyInput.obj
 0001:0004efd0       ?KeysFromBinding@idKeyInput@@SAPBDPBD@Z 0044ffd0 f   KeyInput.obj
 0001:0004f0c0       ?NumBinds@idKeyInput@@SAHPBD@Z 004500c0 f   KeyInput.obj
 0001:0004f110       ?PreliminaryKeyEvent@idKeyInput@@SAXH_N@Z 00450110 f   KeyInput.obj
 0001:0004f1c0       ?SetBinding@idKeyInput@@SAXHPBD@Z 004501c0 f   KeyInput.obj
 0001:0004f220       ?SetOverstrikeMode@idKeyInput@@SAX_N@Z 00450220 f   KeyInput.obj
 0001:0004f230       ?Shutdown@idKeyInput@@SAXXZ 00450230 f   KeyInput.obj
 0001:0004f2a0       ?StringToKeyNum@idKeyInput@@SAHPBD@Z 004502a0 f   KeyInput.obj
 0001:0004f370       ?UnbindBinding@idKeyInput@@SA_NPBD@Z 00450370 f   KeyInput.obj
 0001:0004f410       ?WriteBindings@idKeyInput@@SAXPAVidFile@@@Z 00450410 f   KeyInput.obj
 0001:0004f540       ??1idSession@@UAE@XZ       00450540 f i Session.obj
 0001:0004f550       ??1idSessionLocal@@UAE@XZ  00450550 f   Session.obj
 0001:0004f6a0       ??1mapSpawnData_t@@QAE@XZ  004506a0 f i Session.obj
 0001:0004f780       ??YidStr@@QAEAAV0@PBD@Z    00450780 f i Session.obj
 0001:0004f7f0       ??_EidSession@@UAEPAXI@Z   004507f0 f i Session.obj
 0001:0004f7f0       ??_GidSession@@UAEPAXI@Z   004507f0 f i Session.obj
 0001:0004f820       ??_EidSessionLocal@@UAEPAXI@Z 00450820 f i Session.obj
 0001:0004f820       ??_GidSessionLocal@@UAEPAXI@Z 00450820 f i Session.obj
 0001:0004f850       ?AdvanceRenderDemo@idSessionLocal@@QAEX_N@Z 00450850 f   Session.obj
 0001:0004f9e0       ?ArgCompletion_DemoName@idCmdSystem@@SAXABVidCmdArgs@@P6AXPBD@Z@Z 004509e0 f i Session.obj
 0001:0004fa10       ?ArgCompletion_SaveGame@idCmdSystem@@SAXABVidCmdArgs@@P6AXPBD@Z@Z 00450a10 f i Session.obj
 0001:0004fa40       ?BeginAVICapture@idSessionLocal@@QAEXPBD@Z 00450a40 f   Session.obj
 0001:0004fb30       ?CDKeysAreValid@idSessionLocal@@UAE_N_N@Z 00450b30 f   Session.obj
 0001:0004fb40       ?CDKeysAuthReply@idSessionLocal@@UAEX_NPBD@Z 00450b40 f   Session.obj
 0001:0004fbf0       ?CheckKey@idSessionLocal@@UAE_NPBD_NQA_N@Z 00450bf0 f   Session.obj
 0001:0004fc00       ?Clear@idSessionLocal@@QAEXXZ 00450c00 f   Session.obj
 0001:0004fec0       ?ClearCDKey@idSessionLocal@@UAEXQA_N@Z 00450ec0 f   Session.obj
 0001:0004ff40       ?CompressDemoFile@idSessionLocal@@QAEXPBD0@Z 00450f40 f   Session.obj
 0001:000502b0       ?Draw@idSessionLocal@@QAEXXZ 004512b0 f   Session.obj
 0001:000508d0       ?EndAVICapture@idSessionLocal@@QAEXXZ 004518d0 f   Session.obj
 0001:000509b0       ?ExecuteMapChange@idSessionLocal@@QAEX_N@Z 004519b0 f   Session.obj
 0001:00051730       ?Frame@idSessionLocal@@UAEXXZ 00452730 f   Session.obj
 0001:00051c90       ?GetAutoSaveName@idSessionLocal@@QBE?AVidStr@@PBD@Z 00452c90 f   Session.obj
 0001:00051d50       ?GetBool@idDict@@QBE_NPBD0@Z 00452d50 f i Session.obj
 0001:00051d90       ?GetCDKey@idSessionLocal@@UAEPBD_N@Z 00452d90 f   Session.obj
 0001:00051dc0       ?GetCurrentMapName@idSessionLocal@@UAEPBDXZ 00452dc0 f   Session.obj
 0001:00051dd0       ?GetLocalClientNum@idSessionLocal@@QAEHXZ 00452dd0 f   Session.obj
 0001:00051e20       ?GetSaveGameVersion@idSessionLocal@@UAEHXZ 00452e20 f   Session.obj
 0001:00051e30       ?Init@idSessionLocal@@UAEXXZ 00452e30 f   Session.obj
 0001:00052330       ?IsMultiplayer@idSessionLocal@@UAE_NXZ 00453330 f   Session.obj
 0001:00052350       ?LoadCmdDemoFromFile@idSessionLocal@@QAEXPAVidFile@@@Z 00453350 f   Session.obj
 0001:000523b0       ?LoadGame@idSessionLocal@@QAE_NPBD@Z 004533b0 f   Session.obj
 0001:00052950       ?LoadGame_f@@YAXABVidCmdArgs@@@Z 00453950 f   Session.obj
 0001:00052a80       ?MoveToNewMap@idSessionLocal@@QAEXPBD@Z 00453a80 f   Session.obj
 0001:00052be0       ?PacifierUpdate@idSessionLocal@@UAEXXZ 00453be0 f   Session.obj
 0001:00052cf0       ?ProcessEvent@idSessionLocal@@UAE_NPBUsysEvent_s@@@Z 00453cf0 f   Session.obj
 0001:00052e40       ?ReadCDKey@idSessionLocal@@UAEXXZ 00453e40 f   Session.obj
 0001:00052fd0       ?RemoveSaveGame_f@@YAXABVidCmdArgs@@@Z 00453fd0 f   Session.obj
 0001:00053260       ?RunGameTic@idSessionLocal@@QAEXXZ 00454260 f   Session.obj
 0001:00053660       ?SaveGame@idSessionLocal@@QAE_NPBD_N@Z 00454660 f   Session.obj
 0001:00053c40       ?SaveGame_f@@YAXABVidCmdArgs@@@Z 00454c40 f   Session.obj
 0001:00053e80       ?ScrubSaveGameFileName@idSessionLocal@@QBEXAAVidStr@@@Z 00454e80 f   Session.obj
 0001:000546d0       ?Session_Hitch_f@@YAXABVidCmdArgs@@@Z 004556d0 f   Session.obj
 0001:00054d10       ?Session_RescanSI_f@@YAXABVidCmdArgs@@@Z 00455d10 f   Session.obj
 0001:00055150       ?SetBytesNeededForMapLoad@idSessionLocal@@QAEXPBDH@Z 00456150 f   Session.obj
 0001:000554e0       ?SetPlayingSoundWorld@idSessionLocal@@UAEXXZ 004564e0 f   Session.obj
 0001:00055540       ?Shutdown@idSessionLocal@@UAEXXZ 00456540 f   Session.obj
 0001:00055600       ?StartNewGame@idSessionLocal@@QAEXPBD_N@Z 00456600 f   Session.obj
 0001:00055770       ?StartPlayingCmdDemo@idSessionLocal@@QAEXPBD@Z 00456770 f   Session.obj
 0001:000558e0       ?StartPlayingRenderDemo@idSessionLocal@@QAEXVidStr@@@Z 004568e0 f   Session.obj
 0001:00055ac0       ?StartRecordingRenderDemo@idSessionLocal@@QAEXPBD@Z 00456ac0 f   Session.obj
 0001:00055c00       ?StartWipe@idSessionLocal@@QAEXPBD_N@Z 00456c00 f   Session.obj
 0001:00055cb0       ?Stop@idSessionLocal@@UAEXXZ 00456cb0 f   Session.obj
 0001:00055d20       ?StopRecordingRenderDemo@idSessionLocal@@QAEXXZ 00456d20 f   Session.obj
 0001:00055da0       ?TakeNotes@idSessionLocal@@QAEXPBD_N@Z 00456da0 f   Session.obj
 0001:00056010       ?TakeViewNotes2_f@@YAXABVidCmdArgs@@@Z 00457010 f   Session.obj
 0001:00056040       ?TakeViewNotes_f@@YAXABVidCmdArgs@@@Z 00457040 f   Session.obj
 0001:00056070       ?TimeHitch@idSessionLocal@@UAEXH@Z 00457070 f   Session.obj
 0001:00056080       ?TimeRenderDemo@idSessionLocal@@QAEXPBD_N@Z 00457080 f   Session.obj
 0001:00056270       ?UnloadMap@idSessionLocal@@QAEXXZ 00457270 f   Session.obj
 0001:00056450       ?UpdateScreen@idSessionLocal@@UAEX_N@Z 00457450 f   Session.obj
 0001:00056500       ?WaitingForGameAuth@idSessionLocal@@UAE_NXZ 00457500 f   Session.obj
 0001:00056510       ?WriteCDKey@idSessionLocal@@UAEXXZ 00457510 f   Session.obj
 0001:00056660       ?WriteCmdDemo@idSessionLocal@@QAEXPBD_N@Z 00457660 f   Session.obj
 0001:00056860       ?BoxDialogSanityCheck@idSessionLocal@@AAE_NXZ 00457860 f   Session_menu.obj
 0001:000568f0       ?DispatchCommand@idSessionLocal@@QAEXPAVidUserInterface@@PBD_N@Z 004578f0 f   Session_menu.obj
 0001:00056cf0       ?DownloadProgressBox@idSessionLocal@@UAEXPAUbackgroundDownload_s@@PBDHH@Z 00457cf0 f   Session_menu.obj
 0001:000571e0       ?ExitMenu@idSessionLocal@@UAEXXZ 004581e0 f   Session_menu.obj
 0001:00057220       ?GetInt@idDict@@QBEHPBD0@Z 00458220 f i Session_menu.obj
 0001:00057250       ?GetSaveGameList@idSessionLocal@@QAEXAAV?$idList@VidStr@@@@AAV?$idList@UfileTIME_T@@@@@Z 00458250 f   Session_menu.obj
 0001:000575e0       ?GuiFrameEvents@idSessionLocal@@UAEXXZ 004585e0 f   Session_menu.obj
 0001:000576c0       ?HandleMainMenuCommands@idSessionLocal@@QAEXPBD@Z 004586c0 f   Session_menu.obj
 0001:00059010       ?HandleMsgCommands@idSessionLocal@@QAEXPBD@Z 0045a010 f   Session_menu.obj
 0001:00059140       ?HandleNoteCommands@idSessionLocal@@QAEXPBD@Z 0045a140 f   Session_menu.obj
 0001:00059d20       ?HandleRestartMenuCommands@idSessionLocal@@QAEXPBD@Z 0045ad20 f   Session_menu.obj
 0001:0005a000       ?HandleSaveGameMenuCommand@idSessionLocal@@QAE_NAAVidCmdArgs@@AAH@Z 0045b000 f   Session_menu.obj
 0001:0005a7e0       ?MenuEvent@idSessionLocal@@QAEXPBUsysEvent_s@@@Z 0045b7e0 f   Session_menu.obj
 0001:0005a970       ?MessageBoxA@idSessionLocal@@UAEPBDW4msgBoxType_t@@PBD1_N112@Z 0045b970 f   Session_menu.obj
 0001:0005b0f0       ?ReloadMaterialImages@idSessionLocal@@UAEXPBD@Z 0045c0f0 f   Session_menu.obj
 0001:0005b120       ?Right@idStr@@QBE?AV1@H@Z  0045c120 f i Session_menu.obj
 0001:0005b160       ?SetCDKeyGuiVars@idSessionLocal@@UAEXXZ 0045c160 f   Session_menu.obj
 0001:0005b1f0       ?SetGUI@idSessionLocal@@UAEXPAVidUserInterface@@P6APBDPBD@Z@Z 0045c1f0 f   Session_menu.obj
 0001:0005b320       ?SetGUIActive@idSessionLocal@@UAEXPAVidUserInterface@@@Z 0045c320 f   Session_menu.obj
 0001:0005b330       ?SetMainMenuGuiVars@idSessionLocal@@QAEXXZ 0045c330 f   Session_menu.obj
 0001:0005b7d0       ?SetMainMenuSkin@idSessionLocal@@QAEXXZ 0045c7d0 f   Session_menu.obj
 0001:0005bae0       ?SetSaveGameGuiVars@idSessionLocal@@QAEXXZ 0045cae0 f   Session_menu.obj
 0001:0005bf20       ?StartMenu@idSessionLocal@@UAEX_N@Z 0045cf20 f   Session_menu.obj
 0001:0005bfd0       ?StopBox@idSessionLocal@@UAEXXZ 0045cfd0 f   Session_menu.obj
 0001:0005bff0       ?idListSaveGameCompare@@YAHPBUfileTIME_T@@0@Z 0045cff0 f i Session_menu.obj
 0001:0005c000       ?adler32@@YAKKPBEI@Z       0045d000 f   Unzip.obj
 0001:0005c130       ?crc32@@YAKKPBEI@Z         0045d130 f   Unzip.obj
 0001:0005c6a0       ?inflate@@YAHPAUz_stream_s@@H@Z 0045d6a0 f   Unzip.obj
 0001:0005ca90       ?inflateEnd@@YAHPAUz_stream_s@@@Z 0045da90 f   Unzip.obj
 0001:0005cb70       ?inflateInit2_@@YAHPAUz_stream_s@@HPBDH@Z 0045db70 f   Unzip.obj
 0001:0005cda0       ?inflateReset@@YAHPAUz_stream_s@@@Z 0045dda0 f   Unzip.obj
 0001:0005cdf0       ?inflate_blocks@@YAHPAUinflate_blocks_state@@PAUz_stream_s@@H@Z 0045ddf0 f   Unzip.obj
 0001:0005de90       ?inflate_blocks_reset@@YAXPAUinflate_blocks_state@@PAUz_stream_s@@PAK@Z 0045ee90 f   Unzip.obj
 0001:0005df10       ?inflate_codes@@YAHPAUinflate_blocks_state@@PAUz_stream_s@@H@Z 0045ef10 f   Unzip.obj
 0001:0005e5d0       ?inflate_fast@@YAHIIPAUinflate_huft_s@@0PAUinflate_blocks_state@@PAUz_stream_s@@@Z 0045f5d0 f   Unzip.obj
 0001:0005e960       ?inflate_flush@@YAHPAUinflate_blocks_state@@PAUz_stream_s@@H@Z 0045f960 f   Unzip.obj
 0001:0005ea70       ?unzClose@@YAHPAX@Z        0045fa70 f   Unzip.obj
 0001:0005eab0       ?unzCloseCurrentFile@@YAHPAX@Z 0045fab0 f   Unzip.obj
 0001:0005eb30       ?unzGetCurrentFileInfo@@YAHPAXPAUunz_file_info_s@@PADK0K2K@Z 0045fb30 f   Unzip.obj
 0001:0005eb60       ?unzGetCurrentFileInfoPosition@@YAHPAXPAK@Z 0045fb60 f   Unzip.obj
 0001:0005eb80       ?unzGetGlobalInfo@@YAHPAXPAUunz_global_info_s@@@Z 0045fb80 f   Unzip.obj
 0001:0005eba0       ?unzGoToFirstFile@@YAHPAX@Z 0045fba0 f   Unzip.obj
 0001:0005ebf0       ?unzGoToNextFile@@YAHPAX@Z 0045fbf0 f   Unzip.obj
 0001:0005ec60       ?unzOpen@@YAPAXPBD@Z       0045fc60 f   Unzip.obj
 0001:0005ef20       ?unzOpenCurrentFile@@YAHPAX@Z 0045ff20 f   Unzip.obj
 0001:0005f060       ?unzReOpen@@YAPAXPBDPAX@Z  00460060 f   Unzip.obj
 0001:0005f0b0       ?unzReadCurrentFile@@YAHPAX0I@Z 004600b0 f   Unzip.obj
 0001:0005f260       ?unzSetCurrentFileInfoPosition@@YAHPAXK@Z 00460260 f   Unzip.obj
 0001:0005f980       ?unztell@@YAJPAX@Z         00460980 f   Unzip.obj
 0001:0005f9a0       ?zcalloc@@YAPAEPAEII@Z     004609a0 f   Unzip.obj
 0001:0005f9c0       ?zcfree@@YAXPAE0@Z         004609c0 f   Unzip.obj
 0001:0005f9d0       ??$ArgCompletion_Integer@$00$07@idCmdSystem@@SAXABVidCmdArgs@@P6AXPBD@Z@Z 004609d0 f i UsercmdGen.obj
 0001:0005fa10       ??_EidUsercmdGen@@UAEPAXI@Z 00460a10 f i UsercmdGen.obj
 0001:0005fa10       ??_GidUsercmdGen@@UAEPAXI@Z 00460a10 f i UsercmdGen.obj
 0001:0005fa40       ??_EidUsercmdGenLocal@@UAEPAXI@Z 00460a40 f i UsercmdGen.obj
 0001:0005fa40       ??_GidUsercmdGenLocal@@UAEPAXI@Z 00460a40 f i UsercmdGen.obj
 0001:0005fa70       ?ButtonState@idUsercmdGenLocal@@UAEHH@Z 00460a70 f   UsercmdGen.obj
 0001:0005fa90       ?ByteSwap@usercmd_t@@QAEXXZ 00460a90 f   UsercmdGen.obj
 0001:0005fad0       ?Clear@idUsercmdGenLocal@@UAEXXZ 00460ad0 f   UsercmdGen.obj
 0001:0005fb30       ?ClearAngles@idUsercmdGenLocal@@UAEXXZ 00460b30 f   UsercmdGen.obj
 0001:0005fb50       ?CommandStringUsercmdData@idUsercmdGenLocal@@UAEHPBD@Z 00460b50 f   UsercmdGen.obj
 0001:0005fb90       ?GetDirectUsercmd@idUsercmdGenLocal@@UAE?AVusercmd_t@@XZ 00460b90 f   UsercmdGen.obj
 0001:0005fbf0       ?GetNumUserCommands@idUsercmdGenLocal@@UAEHXZ 00460bf0 f   UsercmdGen.obj
 0001:0005fc00       ?GetUserCommandName@idUsercmdGenLocal@@UAEPBDH@Z 00460c00 f   UsercmdGen.obj
 0001:0005fc20       ?InhibitUsercmd@idUsercmdGenLocal@@UAEXW4inhibit_t@@_N@Z 00460c20 f   UsercmdGen.obj
 0001:0005fc50       ?Init@idUsercmdGenLocal@@UAEXXZ 00460c50 f   UsercmdGen.obj
 0001:0005fc60       ?InitCurrent@idUsercmdGenLocal@@AAEXXZ 00460c60 f   UsercmdGen.obj
 0001:0005fcd0       ?InitForNewMap@idUsercmdGenLocal@@UAEXXZ 00460cd0 f   UsercmdGen.obj
 0001:0005fd30       ?Key@idUsercmdGenLocal@@AAEXH_N@Z 00460d30 f   UsercmdGen.obj
 0001:0005fdb0       ?KeyState@idUsercmdGenLocal@@UAEHH@Z 00460db0 f   UsercmdGen.obj
 0001:0005fde0       ?Keyboard@idUsercmdGenLocal@@AAEXXZ 00460de0 f   UsercmdGen.obj
 0001:0005fea0       ?MakeCurrent@idUsercmdGenLocal@@AAEXXZ 00460ea0 f   UsercmdGen.obj
 0001:00060470       ?Mouse@idUsercmdGenLocal@@AAEXXZ 00461470 f   UsercmdGen.obj
 0001:000605f0       ?MouseMove@idUsercmdGenLocal@@AAEXXZ 004615f0 f   UsercmdGen.obj
 0001:00060980       ?MouseState@idUsercmdGenLocal@@UAEXPAH00PA_N@Z 00461980 f   UsercmdGen.obj
 0001:000609c0       ?Shutdown@idUsercmdGenLocal@@UAEXXZ 004619c0 f   UsercmdGen.obj
 0001:000609d0       ?TicCmd@idUsercmdGenLocal@@UAE?AVusercmd_t@@H@Z 004619d0 f   UsercmdGen.obj
 0001:00060a20       ?UsercmdInterrupt@idUsercmdGenLocal@@UAEXXZ 00461a20 f   UsercmdGen.obj
 0001:00060a90       ?WeirdFix@idUsercmdGenLocal@@UAEXXZ 00461a90 f   UsercmdGen.obj
 0001:00060aa0       ??0idAsyncClient@@QAE@XZ   00461aa0 f   AsyncClient.obj
 0001:00060bf0       ??0idLangKeyValue@@QAE@XZ  00461bf0 f i idLib:LangDict.obj
 0001:00060bf0       ??0pakDlEntry_t@@QAE@XZ    00461bf0 f i AsyncClient.obj
 0001:00060c30       ??1idServerScan@@QAE@XZ    00461c30 f i AsyncClient.obj
 0001:00060d50       ??1networkServer_t@@QAE@XZ 00461d50 f i AsyncClient.obj
 0001:00060dc0       ??4pakDlEntry_t@@QAEAAU0@ABU0@@Z 00461dc0 f i AsyncClient.obj
 0001:00060e40       ?Append@?$idList@UpakDlEntry_t@@@@QAEHABUpakDlEntry_t@@@Z 00461e40 f i AsyncClient.obj
 0001:00060eb0       ?Clear@?$idList@UpakDlEntry_t@@@@QAEXXZ 00461eb0 f i AsyncClient.obj
 0001:00060f30       ?Clear@idAsyncClient@@AAEXXZ 00461f30 f   AsyncClient.obj
 0001:00061090       ?ClearPendingPackets@idAsyncClient@@AAEXXZ 00462090 f   AsyncClient.obj
 0001:000610d0       ?ClearServers@idAsyncClient@@QAEXXZ 004620d0 f   AsyncClient.obj
 0001:000610e0       ?ClosePort@idAsyncClient@@QAEXXZ 004620e0 f   AsyncClient.obj
 0001:000610f0       ?ConnectToServer@idAsyncClient@@QAEXPBD@Z 004620f0 f   AsyncClient.obj
 0001:00061250       ?ConnectToServer@idAsyncClient@@QAEXUnetadr_t@@@Z 00462250 f   AsyncClient.obj
 0001:00061380       ?ConnectionlessMessage@idAsyncClient@@AAEXUnetadr_t@@ABVidBitMsg@@@Z 00462380 f   AsyncClient.obj
 0001:00061a50       ?DisconnectFromServer@idAsyncClient@@QAEXXZ 00462a50 f   AsyncClient.obj
 0001:00061b30       ?GetIncomingCompression@idAsyncClient@@QBEMXZ 00462b30 f   AsyncClient.obj
 0001:00061b50       ?GetIncomingPacketLoss@idAsyncClient@@QBEMXZ 00462b50 f   AsyncClient.obj
 0001:00061b70       ?GetIncomingRate@idAsyncClient@@QBEHXZ 00462b70 f   AsyncClient.obj
 0001:00061b90       ?GetLANServers@idAsyncClient@@QAEXXZ 00462b90 f   AsyncClient.obj
 0001:00061c70       ?GetNETServers@idAsyncClient@@QAEXXZ 00462c70 f   AsyncClient.obj
 0001:00061db0       ?GetOutgoingCompression@idAsyncClient@@QBEMXZ 00462db0 f   AsyncClient.obj
 0001:00061dd0       ?GetOutgoingRate@idAsyncClient@@QBEHXZ 00462dd0 f   AsyncClient.obj
 0001:00061df0       ?GetPrediction@idAsyncClient@@QBEHXZ 00462df0 f   AsyncClient.obj
 0001:00061e10       ?GetServerInfo@idAsyncClient@@QAEXPBD@Z 00462e10 f   AsyncClient.obj
 0001:00061ef0       ?GetServerInfo@idAsyncClient@@QAEXUnetadr_t@@@Z 00462ef0 f   AsyncClient.obj
 0001:00061f90       ?GetTimeSinceLastPacket@idAsyncClient@@QBEHXZ 00462f90 f   AsyncClient.obj
 0001:00061fb0       ?HandleDownloads@idAsyncClient@@AAEXXZ 00462fb0 f   AsyncClient.obj
 0001:00062a10       ?HandleGuiCommand@idAsyncClient@@CAPBDPBD@Z 00463a10 f   AsyncClient.obj
 0001:00062a80       ?InitGame@idAsyncClient@@AAEXHHHABVidDict@@@Z 00463a80 f   AsyncClient.obj
 0001:00062b00       ?InitPort@idAsyncClient@@QAE_NXZ 00463b00 f   AsyncClient.obj
 0001:00062b60       ?ListServers@idAsyncClient@@QAEXXZ 00463b60 f   AsyncClient.obj
 0001:00062c00       ?PacifierUpdate@idAsyncClient@@QAEXXZ 00463c00 f   AsyncClient.obj
 0001:00062c30       ?ProcessAuthKeyMessage@idAsyncClient@@AAEXUnetadr_t@@ABVidBitMsg@@@Z 00463c30 f   AsyncClient.obj
 0001:00063010       ?ProcessChallengeResponseMessage@idAsyncClient@@AAEXUnetadr_t@@ABVidBitMsg@@@Z 00464010 f   AsyncClient.obj
 0001:00063230       ?ProcessConnectResponseMessage@idAsyncClient@@AAEXUnetadr_t@@ABVidBitMsg@@@Z 00464230 f   AsyncClient.obj
 0001:00063480       ?ProcessDownloadInfoMessage@idAsyncClient@@AAEXUnetadr_t@@ABVidBitMsg@@@Z 00464480 f   AsyncClient.obj
 0001:00063a00       ?ProcessInfoResponseMessage@idAsyncClient@@AAEXUnetadr_t@@ABVidBitMsg@@@Z 00464a00 f   AsyncClient.obj
 0001:00063cc0       ?ProcessPrintMessage@idAsyncClient@@AAEXUnetadr_t@@ABVidBitMsg@@@Z 00464cc0 f   AsyncClient.obj
 0001:00063e90       ?ProcessPureMessage@idAsyncClient@@AAEXUnetadr_t@@ABVidBitMsg@@@Z 00464e90 f   AsyncClient.obj
 0001:00063ff0       ?ProcessReliableMessagePure@idAsyncClient@@AAEXABVidBitMsg@@@Z 00464ff0 f   AsyncClient.obj
 0001:00064160       ?ProcessReliableServerMessages@idAsyncClient@@AAEXXZ 00465160 f   AsyncClient.obj
 0001:00064510       ?ProcessUnreliableServerMessage@idAsyncClient@@AAEXABVidBitMsg@@@Z 00465510 f   AsyncClient.obj
 0001:00064ac0       ?Reconnect@idAsyncClient@@QAEXXZ 00465ac0 f   AsyncClient.obj
 0001:00064ae0       ?RemoteConsole@idAsyncClient@@QAEXPBD@Z 00465ae0 f   AsyncClient.obj
 0001:00064c10       ?RemoveIndex@?$idList@UpakDlEntry_t@@@@QAE_NH@Z 00465c10 f i AsyncClient.obj
 0001:00064ce0       ?Resize@?$idList@UpakDlEntry_t@@@@QAEXH@Z 00465ce0 f i AsyncClient.obj
 0001:00064ee0       ?RunFrame@idAsyncClient@@QAEXXZ 00465ee0 f   AsyncClient.obj
 0001:000654c0       ?SendEmptyToServer@idAsyncClient@@AAEX_N0@Z 004664c0 f   AsyncClient.obj
 0001:00065600       ?SendPingResponseToServer@idAsyncClient@@AAEXH@Z 00466600 f   AsyncClient.obj
 0001:00065700       ?SendReliableGameMessage@idAsyncClient@@QAEXABVidBitMsg@@@Z 00466700 f   AsyncClient.obj
 0001:00065790       ?SendUserInfoToServer@idAsyncClient@@AAEXXZ 00466790 f   AsyncClient.obj
 0001:000658c0       ?SendUsercmdsToServer@idAsyncClient@@AAEXXZ 004668c0 f   AsyncClient.obj
 0001:00065ac0       ?SendVersionCheck@idAsyncClient@@QAEX_N@Z 00466ac0 f   AsyncClient.obj
 0001:00065c10       ?SendVersionDLUpdate@idAsyncClient@@AAEXH@Z 00466c10 f   AsyncClient.obj
 0001:00065cc0       ?SetupConnection@idAsyncClient@@AAEXXZ 00466cc0 f   AsyncClient.obj
 0001:00066050       ?Shutdown@idAsyncClient@@QAEXXZ 00467050 f   AsyncClient.obj
 0001:000661d0       ?ValidatePureServerChecksums@idAsyncClient@@AAE_NUnetadr_t@@ABVidBitMsg@@@Z 004671d0 f   AsyncClient.obj
 0001:00066750       ??$ArgCompletion_Integer@$00$09@idCmdSystem@@SAXABVidCmdArgs@@P6AXPBD@Z@Z 00467750 f i AsyncNetwork.obj
 0001:00066790       ??1challenge_s@@QAE@XZ     00467790 f i AsyncNetwork.obj
 0001:000667d0       ??1idAsyncClient@@QAE@XZ   004677d0 f i AsyncNetwork.obj
 0001:000669b0       ?BuildInvalidKeyMsg@idAsyncNetwork@@SAXAAVidStr@@QA_N@Z 004679b0 f   AsyncNetwork.obj
 0001:00066b50       ?CheckNewVersion_f@idAsyncNetwork@@CAXABVidCmdArgs@@@Z 00467b50 f   AsyncNetwork.obj
 0001:00066b60       ?Connect_f@idAsyncNetwork@@CAXABVidCmdArgs@@@Z 00467b60 f   AsyncNetwork.obj
 0001:00066bd0       ?DuplicateUsercmd@idAsyncNetwork@@SA_NABVusercmd_t@@AAV2@HH@Z 00467bd0 f   AsyncNetwork.obj
 0001:00066c50       ?ExecuteSessionCommand@idAsyncNetwork@@SAXPBD@Z 00467c50 f   AsyncNetwork.obj
 0001:00066c90       ?GetLANServers_f@idAsyncNetwork@@CAXABVidCmdArgs@@@Z 00467c90 f   AsyncNetwork.obj
 0001:00066ca0       ?GetMasterAddress@idAsyncNetwork@@SA?AUnetadr_t@@XZ 00467ca0 f   AsyncNetwork.obj
 0001:00066d70       ?GetMasterAddress@idAsyncNetwork@@SA_NHAAUnetadr_t@@@Z 00467d70 f   AsyncNetwork.obj
 0001:00066e80       ?GetNETServers@idAsyncNetwork@@SAXXZ 00467e80 f   AsyncNetwork.obj
 0001:00066e90       ?GetServerInfo_f@idAsyncNetwork@@CAXABVidCmdArgs@@@Z 00467e90 f   AsyncNetwork.obj
 0001:00066ec0       ?Heartbeat_f@idAsyncNetwork@@CAXABVidCmdArgs@@@Z 00467ec0 f   AsyncNetwork.obj
 0001:00066f30       ?Init@idAsyncNetwork@@SAXXZ 00467f30 f   AsyncNetwork.obj
 0001:000670f0       ?Kick_f@idAsyncNetwork@@CAXABVidCmdArgs@@@Z 004680f0 f   AsyncNetwork.obj
 0001:000671e0       ?ListServers_f@idAsyncNetwork@@CAXABVidCmdArgs@@@Z 004681e0 f   AsyncNetwork.obj
 0001:000671f0       ?NextMap_f@idAsyncNetwork@@CAXABVidCmdArgs@@@Z 004681f0 f   AsyncNetwork.obj
 0001:00067200       ?ReadUserCmdDelta@idAsyncNetwork@@SAXABVidBitMsg@@AAVusercmd_t@@PBV3@@Z 00468200 f   AsyncNetwork.obj
 0001:00067350       ?Reconnect_f@idAsyncNetwork@@CAXABVidCmdArgs@@@Z 00468350 f   AsyncNetwork.obj
 0001:00067360       ?RemoteConsole_f@idAsyncNetwork@@CAXABVidCmdArgs@@@Z 00468360 f   AsyncNetwork.obj
 0001:00067380       ?RunFrame@idAsyncNetwork@@SAXXZ 00468380 f   AsyncNetwork.obj
 0001:000673d0       ?Shutdown@idAsyncNetwork@@SAXXZ 004683d0 f   AsyncNetwork.obj
 0001:00067410       ?SpawnServer_f@idAsyncNetwork@@CAXABVidCmdArgs@@@Z 00468410 f   AsyncNetwork.obj
 0001:00067540       ?UpdateUI_f@idAsyncNetwork@@CAXABVidCmdArgs@@@Z 00468540 f   AsyncNetwork.obj
 0001:000675a0       ?UsercmdInputChanged@idAsyncNetwork@@SA_NABVusercmd_t@@0@Z 004685a0 f   AsyncNetwork.obj
 0001:000675f0       ?WriteUserCmdDelta@idAsyncNetwork@@SAXAAVidBitMsg@@ABVusercmd_t@@PBV3@@Z 004685f0 f   AsyncNetwork.obj
 0001:00067750       ??0challenge_s@@QAE@XZ     00468750 f i AsyncServer.obj
 0001:00067770       ??0idAsyncServer@@QAE@XZ   00468770 f   AsyncServer.obj
 0001:000678e0       ??0serverClient_s@@QAE@XZ  004688e0 f i AsyncServer.obj
 0001:000678f0       ?ClearClient@idAsyncServer@@AAEXH@Z 004688f0 f   AsyncServer.obj
 0001:000679c0       ?ClosePort@idAsyncServer@@QAEXXZ 004689c0 f   AsyncServer.obj
 0001:00067a00       ?ConnectionlessMessage@idAsyncServer@@AAE_NUnetadr_t@@ABVidBitMsg@@@Z 00468a00 f   AsyncServer.obj
 0001:00067f00       ?DropClient@idAsyncServer@@QAEXHPBD@Z 00468f00 f   AsyncServer.obj
 0001:00068050       ?DuplicateUsercmds@idAsyncServer@@AAEXHH@Z 00469050 f   AsyncServer.obj
 0001:000680d0       ?ExecuteMapChange@idAsyncServer@@QAEXXZ 004690d0 f   AsyncServer.obj
 0001:00068600       ?GetAsyncStatsAvgMsg@idAsyncServer@@QAEXAAVidStr@@@Z 00469600 f   AsyncServer.obj
 0001:00068650       ?GetClientIncomingCompression@idAsyncServer@@QBEMH@Z 00469650 f   AsyncServer.obj
 0001:00068680       ?GetClientIncomingPacketLoss@idAsyncServer@@QBEMH@Z 00469680 f   AsyncServer.obj
 0001:000686b0       ?GetClientIncomingRate@idAsyncServer@@QBEHH@Z 004696b0 f   AsyncServer.obj
 0001:000686e0       ?GetClientOutgoingCompression@idAsyncServer@@QBEMH@Z 004696e0 f   AsyncServer.obj
 0001:00068710       ?GetClientOutgoingRate@idAsyncServer@@QBEHH@Z 00469710 f   AsyncServer.obj
 0001:00068740       ?GetClientPing@idAsyncServer@@QBEHH@Z 00469740 f   AsyncServer.obj
 0001:00068770       ?GetClientPrediction@idAsyncServer@@QBEHH@Z 00469770 f   AsyncServer.obj
 0001:000687a0       ?GetClientTimeSinceLastInput@idAsyncServer@@QBEHH@Z 004697a0 f   AsyncServer.obj
 0001:000687d0       ?GetClientTimeSinceLastPacket@idAsyncServer@@QBEHH@Z 004697d0 f   AsyncServer.obj
 0001:00068800       ?GetIncomingRate@idAsyncServer@@QBEHXZ 00469800 f   AsyncServer.obj
 0001:00068860       ?GetNumClients@idAsyncServer@@QBEHXZ 00469860 f   AsyncServer.obj
 0001:000688c0       ?GetOutgoingRate@idAsyncServer@@QBEHXZ 004698c0 f   AsyncServer.obj
 0001:00068920       ?InitClient@idAsyncServer@@AAEXHHH@Z 00469920 f   AsyncServer.obj
 0001:00068a60       ?InitPort@idAsyncServer@@QAE_NXZ 00469a60 f   AsyncServer.obj
 0001:00068b10       ?IsClientInGame@idAsyncServer@@QBE_NH@Z 00469b10 f   AsyncServer.obj
 0001:00068b30       ?Kill@idAsyncServer@@QAEXXZ 00469b30 f   AsyncServer.obj
 0001:00068bd0       ?LocalClientSendReliableMessage@idAsyncServer@@QAEXABVidBitMsg@@@Z 00469bd0 f   AsyncServer.obj
 0001:00068c00       ?MasterHeartbeat@idAsyncServer@@QAEX_N@Z 00469c00 f   AsyncServer.obj
 0001:00068d40       ?PacifierUpdate@idAsyncServer@@QAEXXZ 00469d40 f   AsyncServer.obj
 0001:00068da0       ?PrintLocalServerInfo@idAsyncServer@@QAEXXZ 00469da0 f   AsyncServer.obj
 0001:00068e90       ?PrintOOB@idAsyncServer@@AAEXUnetadr_t@@HPBD@Z 00469e90 f   AsyncServer.obj
 0001:00068f40       ?ProcessAuthMessage@idAsyncServer@@AAEXABVidBitMsg@@@Z 00469f40 f   AsyncServer.obj
 0001:00069330       ?ProcessChallengeMessage@idAsyncServer@@AAEXUnetadr_t@@ABVidBitMsg@@@Z 0046a330 f   AsyncServer.obj
 0001:000696b0       ?ProcessConnectMessage@idAsyncServer@@AAEXUnetadr_t@@ABVidBitMsg@@@Z 0046a6b0 f   AsyncServer.obj
 0001:0006a0a0       ?ProcessConnectionLessMessages@idAsyncServer@@QAEXXZ 0046b0a0 f   AsyncServer.obj
 0001:0006a190       ?ProcessDownloadRequestMessage@idAsyncServer@@AAEXUnetadr_t@@ABVidBitMsg@@@Z 0046b190 f   AsyncServer.obj
 0001:0006ab70       ?ProcessGetInfoMessage@idAsyncServer@@AAEXUnetadr_t@@ABVidBitMsg@@@Z 0046bb70 f   AsyncServer.obj
 0001:0006ad20       ?ProcessMessage@idAsyncServer@@AAE_NUnetadr_t@@AAVidBitMsg@@@Z 0046bd20 f   AsyncServer.obj
 0001:0006af10       ?ProcessReliableClientMessages@idAsyncServer@@AAEXH@Z 0046bf10 f   AsyncServer.obj
 0001:0006b090       ?ProcessReliablePure@idAsyncServer@@AAEXHABVidBitMsg@@@Z 0046c090 f   AsyncServer.obj
 0001:0006b1f0       ?ProcessUnreliableClientMessage@idAsyncServer@@AAEXHABVidBitMsg@@@Z 0046c1f0 f   AsyncServer.obj
 0001:0006b540       ?RConRedirect@@YAXPBD@Z    0046c540 f   AsyncServer.obj
 0001:0006b580       ?RunFrame@idAsyncServer@@QAEXXZ 0046c580 f   AsyncServer.obj
 0001:0006be90       ?SendApplySnapshotToClient@idAsyncServer@@AAEXHH@Z 0046ce90 f   AsyncServer.obj
 0001:0006bf30       ?SendEmptyToClient@idAsyncServer@@AAE_NH_N@Z 0046cf30 f   AsyncServer.obj
 0001:0006c030       ?SendEnterGameToClient@idAsyncServer@@AAEXH@Z 0046d030 f   AsyncServer.obj
 0001:0006c0c0       ?SendGameInitToClient@idAsyncServer@@AAEXH@Z 0046d0c0 f   AsyncServer.obj
 0001:0006c200       ?SendPingToClient@idAsyncServer@@AAE_NH@Z 0046d200 f   AsyncServer.obj
 0001:0006c300       ?SendPureServerMessage@idAsyncServer@@AAE_NUnetadr_t@@H@Z 0046d300 f   AsyncServer.obj
 0001:0006c440       ?SendReliableGameMessage@idAsyncServer@@QAEXHABVidBitMsg@@@Z 0046d440 f   AsyncServer.obj
 0001:0006c520       ?SendReliableGameMessageExcluding@idAsyncServer@@QAEXHABVidBitMsg@@@Z 0046d520 f   AsyncServer.obj
 0001:0006c5d0       ?SendReliableMessage@idAsyncServer@@AAEXHABVidBitMsg@@@Z 0046d5d0 f   AsyncServer.obj
 0001:0006c620       ?SendReliablePureToClient@idAsyncServer@@AAE_NH@Z 0046d620 f   AsyncServer.obj
 0001:0006c760       ?SendSnapshotToClient@idAsyncServer@@AAE_NH@Z 0046d760 f   AsyncServer.obj
 0001:0006ca40       ?SendSyncedCvarsBroadcast@idAsyncServer@@AAEXABVidDict@@@Z 0046da40 f   AsyncServer.obj
 0001:0006caf0       ?SendSyncedCvarsToClient@idAsyncServer@@AAEXHABVidDict@@@Z 0046daf0 f   AsyncServer.obj
 0001:0006cba0       ?SendUserInfoBroadcast@idAsyncServer@@AAEXHABVidDict@@_N@Z 0046dba0 f   AsyncServer.obj
 0001:0006cd20       ?SendUserInfoToClient@idAsyncServer@@AAEXHHABVidDict@@@Z 0046dd20 f   AsyncServer.obj
 0001:0006cdf0       ?Spawn@idAsyncServer@@QAEXXZ 0046ddf0 f   AsyncServer.obj
 0001:0006cf90       ?UpdateUI@idAsyncServer@@QAEXH@Z 0046df90 f   AsyncServer.obj
 0001:0006cfd0       ?ValidateChallenge@idAsyncServer@@AAEHUnetadr_t@@HH@Z 0046dfd0 f   AsyncServer.obj
 0001:0006d150       ?VerifyChecksumMessage@idAsyncServer@@AAE_NHPBUnetadr_t@@ABVidBitMsg@@AAVidStr@@H@Z 0046e150 f   AsyncServer.obj
 0001:0006d390       ??0idMsgChannel@@QAE@XZ    0046e390 f   MsgChannel.obj
 0001:0006d400       ?Add@idMsgQueue@@QAE_NPBEH@Z 0046e400 f   MsgChannel.obj
 0001:0006d510       ?ClearReliableMessages@idMsgChannel@@QAEXXZ 0046e510 f   MsgChannel.obj
 0001:0006d570       ?Get@idMsgQueue@@QAE_NPAEAAH@Z 0046e570 f   MsgChannel.obj
 0001:0006d640       ?GetIncomingPacketLoss@idMsgChannel@@QBEMXZ 0046e640 f   MsgChannel.obj
 0001:0006d690       ?GetReliableMessage@idMsgChannel@@QAE_NAAVidBitMsg@@@Z 0046e690 f   MsgChannel.obj
 0001:0006d6d0       ?Init@idMsgChannel@@QAEXUnetadr_t@@H@Z 0046e6d0 f   MsgChannel.obj
 0001:0006d7d0       ?Process@idMsgChannel@@QAE_NUnetadr_t@@HAAVidBitMsg@@AAH@Z 0046e7d0 f   MsgChannel.obj
 0001:0006dbc0       ?ReadMessageData@idMsgChannel@@AAE_NAAVidBitMsg@@ABV2@@Z 0046ebc0 f   MsgChannel.obj
 0001:0006dd40       ?ReadyToSend@idMsgChannel@@QBE_NH@Z 0046ed40 f   MsgChannel.obj
 0001:0006dd80       ?ResetRate@idMsgChannel@@QAEXXZ 0046ed80 f   MsgChannel.obj
 0001:0006ddb0       ?SendMessageA@idMsgChannel@@QAEHAAVidPort@@HABVidBitMsg@@@Z 0046edb0 f   MsgChannel.obj
 0001:0006e060       ?SendNextFragment@idMsgChannel@@QAEXAAVidPort@@H@Z 0046f060 f   MsgChannel.obj
 0001:0006e1a0       ?SendReliableMessage@idMsgChannel@@QAE_NABVidBitMsg@@@Z 0046f1a0 f   MsgChannel.obj
 0001:0006e1e0       ?Shutdown@idMsgChannel@@QAEXXZ 0046f1e0 f   MsgChannel.obj
 0001:0006e200       ?UpdateOutgoingRate@idMsgChannel@@AAEXHH@Z 0046f200 f   MsgChannel.obj
 0001:0006e2a0       ?UpdatePacketLoss@idMsgChannel@@AAEXHHH@Z 0046f2a0 f   MsgChannel.obj
 0001:0006e340       ?WriteMessageData@idMsgChannel@@AAEXAAVidBitMsg@@ABV2@@Z 0046f340 f   MsgChannel.obj
 0001:0006e4b0       ?ServerSendReliableMessage@idNetworkSystem@@UAEXHABVidBitMsg@@@Z 0046f4b0 f   NetworkSystem.obj
 0001:0006e4d0       ?ServerSendReliableMessageExcluding@idNetworkSystem@@UAEXHABVidBitMsg@@@Z 0046f4d0 f   NetworkSystem.obj
 0001:0006e4f0       ?ServerGetClientPing@idNetworkSystem@@UAEHH@Z 0046f4f0 f   NetworkSystem.obj
 0001:0006e510       ?ServerGetClientPrediction@idNetworkSystem@@UAEHH@Z 0046f510 f   NetworkSystem.obj
 0001:0006e530       ?ServerGetClientTimeSinceLastPacket@idNetworkSystem@@UAEHH@Z 0046f530 f   NetworkSystem.obj
 0001:0006e550       ?ServerGetClientTimeSinceLastInput@idNetworkSystem@@UAEHH@Z 0046f550 f   NetworkSystem.obj
 0001:0006e570       ?ServerGetClientOutgoingRate@idNetworkSystem@@UAEHH@Z 0046f570 f   NetworkSystem.obj
 0001:0006e590       ?ServerGetClientIncomingRate@idNetworkSystem@@UAEHH@Z 0046f590 f   NetworkSystem.obj
 0001:0006e5b0       ?ServerGetClientIncomingPacketLoss@idNetworkSystem@@UAEMH@Z 0046f5b0 f   NetworkSystem.obj
 0001:0006e5d0       ?ClientSendReliableMessage@idNetworkSystem@@UAEXABVidBitMsg@@@Z 0046f5d0 f   NetworkSystem.obj
 0001:0006e600       ?ClientGetPrediction@idNetworkSystem@@UAEHXZ 0046f600 f   NetworkSystem.obj
 0001:0006e620       ?ClientGetTimeSinceLastPacket@idNetworkSystem@@UAEHXZ 0046f620 f   NetworkSystem.obj
 0001:0006e640       ?ClientGetOutgoingRate@idNetworkSystem@@UAEHXZ 0046f640 f   NetworkSystem.obj
 0001:0006e660       ?ClientGetIncomingRate@idNetworkSystem@@UAEHXZ 0046f660 f   NetworkSystem.obj
 0001:0006e680       ?ClientGetIncomingPacketLoss@idNetworkSystem@@UAEMXZ 0046f680 f   NetworkSystem.obj
 0001:0006e6a0       ??_EidNetworkSystem@@UAEPAXI@Z 0046f6a0 f i NetworkSystem.obj
 0001:0006e6a0       ??_GidNetworkSystem@@UAEPAXI@Z 0046f6a0 f i NetworkSystem.obj
 0001:0006e6d0       ??0idServerScan@@QAE@XZ    0046f6d0 f   ServerScan.obj
 0001:0006e7c0       ??0networkServer_t@@QAE@ABU0@@Z 0046f7c0 f i ServerScan.obj
 0001:0006e8f0       ??0networkServer_t@@QAE@XZ 0046f8f0 f i ServerScan.obj
 0001:0006e910       ??1?$idList@UnetworkServer_t@@@@QAE@XZ 0046f910 f i ServerScan.obj
 0001:0006e990       ??4networkServer_t@@QAEAAU0@ABU0@@Z 0046f990 f i ServerScan.obj
 0001:0006ea40       ?AddServer@idServerScan@@QAEXHPBD@Z 0046fa40 f   ServerScan.obj
 0001:0006eb10       ?ApplyFilter@idServerScan@@QAEXXZ 0046fb10 f   ServerScan.obj
 0001:0006ef10       ?Clear@idServerScan@@QAEXXZ 0046ff10 f   ServerScan.obj
 0001:0006efa0       ?Cmp@idServerScan@@CAHPBH0@Z 0046ffa0 f   ServerScan.obj
 0001:0006f250       ?GUIAdd@idServerScan@@AAEXHUnetworkServer_t@@@Z 00470250 f   ServerScan.obj
 0001:0006f850       ?GUIConfig@idServerScan@@QAEXPAVidUserInterface@@PBD@Z 00470850 f   ServerScan.obj
 0001:0006f890       ?GUIUpdateSelected@idServerScan@@QAEXXZ 00470890 f   ServerScan.obj
 0001:0006fba0       ?GetChallenge@idServerScan@@QAEHXZ 00470ba0 f   ServerScan.obj
 0001:0006fbb0       ?GetString@idDict@@QBE_NPBD0AAVidStr@@@Z 00470bb0 f i ServerScan.obj
 0001:0006fc10       ?InfoResponse@idServerScan@@QAEHAAUnetworkServer_t@@@Z 00470c10 f   ServerScan.obj
 0001:0006ff70       ?IsFiltered@idServerScan@@AAE_NUnetworkServer_t@@@Z 00470f70 f   ServerScan.obj
 0001:000701f0       ?LocalClear@idServerScan@@AAEXXZ 004711f0 f   ServerScan.obj
 0001:00070270       ?NetScan@idServerScan@@QAEXXZ 00471270 f   ServerScan.obj
 0001:00070460       ?Resize@?$idList@UaasFace_s@@@@QAEXH@Z 00471460 f i AASBuild_file.obj
 0001:00070460       ?Resize@?$idList@UaasPortal_s@@@@QAEXH@Z 00471460 f i AASCluster.obj
 0001:00070460       ?Resize@?$idList@UinServer_t@@@@QAEXH@Z 00471460 f i ServerScan.obj
 0001:00070460       ?Resize@?$idList@UwexpOp_t@@@@QAEXH@Z 00471460 f i Window.obj
 0001:00070500       ?Resize@?$idList@UnetworkServer_t@@@@QAEXH@Z 00471500 f i ServerScan.obj
 0001:00070750       ?RunFrame@idServerScan@@QAEXXZ 00471750 f   ServerScan.obj
 0001:000709a0       ?SetSorting@idServerScan@@QAEXW4serverSort_t@@@Z 004719a0 f   ServerScan.obj
 0001:00070a00       ?SetupLANScan@idServerScan@@QAEXXZ 00471a00 f   ServerScan.obj
 0001:00070ac0       ?Shutdown@idServerScan@@QAEXXZ 00471ac0 f   ServerScan.obj
 0001:00070b20       ?StartServers@idServerScan@@QAEX_N@Z 00471b20 f   ServerScan.obj
 0001:00070b40       ??1idCinematic@@UAE@XZ     00471b40 f   Cinematic.obj
 0001:00070b50       ??_EidCinematic@@UAEPAXI@Z 00471b50 f i Cinematic.obj
 0001:00070b50       ??_GidCinematic@@UAEPAXI@Z 00471b50 f i Cinematic.obj
 0001:00070b80       ??_EidCinematicLocal@@UAEPAXI@Z 00471b80 f i Cinematic.obj
 0001:00070b80       ??_GidCinematicLocal@@UAEPAXI@Z 00471b80 f i Cinematic.obj
 0001:00070ca0       ?Alloc@idCinematic@@SAPAV1@XZ 00471ca0 f   Cinematic.obj
 0001:00070d80       ?AnimationLength@idCinematicLocal@@UAEHXZ 00471d80 f   Cinematic.obj
 0001:00070d90       ?AnimationLength@idSndWindow@@UAEHXZ 00471d90 f   Cinematic.obj
 0001:00070da0       ?Close@idCinematicLocal@@UAEXXZ 00471da0 f   Cinematic.obj
 0001:00070e20       ?ImageForTime@idCinematic@@UAE?AUcinData_t@@H@Z 00471e20 f   Cinematic.obj
 0001:00070e30       ?ImageForTime@idCinematicLocal@@UAE?AUcinData_t@@H@Z 00471e30 f   Cinematic.obj
 0001:00071020       ?ImageForTime@idSndWindow@@UAE?AUcinData_t@@H@Z 00472020 f   Cinematic.obj
 0001:00071050       ?InitCinematic@idCinematic@@SAXXZ 00472050 f   Cinematic.obj
 0001:00071160       ?InitFromFile@idCinematic@@UAE_NPBD_N@Z 00472160 f   Cinematic.obj
 0001:00071170       ?InitFromFile@idCinematicLocal@@UAE_NPBD_N@Z 00472170 f   Cinematic.obj
 0001:00071330       ?InitFromFile@idSndWindow@@UAE_NPBD_N@Z 00472330 f   Cinematic.obj
 0001:00071410       ?ResetTime@idCinematicLocal@@UAEXH@Z 00472410 f   Cinematic.obj
 0001:00071450       ?RoQInterrupt@idCinematicLocal@@AAEXXZ 00472450 f   Cinematic.obj
 0001:00071a90       ?RoQPrepMcomp@idCinematicLocal@@AAEXJJ@Z 00472a90 f   Cinematic.obj
 0001:00071b40       ?RoQReset@idCinematicLocal@@AAEXXZ 00472b40 f   Cinematic.obj
 0001:00071b80       ?RoQ_init@idCinematicLocal@@AAEXXZ 00472b80 f   Cinematic.obj
 0001:00071c10       ?ShutdownCinematic@idCinematic@@SAXXZ 00472c10 f   Cinematic.obj
 0001:00071c70       ?blitVQQuad32fs@idCinematicLocal@@AAEXPAPAEPAE@Z 00472c70 f   Cinematic.obj
 0001:00072220       ?decodeCodeBook@idCinematicLocal@@AAEXPAEG@Z 00473220 f   Cinematic.obj
 0001:00072fe0       ?move8_32@idCinematicLocal@@AAEXPAE0H@Z 00473fe0 f   Cinematic.obj
 0001:000731f0       ?recurseQuad@idCinematicLocal@@AAEXJJJJJ@Z 004741f0 f   Cinematic.obj
 0001:00073320       ?yuv_to_rgb24@idCinematicLocal@@AAEIJJJ@Z 00474320 f   Cinematic.obj
 0001:000733b0       ?yuv_to_rgb@idCinematicLocal@@AAEGJJJ@Z 004743b0 f   Cinematic.obj
 0001:000738b0       ?RB_ARB_DrawInteractions@@YAXXZ 004748b0 f   draw_arb.obj
 0001:00073ee0       ?RB_ARB2_CreateDrawInteractions@@YAXPBUdrawSurf_s@@@Z 00474ee0 f   draw_arb2.obj
 0001:00074220       ?RB_ARB2_DrawInteraction@@YAXPBUdrawInteraction_t@@@Z 00475220 f   draw_arb2.obj
 0001:000744a0       ?RB_ARB2_DrawInteractions@@YAXXZ 004754a0 f   draw_arb2.obj
 0001:000746d0       ?R_ARB2_Init@@YAXXZ        004756d0 f   draw_arb2.obj
 0001:00074740       ?R_FindARBProgram@@YAHIPBD@Z 00475740 f   draw_arb2.obj
 0001:00074920       ?R_LoadARBProgram@@YAXH@Z  00475920 f   draw_arb2.obj
 0001:00074c10       ?R_ReloadARBPrograms_f@@YAXABVidCmdArgs@@@Z 00475c10 f   draw_arb2.obj
 0001:00074c60       ?RB_BakeTextureMatrixIntoTexgen@@YAXQAVidPlane@@QBM@Z 00475c60 f   draw_common.obj
 0001:00074d90       ?RB_FinishStageTexturing@@YAXPBUshaderStage_t@@PBUdrawSurf_s@@PAVidDrawVert@@@Z 00475d90 f   draw_common.obj
 0001:00075370       ?RB_PrepareStageTexturing@@YAXPBUshaderStage_t@@PBUdrawSurf_s@@PAVidDrawVert@@@Z 00476370 f   draw_common.obj
 0001:000759a0       ?RB_STD_DrawShaderPasses@@YAHPAPAUdrawSurf_s@@H@Z 004769a0 f   draw_common.obj
 0001:00075c80       ?RB_STD_DrawView@@YAXXZ    00476c80 f   draw_common.obj
 0001:00076100       ?RB_STD_FogAllLights@@YAXXZ 00477100 f   draw_common.obj
 0001:00076410       ?RB_STD_T_RenderShaderPasses@@YAXPBUdrawSurf_s@@@Z 00477410 f   draw_common.obj
 0001:00076d00       ?RB_StencilShadowPass@@YAXPBUdrawSurf_s@@@Z 00477d00 f   draw_common.obj
 0001:000770b0       ?RB_T_FillDepthBuffer@@YAXPBUdrawSurf_s@@@Z 004780b0 f   draw_common.obj
 0001:000779b0       ?RB_NV10_DrawInteractions@@YAXXZ 004789b0 f   draw_nv10.obj
 0001:00078a20       ?R_NV10_Init@@YAXXZ        00479a20 f   draw_nv10.obj
 0001:00079830       ?RB_NV20_DrawInteractions@@YAXXZ 0047a830 f   draw_nv20.obj
 0001:00079d40       ?R_NV20_Init@@YAXXZ        0047ad40 f   draw_nv20.obj
 0001:0007a390       ?RB_R200_DrawInteractions@@YAXXZ 0047b390 f   draw_r200.obj
 0001:0007a850       ?R_R200_Init@@YAXXZ        0047b850 f   draw_r200.obj
 0001:0007aa20       ??0idGuiModel@@QAE@XZ      0047ba20 f   GuiModel.obj
 0001:0007ab10       ?AdvanceSurf@idGuiModel@@AAEXXZ 0047bb10 f   GuiModel.obj
 0001:0007abe0       ?AssureSize@?$idList@VidDrawVert@@@@QAEXH@Z 0047bbe0 f i GuiModel.obj
 0001:0007ac20       ?Clear@idGuiModel@@QAEXXZ  0047bc20 f   GuiModel.obj
 0001:0007acb0       ?DrawStretchPic@idGuiModel@@QAEXMMMMMMMMPBVidMaterial@@@Z 0047bcb0 f   GuiModel.obj
 0001:0007b000       ?DrawStretchPic@idGuiModel@@QAEXPBVidDrawVert@@PBHHHPBVidMaterial@@_NMMMM@Z 0047c000 f   GuiModel.obj
 0001:0007b730       ?DrawStretchTri@idGuiModel@@QAEXVidVec2@@00000PBVidMaterial@@@Z 0047c730 f   GuiModel.obj
 0001:0007b9b0       ?EmitFullScreen@idGuiModel@@QAEXXZ 0047c9b0 f   GuiModel.obj
 0001:0007bc20       ?EmitSurface@idGuiModel@@AAEXPAUguiModelSurface_t@@QAM1_N@Z 0047cc20 f   GuiModel.obj
 0001:0007bd90       ?EmitToCurrentView@idGuiModel@@QAEXQAM_N@Z 0047cd90 f   GuiModel.obj
 0001:0007bdf0       ?ReadFromDemo@idGuiModel@@QAEXPAVidDemoFile@@@Z 0047cdf0 f   GuiModel.obj
 0001:0007c010       ?Resize@?$idList@USSDAstronautData_t@@@@QAEXH@Z 0047d010 f i GameSSDWindow.obj
 0001:0007c010       ?Resize@?$idList@UguiModelSurface_t@@@@QAEXH@Z 0047d010 f i GuiModel.obj
 0001:0007c0c0       ?Resize@?$idList@VidDrawVert@@@@QAEXH@Z 0047d0c0 f i GuiModel.obj
 0001:0007c1f0       ?SetColor@idGuiModel@@QAEXMMMM@Z 0047d1f0 f   GuiModel.obj
 0001:0007c290       ?WriteToDemo@idGuiModel@@QAEXPAVidDemoFile@@@Z 0047d290 f   GuiModel.obj
 0001:0007d160       ?R_LoadCubeImages@@YA_NPBDW4cubeFiles_t@@QAPAEPAHPAJ@Z 0047e160 f   Image_files.obj
 0001:0007d3f0       ?R_LoadImage@@YAXPBDPAPAEPAH2PAJ_N@Z 0047e3f0 f   Image_files.obj
 0001:0007d760       ?R_WritePalTGA@@YAXPBDPBE1HH_N@Z 0047e760 f   Image_files.obj
 0001:0007d840       ?R_WriteTGA@@YAXPBDPBEHH_N@Z 0047e840 f   Image_files.obj
 0001:0007d900       _jpg_Error                 0047e900 f   Image_files.obj
 0001:0007d950       _jpg_Printf                0047e950 f   Image_files.obj
 0001:0007d9a0       ??$ArgCompletion_String@$1?imageFilter@@3PAPBDA@idCmdSystem@@SAXABVidCmdArgs@@P6AXPBD@Z@Z 0047e9a0 f i Image_init.obj
 0001:0007d9f0       ??0idImage@@QAE@XZ         0047e9f0 f i Image_init.obj
 0001:0007db30       ?AddDDSCommand@idImageManager@@QAEXPBD@Z 0047eb30 f   Image_init.obj
 0001:0007dc50       ?AllocImage@idImageManager@@QAEPAVidImage@@PBD@Z 0047ec50 f   Image_init.obj
 0001:0007dd90       ?BeginLevelLoad@idImageManager@@QAEXXZ 0047ed90 f   Image_init.obj
 0001:0007dde0       ?BindNull@idImageManager@@QAEXXZ 0047ede0 f   Image_init.obj
 0001:0007de70       ?ChangeTextureFilter@idImageManager@@QAEXXZ 0047ee70 f   Image_init.obj
 0001:0007e070       ?CheckCvars@idImageManager@@QAEXXZ 0047f070 f   Image_init.obj
 0001:0007e0d0       ?CompleteBackgroundImageLoads@idImageManager@@QAEXXZ 0047f0d0 f   Image_init.obj
 0001:0007e1a0       ?EndLevelLoad@idImageManager@@QAEXXZ 0047f1a0 f   Image_init.obj
 0001:0007e320       ?FinishBuild@idImageManager@@QAEX_N@Z 0047f320 f   Image_init.obj
 0001:0007e6f0       ?GenerateKey@idHashIndex@@QBEHPBD_N@Z 0047f6f0 f i Image_init.obj
 0001:0007e780       ?GetImage@idImageManager@@QBEPAVidImage@@PBD@Z 0047f780 f   Image_init.obj
 0001:0007e8a0       ?ImageFromFile@idImageManager@@QAEPAVidImage@@PBDW4textureFilter_t@@_NW4textureRepeat_t@@W4textureDepth_t@@W4cubeFiles_t@@@Z 0047f8a0 f   Image_init.obj
 0001:0007ece0       ?ImageFromFunction@idImageManager@@QAEPAVidImage@@PBDP6AXPAV2@@Z@Z 0047fce0 f   Image_init.obj
 0001:0007ee20       ?Init@idImageManager@@QAEXXZ 0047fe20 f   Image_init.obj
 0001:0007f0c0       ?MakeDefault@idImage@@QAEXXZ 004800c0 f   Image_init.obj
 0001:0007f190       ?PrintMemInfo@idImageManager@@QAEXPAUMemInfo_t@@@Z 00480190 f   Image_init.obj
 0001:0007f3f0       ?PurgeAllImages@idImageManager@@QAEXXZ 004803f0 f   Image_init.obj
 0001:0007f670       ?R_CombineCubeImages_f@@YAXABVidCmdArgs@@@Z 00480670 f   Image_init.obj
 0001:0007fb70       ?R_FogEnterImage@@YAXPAVidImage@@@Z 00480b70 f   Image_init.obj
 0001:0007fdb0       ?R_FogImage@@YAXPAVidImage@@@Z 00480db0 f   Image_init.obj
 0001:0007ff70       ?R_ListImages_f@@YAXABVidCmdArgs@@@Z 00480f70 f   Image_init.obj
 0001:000808e0       ?R_QuadraticImage@@YAXPAVidImage@@@Z 004818e0 f   Image_init.obj
 0001:00080a80       ?R_ReloadImages_f@@YAXABVidCmdArgs@@@Z 00481a80 f   Image_init.obj
 0001:00080d80       ?Reload@idImage@@QAEX_N0@Z 00481d80 f   Image_init.obj
 0001:00080e40       ?ReloadAllImages@idImageManager@@QAEXXZ 00481e40 f   Image_init.obj
 0001:00080e80       ?SetNormalPalette@idImageManager@@QAEXXZ 00481e80 f   Image_init.obj
 0001:00081260       ?Shutdown@idImageManager@@QAEXXZ 00482260 f   Image_init.obj
 0001:00081320       ?StartBackgroundImageLoad@idImage@@QAEXXZ 00482320 f   Image_init.obj
 0001:00081590       ?StartBuild@idImageManager@@QAEXXZ 00482590 f   Image_init.obj
 0001:00081620       ?SumOfUsedImages@idImageManager@@QAEHXZ 00482620 f   Image_init.obj
 0001:00081950       ?ActuallyLoadImage@idImage@@QAEX_N0@Z 00482950 f   Image_load.obj
 0001:00081b30       ?Bind@idImage@@QAEXXZ      00482b30 f   Image_load.obj
 0001:00081d00       ?CheckPrecompressedImage@idImage@@QAE_N_N@Z 00482d00 f   Image_load.obj
 0001:00081f20       ?CopyFramebuffer@idImage@@QAEXHHHH_N@Z 00482f20 f   Image_load.obj
 0001:00082150       ?GenerateCubeImage@idImage@@QAEXQAPBEHW4textureFilter_t@@_NW4textureDepth_t@@@Z 00483150 f   Image_load.obj
 0001:00082410       ?GenerateImage@idImage@@QAEXPBEHHW4textureFilter_t@@_NW4textureRepeat_t@@W4textureDepth_t@@@Z 00483410 f   Image_load.obj
 0001:00082870       ?GetDownsize@idImage@@QBEXAAH0@Z 00483870 f   Image_load.obj
 0001:00082950       ?ImageProgramStringToCompressedFileName@idImage@@QBEXPBDPAD@Z 00483950 f   Image_load.obj
 0001:00082a20       ?Print@idImage@@QBEXXZ     00483a20 f   Image_load.obj
 0001:00082ff0       ?PurgeImage@idImage@@QAEXXZ 00483ff0 f   Image_load.obj
 0001:00083100       ?SelectInternalFormat@idImage@@QBEIPAPBEHHHW4textureDepth_t@@PA_N@Z 00484100 f   Image_load.obj
 0001:00083390       ?SetClassification@idImage@@QAEXH@Z 00484390 f   Image_load.obj
 0001:000833a0       ?SetImageFilterAndRepeat@idImage@@QBEXXZ 004843a0 f   Image_load.obj
 0001:000835d0       ?ShouldImageBePartialCached@idImage@@QAE_NXZ 004845d0 f   Image_load.obj
 0001:000836b0       ?StorageSize@idImage@@QBEHXZ 004846b0 f   Image_load.obj
 0001:00083920       ?UploadCompressedNormalMap@idImage@@QAEXHHPBEH@Z 00484920 f   Image_load.obj
 0001:00083ac0       ?UploadPrecompressedImage@idImage@@QAEXPAEH@Z 00484ac0 f   Image_load.obj
 0001:00083e70       ?UploadScratch@idImage@@QAEXPBEHH@Z 00484e70 f   Image_load.obj
 0001:000840a0       ?WritePrecompressedImage@idImage@@QAEXXZ 004850a0 f   Image_load.obj
 0001:00084830       ?R_BlendOverTexture@@YAXPAEHQBE@Z 00485830 f   Image_process.obj
 0001:000848a0       ?R_Dropsample@@YAPAEPBEHHHH@Z 004858a0 f   Image_process.obj
 0001:000849a0       ?R_HorizontalFlip@@YAXPAEHH@Z 004859a0 f   Image_process.obj
 0001:00084a20       ?R_MipMap@@YAPAEPBEHH_N@Z  00485a20 f   Image_process.obj
 0001:00084cc0       ?R_ResampleTexture@@YAPAEPBEHHHH@Z 00485cc0 f   Image_process.obj
 0001:00084ef0       ?R_RotatePic@@YAXPAEH@Z    00485ef0 f   Image_process.obj
 0001:00084f80       ?R_SetBorderTexels@@YAXPAEHHQBE@Z 00485f80 f   Image_process.obj
 0001:000850e0       ?R_VerticalFlip@@YAXPAEHH@Z 004860e0 f   Image_process.obj
 0001:00085860       ?R_LoadImageProgram@@YAXPBDPAPAEPAH2PAJPAW4textureDepth_t@@@Z 00486860 f   Image_program.obj
 0001:00086190       ?R_ParsePastImageProgram@@YAPBDAAVidLexer@@@Z 00487190 f   Image_program.obj
 0001:00086440       ??0idBox@@QAE@ABVidBounds@@@Z 00487440 f i Interaction.obj
 0001:00086530       ??0idBox@@QAE@ABVidBounds@@ABVidVec3@@ABVidMat3@@@Z 00487530 f i Interaction.obj
 0001:00086660       ??0idBox@@QAE@ABVidVec3@@0ABVidMat3@@@Z 00487660 f i Interaction.obj
 0001:000866d0       ?AddActiveInteraction@idInteraction@@QAEXXZ 004876d0 f   Interaction.obj
 0001:00086bc0       ?AllocAndLink@idInteraction@@SAPAV1@PAVidRenderEntityLocal@@PAVidRenderLightLocal@@@Z 00487bc0 f   Interaction.obj
 0001:00086dd0       ?CalcInteractionScissorRectangle@idInteraction@@AAE?AVidScreenRect@@ABVidFrustum@@@Z 00487dd0 f   Interaction.obj
 0001:00087060       ?CreateInteraction@idInteraction@@AAEXPBVidRenderModel@@@Z 00488060 f   Interaction.obj
 0001:00087390       ?CullInteractionByViewFrustum@idInteraction@@AAE_NABVidFrustum@@@Z 00488390 f   Interaction.obj
 0001:000875c0       ?FreeSurfaces@idInteraction@@QAEXXZ 004885c0 f   Interaction.obj
 0001:00087670       ?MakeEmpty@idInteraction@@QAEXXZ 00488670 f   Interaction.obj
 0001:000876e0       ?R_CalcInteractionCullBits@@YAXPBVidRenderEntityLocal@@PBUsrfTriangles_s@@PBVidRenderLightLocal@@AAUsrfCullInfo_t@@@Z 004886e0 f   Interaction.obj
 0001:00087850       ?R_CalcInteractionFacing@@YAXPBVidRenderEntityLocal@@PBUsrfTriangles_s@@PBVidRenderLightLocal@@AAUsrfCullInfo_t@@@Z 00488850 f   Interaction.obj
 0001:00087f40       ?R_FreeInteractionCullInfo@@YAXAAUsrfCullInfo_t@@@Z 00488f40 f   Interaction.obj
 0001:000881b0       ?R_ShowInteractionMemory_f@@YAXABVidCmdArgs@@@Z 004891b0 f   Interaction.obj
 0001:00088450       ?Unlink@idInteraction@@AAEXXZ 00489450 f   Interaction.obj
 0001:000884e0       ?UnlinkAndFree@idInteraction@@QAEXXZ 004894e0 f   Interaction.obj
 0001:00088590       ??0idMaterial@@QAE@XZ      00489590 f   Material.obj
 0001:00088640       ??_EidMaterial@@UAEPAXI@Z  00489640 f i Material.obj
 0001:00088640       ??_GidMaterial@@UAEPAXI@Z  00489640 f i Material.obj
 0001:000886d0       ??_EidSndWindow@@UAEPAXI@Z 004896d0 f i Material.obj
 0001:000886d0       ??_GidSndWindow@@UAEPAXI@Z 004896d0 f i Material.obj
 0001:00088700       ?AddReference@idMaterial@@QAEXXZ 00489700 f   Material.obj
 0001:00088750       ?CinematicLength@idMaterial@@QBEHXZ 00489750 f   Material.obj
 0001:00088770       ?CommonInit@idMaterial@@AAEXXZ 00489770 f   Material.obj
 0001:00088900       ?ConstantRegisters@idMaterial@@QBEPBMXZ 00489900 f   Material.obj
 0001:00088920       ?DefaultDefinition@idMaterial@@UBEPBDXZ 00489920 f   Material.obj
 0001:00088930       ?EmitOp@idMaterial@@AAEHHHW4expOpType_t@@@Z 00489930 f   Material.obj
 0001:00088b60       ?EvaluateRegisters@idMaterial@@QBEXPAMQBMPBUviewDef_s@@PAVidSoundEmitter@@@Z 00489b60 f   Material.obj
 0001:00088f30       ?FreeData@idMaterial@@UAEXXZ 00489f30 f   Material.obj
 0001:00089020       ?GetBumpStage@idMaterial@@QBEPBUshaderStage_t@@XZ 0048a020 f   Material.obj
 0001:00089050       ?GetExpressionConstant@idMaterial@@AAEHM@Z 0048a050 f   Material.obj
 0001:00089100       ?GetFloatValue@idToken@@QAEMXZ 0048a100 f i Material.obj
 0001:00089150       ?GetImageHeight@idMaterial@@QBEHXZ 0048a150 f   Material.obj
 0001:00089160       ?GetImageWidth@idMaterial@@QBEHXZ 0048a160 f   Material.obj
 0001:00089170       ?ImageName@idMaterial@@UBEPBDXZ 0048a170 f   Material.obj
 0001:000891a0       ?MatchToken@idMaterial@@AAE_NAAVidLexer@@PBD@Z 0048a1a0 f   Material.obj
 0001:000891d0       ?MultiplyTextureMatrix@idMaterial@@AAEXPAUtextureStage_t@@QAY02H@Z 0048a1d0 f   Material.obj
 0001:00089380       ?Parse@idMaterial@@UAE_NPBDH@Z 0048a380 f   Material.obj
 0001:00089920       ?ParseBlend@idMaterial@@AAEXAAVidLexer@@PAUshaderStage_t@@@Z 0048a920 f   Material.obj
 0001:00089d30       ?ParseDeform@idMaterial@@AAEXAAVidLexer@@@Z 0048ad30 f   Material.obj
 0001:00089fd0       ?ParseExpressionPriority@idMaterial@@AAEHAAVidLexer@@H@Z 0048afd0 f   Material.obj
 0001:0008a310       ?ParseFragmentMap@idMaterial@@AAEXAAVidLexer@@PAUnewShaderStage_t@@@Z 0048b310 f   Material.obj
 0001:0008a5b0       ?ParseMaterial@idMaterial@@AAEXAAVidLexer@@@Z 0048b5b0 f   Material.obj
 0001:0008b530       ?ParseStage@idMaterial@@AAEXAAVidLexer@@W4textureRepeat_t@@@Z 0048c530 f   Material.obj
 0001:0008c680       ?ParseTerm@idMaterial@@AAEHAAVidLexer@@@Z 0048d680 f   Material.obj
 0001:0008cc50       ?ParseVertexParm@idMaterial@@AAEXAAVidLexer@@PAUnewShaderStage_t@@@Z 0048dc50 f   Material.obj
 0001:0008ce20       ?Print@idMaterial@@UBEXXZ  0048de20 f   Material.obj
 0001:0008cf10       ?ReloadImages@idMaterial@@QBEX_N@Z 0048df10 f   Material.obj
 0001:0008cfb0       ?ResetCinematicTime@idMaterial@@QBEXH@Z 0048dfb0 f   Material.obj
 0001:0008d000       ?SetDefaultText@idMaterial@@UAE_NXZ 0048e000 f   Material.obj
 0001:0008d050       ?SetImageClassifications@idMaterial@@QBEXH@Z 0048e050 f   Material.obj
 0001:0008d0a0       ?SetParm11ExpressionRegister@idMaterial@@QBEXM@Z 0048e0a0 f   Material.obj
 0001:0008d0c0       ?Size@idMaterial@@UBEIXZ   0048e0c0 f   Material.obj
 0001:0008d0d0       ?Texgen@idMaterial@@QBE?AW4texgen_t@@XZ 0048e0d0 f   Material.obj
 0001:0008d110       ?UpdateCinematic@idMaterial@@QBEXH@Z 0048e110 f   Material.obj
 0001:0008d150       ??4idDrawVert@@QAEAAV0@ABV0@@Z 0048e150 f i MegaTexture.obj
 0001:0008d1d0       ?BindForViewOrigin@idMegaTexture@@QAEXVidVec3@@@Z 0048e1d0 f   MegaTexture.obj
 0001:0008d2f0       ?GenerateMegaMipMaps@idMegaTexture@@CAXPAUmegaTextureHeader_t@@PAVidFile@@@Z 0048e2f0 f   MegaTexture.obj
 0001:0008d630       ?GenerateMegaPreview@idMegaTexture@@CAXPBD@Z 0048e630 f   MegaTexture.obj
 0001:0008d930       ?InitFromMegaFile@idMegaTexture@@QAE_NPBD@Z 0048e930 f   MegaTexture.obj
 0001:0008dc10       ?Invalidate@idTextureLevel@@QAEXXZ 0048ec10 f   MegaTexture.obj
 0001:0008dc70       ?MakeMegaTexture_f@idMegaTexture@@SAXABVidCmdArgs@@@Z 0048ec70 f   MegaTexture.obj
 0001:0008e610       ?SetMappingForSurface@idMegaTexture@@QAEXPBUsrfTriangles_s@@@Z 0048f610 f   MegaTexture.obj
 0001:0008ea00       ?SetViewOrigin@idMegaTexture@@AAEXVidVec3@@@Z 0048fa00 f   MegaTexture.obj
 0001:0008ec90       ?Unbind@idMegaTexture@@QAEXXZ 0048fc90 f   MegaTexture.obj
 0001:0008ecc0       ?UpdateTile@idTextureLevel@@QAEXHHHH@Z 0048fcc0 f   MegaTexture.obj
 0001:0008efe0       ??0idRenderModelStatic@@QAE@XZ 0048ffe0 f   Model.obj
 0001:0008f0e0       ??1?$idVectorSubset@VidVec2@@$01@@QAE@XZ 004900e0 f i Model.obj
 0001:0008f0e0       ??1?$idVectorSubset@VidVec3@@$02@@QAE@XZ 004900e0 f i Model.obj
 0001:0008f120       ??1idRenderModel@@UAE@XZ   00490120 f i Model.obj
 0001:0008f130       ??1idRenderModelStatic@@UAE@XZ 00490130 f   Model.obj
 0001:0008f200       ??_EidRenderModel@@UAEPAXI@Z 00490200 f i Model.obj
 0001:0008f200       ??_GidRenderModel@@UAEPAXI@Z 00490200 f i Model.obj
 0001:0008f230       ??_EidRenderModelStatic@@UAEPAXI@Z 00490230 f i Model.obj
 0001:0008f230       ??_GidRenderModelStatic@@UAEPAXI@Z 00490230 f i Model.obj
 0001:0008f5a0       ?AddSurface@idRenderModelStatic@@UAEXUmodelSurface_s@@@Z 004905a0 f   Model.obj
 0001:0008f680       ?AllocSurfaceTriangles@idRenderModelStatic@@UBEPAUsrfTriangles_s@@HH@Z 00490680 f   Model.obj
 0001:0008f6b0       ?Bounds@idRenderModelLiquid@@UBE?AVidBounds@@PBUrenderEntity_s@@@Z 004906b0 f   Model_liquid.obj
 0001:0008f6b0       ?Bounds@idRenderModelStatic@@UBE?AVidBounds@@PBUrenderEntity_s@@@Z 004906b0 f   Model.obj
 0001:0008f6d0       ?ConvertASEToModelSurfaces@idRenderModelStatic@@QAE_NPBUaseModel_s@@@Z 004906d0 f   Model.obj
 0001:000907b0       ?ConvertLWOToModelSurfaces@idRenderModelStatic@@QAE_NPBUst_lwObject@@@Z 004917b0 f   Model.obj
 0001:000918c0       ?ConvertMAToModelSurfaces@idRenderModelStatic@@QAE_NPBUmaModel_s@@@Z 004928c0 f   Model.obj
 0001:00092790       ?DeleteSurfaceWithId@idRenderModelStatic@@QAE_NH@Z 00493790 f   Model.obj
 0001:000927e0       ?DeleteSurfacesWithNegativeId@idRenderModelStatic@@QAEXXZ 004937e0 f   Model.obj
 0001:00092850       ?FindSurfaceWithId@idRenderModelStatic@@QAE_NHAAH@Z 00493850 f   Model.obj
 0001:00092880       ?FindVector@?$idVectorSubset@VidVec3@@$02@@QAEHPBVidVec3@@HM@Z 00493880 f i Model.obj
 0001:00092a20       ?FinishSurfaces@idRenderModelStatic@@UAEXXZ 00493a20 f   Model.obj
 0001:00092f80       ?FreeSurfaceTriangles@idRenderModelStatic@@UBEXPAUsrfTriangles_s@@@Z 00493f80 f   Model.obj
 0001:00092f90       ?FreeVertexCache@idRenderModelStatic@@UAEXXZ 00493f90 f   Model.obj
 0001:00092ff0       ?GetJointHandle@idRenderModelStatic@@UBE?AW4jointHandle_t@@PBD@Z 00493ff0 f   Model.obj
 0001:00093000       ?Activate@idGameBearShootWindow@@UAEPBD_N@Z 00494000 f   GameBearShootWindow.obj
 0001:00093000       ?Activate@idGameBustOutWindow@@UAEPBD_N@Z 00494000 f   GameBustOutWindow.obj
 0001:00093000       ?GetJointName@idRenderModelStatic@@UBEPBDW4jointHandle_t@@@Z 00494000 f   Model.obj
 0001:00093010       ?InitEmpty@idRenderModelStatic@@UAEXPBD@Z 00494010 f   Model.obj
 0001:00093080       ?InitFromFile@idRenderModelStatic@@UAEXPBD@Z 00494080 f   Model.obj
 0001:00093220       ?InstantiateDynamicModel@idRenderModelStatic@@UAEPAVidRenderModel@@PBUrenderEntity_s@@PBUviewDef_s@@PAV2@@Z 00494220 f   Model.obj
 0001:00093250       ?IsDefaultModel@idRenderModelStatic@@UBE_NXZ 00494250 f   Model.obj
 0001:00093260       ?IsLevelLoadReferenced@idRenderModelStatic@@UAE_NXZ 00494260 f   Model.obj
 0001:00093270       ?IsLoaded@idRenderModelStatic@@UAE_NXZ 00494270 f   Model.obj
 0001:00093280       ?IsReloadable@idRenderModelStatic@@UBE_NXZ 00494280 f   Model.obj
 0001:00093290       ?IsStaticWorldModel@idRenderModelStatic@@UBE_NXZ 00494290 f   Model.obj
 0001:000932a0       ?List@idRenderModelStatic@@UBEXXZ 004942a0 f   Model.obj
 0001:00093410       ?LoadFLT@idRenderModelStatic@@QAE_NPBD@Z 00494410 f   Model.obj
 0001:00093bf0       ?LoadModel@idRenderModelStatic@@UAEXXZ 00494bf0 f   Model.obj
 0001:00093c10       ?MakeDefaultModel@idRenderModelStatic@@QAEXXZ 00494c10 f   Model.obj
 0001:00093fd0       ?Memory@idRenderModelStatic@@UBEHXZ 00494fd0 f   Model.obj
 0001:00094040       ?CurrentFilename@roq@@QAEPBDXZ 00495040 f   roq.obj
 0001:00094040       ?Name@idRenderModelStatic@@UBEPBDXZ 00495040 f   Model.obj
 0001:00094050       ?NearestJoint@idRenderModelStatic@@UBEHHHHH@Z 00495050 f   Model.obj
 0001:00094060       ?NumBaseSurfaces@idRenderModelStatic@@UBEHXZ 00495060 f   Model.obj
 0001:00094070       ?PartialInitFromFile@idRenderModelStatic@@UAEXPBD@Z 00495070 f   Model.obj
 0001:00094080       ?Print@idRenderModelStatic@@UBEXXZ 00495080 f   Model.obj
 0001:000941c0       ?PurgeModel@idRenderModelStatic@@UAEXXZ 004951c0 f   Model.obj
 0001:00094220       ?ReadFromDemoFile@idRenderModelStatic@@UAEXPAVidDemoFile@@@Z 00495220 f   Model.obj
 0001:000943e0       ?RemoveIndex@?$idList@UmodelSurface_s@@@@QAE_NH@Z 004953e0 f i Model.obj
 0001:00094430       ?Resize@?$idList@USSDWeaponData_t@@@@QAEXH@Z 00495430 f i GameSSDWindow.obj
 0001:00094430       ?Resize@?$idList@UaasNode_s@@@@QAEXH@Z 00495430 f i AASBuild_file.obj
 0001:00094430       ?Resize@?$idList@Ujob_t@idParallelJobList_Threads@@@@QAEXH@Z 00495430 f i idLib:ParallelJobList.obj
 0001:00094430       ?Resize@?$idList@UmodelSurface_s@@@@QAEXH@Z 00495430 f i Model.obj
 0001:000944e0       ?SetLevelLoadReferenced@idRenderModelStatic@@UAEX_N@Z 004954e0 f   Model.obj
 0001:000944f0       ?NumberOfFrames@roq@@QAEHXZ 004954f0 f   roq.obj
 0001:000944f0       ?ShadowHull@idRenderModelStatic@@UBEPAUsrfTriangles_s@@XZ 004954f0 f   Model.obj
 0001:00094500       ?Surface@idRenderModelStatic@@UBEPBUmodelSurface_s@@H@Z 00495500 f   Model.obj
 0001:00094510       ?Timestamp@idRenderModelStatic@@UBEJXZ 00495510 f   Model.obj
 0001:00094520       ?TouchData@idRenderModelStatic@@UAEXXZ 00495520 f   Model.obj
 0001:00094560       ?WriteToDemoFile@idRenderModelStatic@@UAEXPAVidDemoFile@@@Z 00495560 f   Model.obj
 0001:000946f0       ?ASE_Free@@YAXPAUaseModel_s@@@Z 004956f0 f   Model_ase.obj
 0001:00095df0       ?ASE_Load@@YAPAUaseModel_s@@PBD@Z 00496df0 f   Model_ase.obj
 0001:00095e50       ?ASE_Parse@@YAPAUaseModel_s@@PBD_N@Z 00496e50 f   Model_ase.obj
 0001:00096240       ?ASE_ParseGeomObject@@YAXXZ 00497240 f   Model_ase.obj
 0001:00096450       ?Bounds@idRenderModelBeam@@UBE?AVidBounds@@PBUrenderEntity_s@@@Z 00497450 f   Model_beam.obj
 0001:000965e0       ?InstantiateDynamicModel@idRenderModelBeam@@UAEPAVidRenderModel@@PBUrenderEntity_s@@PBUviewDef_s@@PAV2@@Z 004975e0 f   Model_beam.obj
 0001:00096aa0       ?IsDynamicModel@idRenderModelBeam@@UBE?AW4dynamicModel_t@@XZ 00497aa0 f   Model_beam.obj
 0001:00096aa0       ?IsDynamicModel@idRenderModelLiquid@@UBE?AW4dynamicModel_t@@XZ 00497aa0 f   Model_liquid.obj
 0001:00096aa0       ?IsDynamicModel@idRenderModelPrt@@UBE?AW4dynamicModel_t@@XZ 00497aa0 f   Model_prt.obj
 0001:00096aa0       ?IsDynamicModel@idRenderModelSprite@@UBE?AW4dynamicModel_t@@XZ 00497aa0 f   Model_sprite.obj
 0001:00096ab0       ?Flush@idAudioHardwareWIN32@@UAE_NXZ 00497ab0 f   win_snd.obj
 0001:00096ab0       ?IsLoaded@idRenderModelBeam@@UBE_NXZ 00497ab0 f   Model_beam.obj
 0001:00096ab0       ?IsLoaded@idRenderModelSprite@@UBE_NXZ 00497ab0 f   Model_sprite.obj
 0001:00096ab0       ___acrt_uninitialize_command_line 00497ab0 f   libucrt:argv_data.obj
 0001:00096ab0       __should_initialize_environment 00497ab0 f   libcmt:env_mode.obj
 0001:00096ac0       ??0idRenderModelLiquid@@QAE@XZ 00497ac0 f   Model_liquid.obj
 0001:00096bf0       ??_EidRenderModelLiquid@@UAEPAXI@Z 00497bf0 f i Model_liquid.obj
 0001:00096bf0       ??_GidRenderModelLiquid@@UAEPAXI@Z 00497bf0 f i Model_liquid.obj
 0001:00096c80       ?GenerateSurface@idRenderModelLiquid@@AAE?AUmodelSurface_s@@M@Z 00497c80 f   Model_liquid.obj
 0001:00096ef0       ?InitFromFile@idRenderModelLiquid@@UAEXPBD@Z 00497ef0 f   Model_liquid.obj
 0001:00097760       ?InstantiateDynamicModel@idRenderModelLiquid@@UAEPAVidRenderModel@@PBUrenderEntity_s@@PBUviewDef_s@@PAV2@@Z 00498760 f   Model_liquid.obj
 0001:000978a0       ?Reset@idRenderModelLiquid@@UAEXXZ 004988a0 f   Model_liquid.obj
 0001:00097950       ?Update@idRenderModelLiquid@@AAEXXZ 00498950 f   Model_liquid.obj
 0001:00097c50       ?WaterDrop@idRenderModelLiquid@@AAEXHHPAM@Z 00498c50 f   Model_liquid.obj
 0001:00098180       ?getF4@@YAMPAVidFile@@@Z   00499180 f   Model_lwo.obj
 0001:000981f0       ?getI2@@YAFPAVidFile@@@Z   004991f0 f   Model_lwo.obj
 0001:000981f0       ?getU2@@YAGPAVidFile@@@Z   004991f0 f   Model_lwo.obj
 0001:00098240       ?getI4@@YAHPAVidFile@@@Z   00499240 f   Model_lwo.obj
 0001:00098240       ?getU4@@YAIPAVidFile@@@Z   00499240 f   Model_lwo.obj
 0001:00098290       ?getS0@@YAPADPAVidFile@@@Z 00499290 f   Model_lwo.obj
 0001:00098390       ?getU1@@YAEPAVidFile@@@Z   00499390 f   Model_lwo.obj
 0001:000983e0       ?getVX@@YAHPAVidFile@@@Z   004993e0 f   Model_lwo.obj
 0001:000985e0       ?getbytes@@YAPAXPAVidFile@@H@Z 004995e0 f   Model_lwo.obj
 0001:00098650       ?lwAllocPolygons@@YAHPAUst_lwPolygonList@@HH@Z 00499650 f   Model_lwo.obj
 0001:00098770       ?lwFreeClip@@YAXPAUst_lwClip@@@Z 00499770 f   Model_lwo.obj
 0001:00098870       ?lwFreeEnvelope@@YAXPAUst_lwEnvelope@@@Z 00499870 f   Model_lwo.obj
 0001:00098900       ?lwFreeObject@@YAXPAUst_lwObject@@@Z 00499900 f   Model_lwo.obj
 0001:00098a70       ?lwFreePolygons@@YAXPAUst_lwPolygonList@@@Z 00499a70 f   Model_lwo.obj
 0001:00098b20       ?lwFreeSurface@@YAXPAUst_lwSurface@@@Z 00499b20 f   Model_lwo.obj
 0001:000991a0       ?lwFreeTexture@@YAXPAUst_lwTexture@@@Z 0049a1a0 f   Model_lwo.obj
 0001:00099230       ?lwFreeVMap@@YAXPAUst_lwVMap@@@Z 0049a230 f   Model_lwo.obj
 0001:000992a0       ?lwGetBoundingBox@@YAXPAUst_lwPointList@@QAM@Z 0049a2a0 f   Model_lwo.obj
 0001:000993c0       ?lwGetClip@@YAPAUst_lwClip@@PAVidFile@@H@Z 0049a3c0 f   Model_lwo.obj
 0001:00099900       ?lwGetEnvelope@@YAPAUst_lwEnvelope@@PAVidFile@@H@Z 0049a900 f   Model_lwo.obj
 0001:00099e40       ?lwGetGradient@@YAHPAVidFile@@HPAUst_lwTexture@@@Z 0049ae40 f   Model_lwo.obj
 0001:0009a210       ?lwGetImageMap@@YAHPAVidFile@@HPAUst_lwTexture@@@Z 0049b210 f   Model_lwo.obj
 0001:0009a6f0       ?lwGetObject5@@YAPAUst_lwObject@@PBDPAIPAH@Z 0049b6f0 f   Model_lwo.obj
 0001:0009aa20       ?lwGetObject@@YAPAUst_lwObject@@PBDPAIPAH@Z 0049ba20 f   Model_lwo.obj
 0001:0009b300       ?lwGetPointPolygons@@YAHPAUst_lwPointList@@PAUst_lwPolygonList@@@Z 0049c300 f   Model_lwo.obj
 0001:0009b440       ?lwGetPoints@@YAHPAVidFile@@HPAUst_lwPointList@@@Z 0049c440 f   Model_lwo.obj
 0001:0009b560       ?lwGetPolyNormals@@YAXPAUst_lwPointList@@PAUst_lwPolygonList@@@Z 0049c560 f   Model_lwo.obj
 0001:0009b770       ?lwGetPolyVMaps@@YAHPAUst_lwPolygonList@@PAUst_lwVMap@@@Z 0049c770 f   Model_lwo.obj
 0001:0009b8d0       ?lwGetPolygons5@@YAHPAVidFile@@HPAUst_lwPolygonList@@H@Z 0049c8d0 f   Model_lwo.obj
 0001:0009bb40       ?lwGetPolygons@@YAHPAVidFile@@HPAUst_lwPolygonList@@H@Z 0049cb40 f   Model_lwo.obj
 0001:0009bd80       ?lwGetProcedural@@YAHPAVidFile@@HPAUst_lwTexture@@@Z 0049cd80 f   Model_lwo.obj
 0001:0009c020       ?lwGetShader@@YAPAUst_lwPlugin@@PAVidFile@@H@Z 0049d020 f   Model_lwo.obj
 0001:0009c2f0       ?lwGetSurface5@@YAPAUst_lwSurface@@PAVidFile@@HPAUst_lwObject@@@Z 0049d2f0 f   Model_lwo.obj
 0001:0009d270       ?lwGetSurface@@YAPAUst_lwSurface@@PAVidFile@@H@Z 0049e270 f   Model_lwo.obj
 0001:0009db40       ?lwGetTHeader@@YAHPAVidFile@@HPAUst_lwTexture@@@Z 0049eb40 f   Model_lwo.obj
 0001:0009dec0       ?lwGetTMap@@YAHPAVidFile@@HPAUst_lwTMap@@@Z 0049eec0 f   Model_lwo.obj
 0001:0009e280       ?lwGetTags@@YAHPAVidFile@@HPAUst_lwTagList@@@Z 0049f280 f   Model_lwo.obj
 0001:0009e390       ?lwGetVMap@@YAPAUst_lwVMap@@PAVidFile@@HHHH@Z 0049f390 f   Model_lwo.obj
 0001:0009e7d0       ?lwGetVertNormals@@YAXPAUst_lwPointList@@PAUst_lwPolygonList@@@Z 0049f7d0 f   Model_lwo.obj
 0001:0009eab0       ?lwListFree@@YAXPAXP6AX0@Z@Z 0049fab0 f   Model_lwo.obj
 0001:0009eae0       ?lwListInsert@@YAXPAPAXPAXP6AH11@Z@Z 0049fae0 f   Model_lwo.obj
 0001:0009eb50       ?lwResolvePolySurfaces@@YAHPAUst_lwPolygonList@@PAUst_lwTagList@@PAPAUst_lwSurface@@PAH@Z 0049fb50 f   Model_lwo.obj
 0001:0009ed00       ?sgetS0@@YAPADPAPAE@Z      0049fd00 f   Model_lwo.obj
 0001:0009ed90       ?sgetVX@@YAHPAPAE@Z        0049fd90 f   Model_lwo.obj
 0001:0009ee00       ??1?$idHashTable@PAUmaFileNode_t@@@@QAE@XZ 0049fe00 f i Model_ma.obj
 0001:0009ee00       ??1?$idHashTable@PAUmaTransform_s@@@@QAE@XZ 0049fe00 f i Model_ma.obj
 0001:0009ee40       ?Clear@?$idHashTable@PAUmaFileNode_t@@@@QAEXXZ 0049fe40 f i Model_ma.obj
 0001:0009ee40       ?Clear@?$idHashTable@PAUmaMaterialNode_s@@@@QAEXXZ 0049fe40 f i Model_ma.obj
 0001:0009ee40       ?Clear@?$idHashTable@PAUmaTransform_s@@@@QAEXXZ 0049fe40 f i Model_ma.obj
 0001:0009eef0       ?Get@?$idHashTable@PAUmaMaterialNode_s@@@@QBE_NPBDPAPAPAUmaMaterialNode_s@@@Z 0049fef0 f i Model_ma.obj
 0001:0009eef0       ?Get@?$idHashTable@PAUmaTransform_s@@@@QBE_NPBDPAPAPAUmaTransform_s@@@Z 0049fef0 f i Model_ma.obj
 0001:0009ef80       ?GetFileName@idParser@@QBEPBDXZ 0049ff80 f i Model_ma.obj
 0001:0009efa0       ?MA_AddMaterial@@YAHPBD@Z  0049ffa0 f   Model_ma.obj
 0001:0009f160       ?MA_ApplyTransformation@@YAXPAUmaModel_s@@@Z 004a0160 f   Model_ma.obj
 0001:0009fd40       ?MA_Free@@YAXPAUmaModel_s@@@Z 004a0d40 f   Model_ma.obj
 0001:000a0070       ?MA_Load@@YAPAUmaModel_s@@PBD@Z 004a1070 f   Model_ma.obj
 0001:000a0150       ?MA_Parse@@YAPAUmaModel_s@@PBD0_N@Z 004a1150 f   Model_ma.obj
 0001:000a05a0       ?MA_ParseAttribHeader@@YA_NAAVidParser@@PAUmaAttribHeader_t@@@Z 004a15a0 f   Model_ma.obj
 0001:000a0680       ?MA_ParseConnectAttr@@YA_NAAVidParser@@@Z 004a1680 f   Model_ma.obj
 0001:000a0b60       ?MA_ParseFace@@YA_NAAVidParser@@PAUmaAttribHeader_t@@@Z 004a1b60 f   Model_ma.obj
 0001:000a0e60       ?MA_ParseFileNode@@YAXAAVidParser@@@Z 004a1e60 f   Model_ma.obj
 0001:000a1140       ?MA_ParseHeaderIndex@@YA_NPAUmaAttribHeader_t@@AAH1PBD2@Z 004a2140 f   Model_ma.obj
 0001:000a1240       ?MA_ParseMaterialNode@@YAXAAVidParser@@@Z 004a2240 f   Model_ma.obj
 0001:000a13d0       ?MA_ParseMesh@@YAXAAVidParser@@@Z 004a23d0 f   Model_ma.obj
 0001:000a2180       ?MA_ParseNodeHeader@@YAXAAVidParser@@PAUmaNodeHeader_t@@@Z 004a3180 f   Model_ma.obj
 0001:000a22d0       ?MA_ParseNormal@@YA_NAAVidParser@@PAUmaAttribHeader_t@@@Z 004a32d0 f   Model_ma.obj
 0001:000a25a0       ?MA_ParseTransform@@YA_NAAVidParser@@@Z 004a35a0 f   Model_ma.obj
 0001:000a28f0       ?MA_ParseVertexTransforms@@YA_NAAVidParser@@PAUmaAttribHeader_t@@@Z 004a38f0 f   Model_ma.obj
 0001:000a2b10       ?MA_ReadVec3@@YA_NAAVidParser@@AAVidVec3@@@Z 004a3b10 f   Model_ma.obj
 0001:000a2be0       ?Bounds@idRenderModelMD3@@UBE?AVidBounds@@PBUrenderEntity_s@@@Z 004a3be0 f   Model_md3.obj
 0001:000a2db0       ?InitFromFile@idRenderModelMD3@@UAEXPBD@Z 004a3db0 f   Model_md3.obj
 0001:000a32a0       ?InstantiateDynamicModel@idRenderModelMD3@@UAEPAVidRenderModel@@PBUrenderEntity_s@@PBUviewDef_s@@PAV2@@Z 004a42a0 f   Model_md3.obj
 0001:000a37d0       ?IsDynamicModel@idRenderModelMD3@@UBE?AW4dynamicModel_t@@XZ 004a47d0 f   Model_md3.obj
 0001:000a37d0       ?IsDynamicModel@idRenderModelMD5@@UBE?AW4dynamicModel_t@@XZ 004a47d0 f   Model_md5.obj
 0001:000a37e0       ??0idMD5Joint@@QAE@XZ      004a47e0 f i Model_md5.obj
 0001:000a3810       ??0idMD5Mesh@@QAE@XZ       004a4810 f   Model_md5.obj
 0001:000a3870       ??1idMD5Mesh@@QAE@XZ       004a4870 f   Model_md5.obj
 0001:000a38f0       ?Bounds@idRenderModelMD5@@UBE?AVidBounds@@PBUrenderEntity_s@@@Z 004a48f0 f   Model_md5.obj
 0001:000a3930       ?CalcBounds@idMD5Mesh@@QAE?AVidBounds@@PBVidJointMat@@@Z 004a4930 f   Model_md5.obj
 0001:000a39a0       ?DrawJoints@idRenderModelMD5@@ABEXPBUrenderEntity_s@@PBUviewDef_s@@@Z 004a49a0 f   Model_md5.obj
 0001:000a40e0       ?GetDefaultPose@idRenderModelMD5@@UBEPBVidJointQuat@@XZ 004a50e0 f   Model_md5.obj
 0001:000a40f0       ?GetJointHandle@idRenderModelMD5@@UBE?AW4jointHandle_t@@PBD@Z 004a50f0 f   Model_md5.obj
 0001:000a4140       ?GetJointName@idRenderModelMD5@@UBEPBDW4jointHandle_t@@@Z 004a5140 f   Model_md5.obj
 0001:000a4170       ?GetJoints@idRenderModelMD5@@UBEPBVidMD5Joint@@XZ 004a5170 f   Model_md5.obj
 0001:000a4180       ?InitFromFile@idRenderModelMD5@@UAEXPBD@Z 004a5180 f   Model_md5.obj
 0001:000a41a0       ?InstantiateDynamicModel@idRenderModelMD5@@UAEPAVidRenderModel@@PBUrenderEntity_s@@PBUviewDef_s@@PAV2@@Z 004a51a0 f   Model_md5.obj
 0001:000a45a0       ?List@idRenderModelMD5@@UBEXXZ 004a55a0 f   Model_md5.obj
 0001:000a46a0       ?LoadModel@idRenderModelMD5@@UAEXXZ 004a56a0 f   Model_md5.obj
 0001:000a4f50       ?Memory@idRenderModelMD5@@UBEHXZ 004a5f50 f   Model_md5.obj
 0001:000a4ff0       ?NearestJoint@idRenderModelMD5@@UBEHHHHH@Z 004a5ff0 f   Model_md5.obj
 0001:000a50e0       ?GetCursorNum@idDeviceContext@@QAEHXZ 004a60e0 f   DeviceContext.obj
 0001:000a50e0       ?NumJoints@idRenderModelMD5@@UBEHXZ 004a60e0 f   Model_md5.obj
 0001:000a50f0       ?ParseMesh@idMD5Mesh@@QAEXAAVidLexer@@HPBVidJointMat@@@Z 004a60f0 f   Model_md5.obj
 0001:000a58e0       ?Print@idRenderModelMD5@@UBEXXZ 004a68e0 f   Model_md5.obj
 0001:000a5a10       ?PurgeModel@idRenderModelMD5@@UAEXXZ 004a6a10 f   Model_md5.obj
 0001:000a5b20       ?Resize@?$idList@VidJointQuat@@@@QAEXH@Z 004a6b20 f i Model_md5.obj
 0001:000a5bf0       ?Resize@?$idList@VidMD5Joint@@@@QAEXH@Z 004a6bf0 f i Model_md5.obj
 0001:000a5db0       ?Resize@?$idList@VidMD5Mesh@@@@QAEXH@Z 004a6db0 f i Model_md5.obj
 0001:000a5fe0       ?TouchData@idRenderModelMD5@@UAEXXZ 004a6fe0 f   Model_md5.obj
 0001:000a6020       ?TransformScaledVerts@idMD5Mesh@@AAEXPAVidDrawVert@@PBVidJointMat@@M@Z 004a7020 f   Model_md5.obj
 0001:000a6090       ?UpdateSurface@idMD5Mesh@@QAEXPBUrenderEntity_s@@PBVidJointMat@@PAUmodelSurface_s@@@Z 004a7090 f   Model_md5.obj
 0001:000a6380       ??0idRenderModelPrt@@QAE@XZ 004a7380 f   Model_prt.obj
 0001:000a63a0       ??_EidRenderModelPrt@@UAEPAXI@Z 004a73a0 f i Model_prt.obj
 0001:000a63a0       ??_GidRenderModelPrt@@UAEPAXI@Z 004a73a0 f i Model_prt.obj
 0001:000a63c0       ?Bounds@idRenderModelPrt@@UBE?AVidBounds@@PBUrenderEntity_s@@@Z 004a73c0 f   Model_prt.obj
 0001:000a63e0       ?DepthHack@idRenderModelPrt@@UBEMXZ 004a73e0 f   Model_prt.obj
 0001:000a63f0       ?InitFromFile@idRenderModelPrt@@UAEXPBD@Z 004a73f0 f   Model_prt.obj
 0001:000a6420       ?InstantiateDynamicModel@idRenderModelPrt@@UAEPAVidRenderModel@@PBUrenderEntity_s@@PBUviewDef_s@@PAV2@@Z 004a7420 f   Model_prt.obj
 0001:000a6910       ?Memory@idRenderModelPrt@@UBEHXZ 004a7910 f   Model_prt.obj
 0001:000a6930       ?TouchData@idRenderModelPrt@@UAEXXZ 004a7930 f   Model_prt.obj
 0001:000a6950       ?Bounds@idRenderModelSprite@@UBE?AVidBounds@@PBUrenderEntity_s@@@Z 004a7950 f   Model_sprite.obj
 0001:000a6a20       ?InstantiateDynamicModel@idRenderModelSprite@@UAEPAVidRenderModel@@PBUrenderEntity_s@@PBUviewDef_s@@PAV2@@Z 004a7a20 f   Model_sprite.obj
 0001:000a6f50       ?AddDecalDrawSurf@idRenderModelDecal@@QAEXPAUviewEntity_s@@@Z 004a7f50 f   ModelDecal.obj
 0001:000a71e0       ?AddWinding@idRenderModelDecal@@AAEXABVidWinding@@PBVidMaterial@@QBVidPlane@@MH@Z 004a81e0 f   ModelDecal.obj
 0001:000a74d0       ?Alloc@idRenderModelDecal@@SAPAV1@XZ 004a84d0 f   ModelDecal.obj
 0001:000a7530       ?CreateDecal@idRenderModelDecal@@QAEXPBVidRenderModel@@ABUdecalProjectionInfo_s@@@Z 004a8530 f   ModelDecal.obj
 0001:000a7d90       ?CreateProjectionInfo@idRenderModelDecal@@SA_NAAUdecalProjectionInfo_s@@ABVidFixedWinding@@ABVidVec3@@_NMPBVidMaterial@@H@Z 004a8d90 f   ModelDecal.obj
 0001:000a84c0       ?Free@idRenderModelDecal@@SAXPAV1@@Z 004a94c0 f   ModelDecal.obj
 0001:000a84e0       ?GlobalProjectionInfoToLocal@idRenderModelDecal@@SAXAAUdecalProjectionInfo_s@@ABU2@ABVidVec3@@ABVidMat3@@@Z 004a94e0 f   ModelDecal.obj
 0001:000a8700       ?RemoveFadedDecals@idRenderModelDecal@@SAPAV1@PAV1@H@Z 004a9700 f   ModelDecal.obj
 0001:000a8a10       ?Init@idRenderModelManagerLocal@@UAEXXZ 004a9a10 f   ModelManager.obj
 0001:000a8bc0       ?Shutdown@idRenderModelManagerLocal@@UAEXXZ 004a9bc0 f   ModelManager.obj
 0001:000a8c20       ?AllocModel@idRenderModelManagerLocal@@UAEPAVidRenderModel@@XZ 004a9c20 f   ModelManager.obj
 0001:000a8c80       ?FreeModel@idRenderModelManagerLocal@@UAEXPAVidRenderModel@@@Z 004a9c80 f   ModelManager.obj
 0001:000a8d40       ?FindModel@idRenderModelManagerLocal@@UAEPAVidRenderModel@@PBD@Z 004a9d40 f   ModelManager.obj
 0001:000a8d50       ?CheckModel@idRenderModelManagerLocal@@UAEPAVidRenderModel@@PBD@Z 004a9d50 f   ModelManager.obj
 0001:000a8d60       ?DefaultModel@idRenderModelManagerLocal@@UAEPAVidRenderModel@@XZ 004a9d60 f   ModelManager.obj
 0001:000a8d60       ?GetDescription@idSoundShader@@UBEPBDXZ 004a9d60 f   snd_shader.obj
 0001:000a8d60       ?MotMeanY@codec@@QAEHXZ    004a9d60 f   codec.obj
 0001:000a8d70       ?AddModel@idRenderModelManagerLocal@@UAEXPAVidRenderModel@@@Z 004a9d70 f   ModelManager.obj
 0001:000a8e70       ?RemoveModel@idRenderModelManagerLocal@@UAEXPAVidRenderModel@@@Z 004a9e70 f   ModelManager.obj
 0001:000a8f30       ?ReloadModels@idRenderModelManagerLocal@@UAEX_N@Z 004a9f30 f   ModelManager.obj
 0001:000a8ff0       ?FreeModelVertexCaches@idRenderModelManagerLocal@@UAEXXZ 004a9ff0 f   ModelManager.obj
 0001:000a9020       ?WritePrecacheCommands@idRenderModelManagerLocal@@UAEXPAVidFile@@@Z 004aa020 f   ModelManager.obj
 0001:000a90b0       ?BeginLevelLoad@idRenderModelManagerLocal@@UAEXXZ 004aa0b0 f   ModelManager.obj
 0001:000a9110       ?EndLevelLoad@idRenderModelManagerLocal@@UAEXXZ 004aa110 f   ModelManager.obj
 0001:000a92c0       ?PrintMemInfo@idRenderModelManagerLocal@@UAEXPAUMemInfo_t@@@Z 004aa2c0 f   ModelManager.obj
 0001:000a9520       ??_EidRenderModelManagerLocal@@UAEPAXI@Z 004aa520 f i ModelManager.obj
 0001:000a9520       ??_GidRenderModelManagerLocal@@UAEPAXI@Z 004aa520 f i ModelManager.obj
 0001:000a95b0       ??1idRenderModelManager@@UAE@XZ 004aa5b0 f i ModelManager.obj
 0001:000a95c0       ??_EidRenderModelBeam@@UAEPAXI@Z 004aa5c0 f i ModelManager.obj
 0001:000a95c0       ??_EidRenderModelSprite@@UAEPAXI@Z 004aa5c0 f i ModelManager.obj
 0001:000a95c0       ??_GidRenderModelBeam@@UAEPAXI@Z 004aa5c0 f i ModelManager.obj
 0001:000a95c0       ??_GidRenderModelSprite@@UAEPAXI@Z 004aa5c0 f i ModelManager.obj
 0001:000a95e0       ??_EidRenderModelMD3@@UAEPAXI@Z 004aa5e0 f i ModelManager.obj
 0001:000a95e0       ??_GidRenderModelMD3@@UAEPAXI@Z 004aa5e0 f i ModelManager.obj
 0001:000a9600       ??_EidRenderModelMD5@@UAEPAXI@Z 004aa600 f i ModelManager.obj
 0001:000a9600       ??_GidRenderModelMD5@@UAEPAXI@Z 004aa600 f i ModelManager.obj
 0001:000a9720       ??_EidRenderModelManager@@UAEPAXI@Z 004aa720 f i ModelManager.obj
 0001:000a9720       ??_GidRenderModelManager@@UAEPAXI@Z 004aa720 f i ModelManager.obj
 0001:000a9750       ?GetModel@idRenderModelManagerLocal@@AAEPAVidRenderModel@@PBD_N@Z 004aa750 f   ModelManager.obj
 0001:000a9b70       ?ListModels_f@idRenderModelManagerLocal@@CAXABVidCmdArgs@@@Z 004aab70 f   ModelManager.obj
 0001:000a9c40       ?PrintModel_f@idRenderModelManagerLocal@@CAXABVidCmdArgs@@@Z 004aac40 f   ModelManager.obj
 0001:000a9ca0       ?ReloadModels_f@idRenderModelManagerLocal@@CAXABVidCmdArgs@@@Z 004aaca0 f   ModelManager.obj
 0001:000a9ce0       ?RemoveIndex@idHashIndex@@QAEXHH@Z 004aace0 f i ModelManager.obj
 0001:000a9dc0       ?TouchModel_f@idRenderModelManagerLocal@@CAXABVidCmdArgs@@@Z 004aadc0 f   ModelManager.obj
 0001:000a9e30       ?AddOverlaySurfacesToModel@idRenderModelOverlay@@QAEXPAVidRenderModel@@@Z 004aae30 f   ModelOverlay.obj
 0001:000aa300       ?Alloc@idRenderModelOverlay@@SAPAV1@XZ 004ab300 f   ModelOverlay.obj
 0001:000aa340       ?CreateOverlay@idRenderModelOverlay@@QAEXPBVidRenderModel@@QBVidPlane@@PBVidMaterial@@@Z 004ab340 f   ModelOverlay.obj
 0001:000aa860       ?Free@idRenderModelOverlay@@SAXPAV1@@Z 004ab860 f   ModelOverlay.obj
 0001:000aa9b0       ?RemoveOverlaySurfacesFromModel@idRenderModelOverlay@@SAXPAVidRenderModel@@@Z 004ab9b0 f   ModelOverlay.obj
 0001:000aa9d0       ??0idRenderEntityLocal@@QAE@XZ 004ab9d0 f   RenderEntity.obj
 0001:000aab00       ??0idRenderLightLocal@@QAE@XZ 004abb00 f   RenderEntity.obj
 0001:000aac50       ??_EidRenderEntity@@UAEPAXI@Z 004abc50 f i RenderEntity.obj
 0001:000aac50       ??_GidRenderEntity@@UAEPAXI@Z 004abc50 f i RenderEntity.obj
 0001:000aac80       ??_EidRenderEntityLocal@@UAEPAXI@Z 004abc80 f i RenderEntity.obj
 0001:000aac80       ??_GidRenderEntityLocal@@UAEPAXI@Z 004abc80 f i RenderEntity.obj
 0001:000aacb0       ??_EidRenderLight@@UAEPAXI@Z 004abcb0 f i RenderEntity.obj
 0001:000aacb0       ??_GidRenderLight@@UAEPAXI@Z 004abcb0 f i RenderEntity.obj
 0001:000aace0       ??_EidRenderLightLocal@@UAEPAXI@Z 004abce0 f i RenderEntity.obj
 0001:000aace0       ??_GidRenderLightLocal@@UAEPAXI@Z 004abce0 f i RenderEntity.obj
 0001:000aad10       ?GetIndex@idRenderEntityLocal@@UAEHXZ 004abd10 f   RenderEntity.obj
 0001:000aad20       ?GetIndex@idRenderLightLocal@@UAEHXZ 004abd20 f   RenderEntity.obj
 0001:000aad30       ??1idRenderSystem@@UAE@XZ  004abd30 f i RenderSystem.obj
 0001:000aad40       ??_EidRenderSystem@@UAEPAXI@Z 004abd40 f i RenderSystem.obj
 0001:000aad40       ??_GidRenderSystem@@UAEPAXI@Z 004abd40 f i RenderSystem.obj
 0001:000aad70       ??_EidRenderSystemLocal@@UAEPAXI@Z 004abd70 f i RenderSystem.obj
 0001:000aad70       ??_GidRenderSystemLocal@@UAEPAXI@Z 004abd70 f i RenderSystem.obj
 0001:000aadc0       ?AllocRenderWorld@idRenderSystemLocal@@UAEPAVidRenderWorld@@XZ 004abdc0 f   RenderSystem.obj
 0001:000aae80       ?BeginFrame@idRenderSystemLocal@@UAEXHH@Z 004abe80 f   RenderSystem.obj
 0001:000aafc0       ?CaptureRenderToFile@idRenderSystemLocal@@UAEXPBD_N@Z 004abfc0 f   RenderSystem.obj
 0001:000ab0b0       ?CaptureRenderToImage@idRenderSystemLocal@@UAEXPBD@Z 004ac0b0 f   RenderSystem.obj
 0001:000ab1b0       ?CropRenderSize@idRenderSystemLocal@@UAEXHH_N0@Z 004ac1b0 f   RenderSystem.obj
 0001:000ab460       ?DrawBigChar@idRenderSystemLocal@@UAEXHHHPBVidMaterial@@@Z 004ac460 f   RenderSystem.obj
 0001:000ab510       ?DrawBigStringExt@idRenderSystemLocal@@UAEXHHPBDABVidVec4@@_NPBVidMaterial@@@Z 004ac510 f   RenderSystem.obj
 0001:000ab5e0       ?DrawDemoPics@idRenderSystemLocal@@UAEXXZ 004ac5e0 f   RenderSystem.obj
 0001:000ab5f0       ?DrawSmallChar@idRenderSystemLocal@@UAEXHHHPBVidMaterial@@@Z 004ac5f0 f   RenderSystem.obj
 0001:000ab6a0       ?DrawSmallStringExt@idRenderSystemLocal@@UAEXHHPBDABVidVec4@@_NPBVidMaterial@@@Z 004ac6a0 f   RenderSystem.obj
 0001:000ab770       ?DrawStretchPic@idRenderSystemLocal@@UAEXMMMMMMMMPBVidMaterial@@@Z 004ac770 f   RenderSystem.obj
 0001:000ab7f0       ?DrawStretchPic@idRenderSystemLocal@@UAEXPBVidDrawVert@@PBHHHPBVidMaterial@@_NMMMM@Z 004ac7f0 f   RenderSystem.obj
 0001:000ab850       ?DrawStretchTri@idRenderSystemLocal@@UAEXVidVec2@@00000PBVidMaterial@@@Z 004ac850 f   RenderSystem.obj
 0001:000ab8a0       ?EndFrame@idRenderSystemLocal@@UAEXPAH0@Z 004ac8a0 f   RenderSystem.obj
 0001:000ab9d0       ?FreeRenderWorld@idRenderSystemLocal@@UAEXPAVidRenderWorld@@@Z 004ac9d0 f   RenderSystem.obj
 0001:000aba40       ?GetGLSettings@idRenderSystemLocal@@UAEXAAH0@Z 004aca40 f   RenderSystem.obj
 0001:000aba60       ?GlobalToNormalizedDeviceCoordinates@idRenderSystemLocal@@UAEXABVidVec3@@AAV2@@Z 004aca60 f   RenderSystem.obj
 0001:000aba80       ?PrintMemInfo@idRenderSystemLocal@@UAEXPAUMemInfo_t@@@Z 004aca80 f   RenderSystem.obj
 0001:000abaa0       ?R_AddDrawViewCmd@@YAXPAUviewDef_s@@@Z 004acaa0 f   RenderSystem.obj
 0001:000abb20       ?R_ClearCommandChain@@YAXXZ 004acb20 f   RenderSystem.obj
 0001:000abbd0       ?R_LockSurfaceScene@@YAXPAUviewDef_s@@@Z 004acbd0 f   RenderSystem.obj
 0001:000abfa0       ?RenderViewToViewport@idRenderSystemLocal@@QAEXPBUrenderView_s@@PAVidScreenRect@@@Z 004acfa0 f   RenderSystem.obj
 0001:000ac150       ?SetBackEndRenderer@idRenderSystemLocal@@QAEXXZ 004ad150 f   RenderSystem.obj
 0001:000ac3a0       ?SetColor4@idRenderSystemLocal@@UAEXMMMM@Z 004ad3a0 f   RenderSystem.obj
 0001:000ac3e0       ?SetColor@idRenderSystemLocal@@UAEXABVidVec4@@@Z 004ad3e0 f   RenderSystem.obj
 0001:000ac400       ?UnCrop@idRenderSystemLocal@@UAEXXZ 004ad400 f   RenderSystem.obj
 0001:000ac490       ?UploadImage@idRenderSystemLocal@@UAE_NPBDPBEHH@Z 004ad490 f   RenderSystem.obj
 0001:000ac4d0       ?WriteDemoPics@idRenderSystemLocal@@UAEXXZ 004ad4d0 f   RenderSystem.obj
 0001:000ac510       ??$ArgCompletion_Integer@$0?1$01@idCmdSystem@@SAXABVidCmdArgs@@P6AXPBD@Z@Z 004ad510 f i RenderSystem_init.obj
 0001:000ac550       ??$ArgCompletion_Integer@$0A@$00@idCmdSystem@@SAXABVidCmdArgs@@P6AXPBD@Z@Z 004ad550 f i RenderSystem_init.obj
 0001:000ac590       ??$ArgCompletion_Integer@$0A@$03@idCmdSystem@@SAXABVidCmdArgs@@P6AXPBD@Z@Z 004ad590 f i RenderSystem_init.obj
 0001:000ac5d0       ??$ArgCompletion_String@$1?r_rendererArgs@@3PAPBDA@idCmdSystem@@SAXABVidCmdArgs@@P6AXPBD@Z@Z 004ad5d0 f i RenderSystem_init.obj
 0001:000ac620       ??$_Emplace_reallocate@ABH@?$vector@HV?$allocator@H@std@@@std@@AAEPAHQAHABH@Z 004ad620 f i RenderSystem_init.obj
 0001:000ac780       ??0bad_alloc@std@@QAE@ABV01@@Z 004ad780 f i RenderSystem_init.obj
 0001:000ac7b0       ??0bad_array_new_length@std@@QAE@ABV01@@Z 004ad7b0 f i RenderSystem_init.obj
 0001:000ac7e0       ??0bad_array_new_length@std@@QAE@XZ 004ad7e0 f i RenderSystem_init.obj
 0001:000ac800       ??0exception@std@@QAE@ABV01@@Z 004ad800 f i RenderSystem_init.obj
 0001:000ac830       ??1?$vector@HV?$allocator@H@std@@@std@@QAE@XZ 004ad830 f i RenderSystem_init.obj
 0001:000ac890       ??1__non_rtti_object@std@@UAE@XZ 004ad890 f i libvcruntime:rtti.obj
 0001:000ac890       ??1bad_alloc@std@@UAE@XZ   004ad890 f i libcmt:throw_bad_alloc.obj
 0001:000ac890       ??1bad_array_new_length@std@@UAE@XZ 004ad890 f i RenderSystem_init.obj
 0001:000ac890       ??1bad_cast@std@@UAE@XZ    004ad890 f i libvcruntime:rtti.obj
 0001:000ac890       ??1bad_exception@std@@UAE@XZ 004ad890 f i libvcruntime:frame.obj
 0001:000ac890       ??1length_error@std@@UAE@XZ 004ad890 f i libcpmt:xthrow.obj
 0001:000ac8b0       ??4renderView_s@@QAEAAU0@ABU0@@Z 004ad8b0 f i RenderSystem_init.obj
 0001:000ac9a0       ??4viewDef_s@@QAEAAU0@ABU0@@Z 004ad9a0 f i RenderSystem_init.obj
 0001:000acc40       ??_Ebad_alloc@std@@UAEPAXI@Z 004adc40 f i RenderSystem_init.obj
 0001:000acc40       ??_Ebad_array_new_length@std@@UAEPAXI@Z 004adc40 f i RenderSystem_init.obj
 0001:000acc40       ??_Eexception@std@@UAEPAXI@Z 004adc40 f i RenderSystem_init.obj
 0001:000acc40       ??_Gbad_alloc@std@@UAEPAXI@Z 004adc40 f i RenderSystem_init.obj
 0001:000acc40       ??_Gbad_array_new_length@std@@UAEPAXI@Z 004adc40 f i RenderSystem_init.obj
 0001:000acc40       ??_Gexception@std@@UAEPAXI@Z 004adc40 f i RenderSystem_init.obj
 0001:000acc70       ??_GidGuiModel@@QAEPAXI@Z  004adc70 f i RenderSystem_init.obj
 0001:000acd00       ?ArgCompletion_ImageName@idCmdSystem@@SAXABVidCmdArgs@@P6AXPBD@Z@Z 004add00 f i RenderSystem_init.obj
 0001:000acd40       ?ArgCompletion_VideoName@idCmdSystem@@SAXABVidCmdArgs@@P6AXPBD@Z@Z 004add40 f i RenderSystem_init.obj
 0001:000acd70       ?BeginLevelLoad@idRenderSystemLocal@@UAEXXZ 004add70 f   RenderSystem_init.obj
 0001:000acd90       ?CheckIfResolutionModeIsSupported@idRenderSystemLocal@@UAE_NH@Z 004add90 f   RenderSystem_init.obj
 0001:000acdd0       ?Clear@idRenderSystemLocal@@QAEXXZ 004addd0 f   RenderSystem_init.obj
 0001:000acf60       ?EndLevelLoad@idRenderSystemLocal@@UAEXXZ 004adf60 f   RenderSystem_init.obj
 0001:000acf90       ?GL_CheckErrors@@YAXXZ     004adf90 f   RenderSystem_init.obj
 0001:000ad0c0       ?GetCardCaps@idRenderSystemLocal@@UAEXAA_N0@Z 004ae0c0 f   RenderSystem_init.obj
 0001:000ad110       ?GetScreenHeight@idRenderSystemLocal@@UBEHXZ 004ae110 f   RenderSystem_init.obj
 0001:000ad120       ?GetScreenWidth@idRenderSystemLocal@@UBEHXZ 004ae120 f   RenderSystem_init.obj
 0001:000ad130       ?GfxInfo_f@@YAXABVidCmdArgs@@@Z 004ae130 f   RenderSystem_init.obj
 0001:000ad500       ?Init@idRenderSystemLocal@@UAEXXZ 004ae500 f   RenderSystem_init.obj
 0001:000ad6c0       ?InitOpenGL@idRenderSystemLocal@@UAEXXZ 004ae6c0 f   RenderSystem_init.obj
 0001:000ad700       ?IsFullScreen@idRenderSystemLocal@@UBE_NXZ 004ae700 f   RenderSystem_init.obj
 0001:000ad710       ?IsOpenGLRunning@idRenderSystemLocal@@UBE_NXZ 004ae710 f   RenderSystem_init.obj
 0001:000ad720       ?R_Benchmark_f@@YAXABVidCmdArgs@@@Z 004ae720 f   RenderSystem_init.obj
 0001:000ae410       ?R_EnvShot_f@@YAXABVidCmdArgs@@@Z 004af410 f   RenderSystem_init.obj
 0001:000ae7a0       ?R_InitCommands@@YAXXZ     004af7a0 f   RenderSystem_init.obj
 0001:000aea80       ?R_InitOpenGL@@YAXXZ       004afa80 f   RenderSystem_init.obj
 0001:000aee30       ?R_MakeAmbientMap_f@@YAXABVidCmdArgs@@@Z 004afe30 f   RenderSystem_init.obj
 0001:000af6b0       ?R_ReadTiledPixels@@YAXHHPAEPAUrenderView_s@@@Z 004b06b0 f   RenderSystem_init.obj
 0001:000afa30       ?R_ReportImageDuplication_f@@YAXABVidCmdArgs@@@Z 004b0a30 f   RenderSystem_init.obj
 0001:000afcb0       ?R_ReportSurfaceAreas_f@@YAXABVidCmdArgs@@@Z 004b0cb0 f   RenderSystem_init.obj
 0001:000afe00       ?R_SampleCubeMap@@YAXABVidVec3@@HQAPAEQAE@Z 004b0e00 f   RenderSystem_init.obj
 0001:000b0140       ?R_ScreenShot_f@@YAXABVidCmdArgs@@@Z 004b1140 f   RenderSystem_init.obj
 0001:000b0310       ?R_ScreenshotFilename@@YAXAAHPBDAAVidStr@@@Z 004b1310 f   RenderSystem_init.obj
 0001:000b0430       ?R_SetColorMappings@@YAXXZ 004b1430 f   RenderSystem_init.obj
 0001:000b0560       ?R_SetDisplayDeviceSupportedResolutionsInfoStrings@@YAXXZ 004b1560 f   RenderSystem_init.obj
 0001:000b0da0       ?R_TestImage_f@@YAXABVidCmdArgs@@@Z 004b1da0 f   RenderSystem_init.obj
 0001:000b0e40       ?R_TestVideo_f@@YAXABVidCmdArgs@@@Z 004b1e40 f   RenderSystem_init.obj
 0001:000b1140       ?R_TouchGui_f@@YAXABVidCmdArgs@@@Z 004b2140 f   RenderSystem_init.obj
 0001:000b11a0       ?R_VidRestart_f@@YAXABVidCmdArgs@@@Z 004b21a0 f   RenderSystem_init.obj
 0001:000b1510       ?Shutdown@idRenderSystemLocal@@UAEXXZ 004b2510 f   RenderSystem_init.obj
 0001:000b1760       ?ShutdownOpenGL@idRenderSystemLocal@@UAEXXZ 004b2760 f   RenderSystem_init.obj
 0001:000b1780       ?TakeScreenshot@idRenderSystemLocal@@UAEXHHPBDHPAUrenderView_s@@@Z 004b2780 f   RenderSystem_init.obj
 0001:000b1a10       ?_Throw_bad_array_new_length@std@@YAXXZ 004b2a10 f i RenderSystem_init.obj
 0001:000b1a30       ?_Xlength@?$vector@HV?$allocator@H@std@@@std@@CAXXZ 004b2a30 f i RenderSystem_init.obj
 0001:000b1a40       ?what@exception@std@@UBEPBDXZ 004b2a40 f i RenderSystem_init.obj
 0001:000b1a50       _fprintf                   004b2a50 f i RenderSystem_init.obj
 0001:000b1a80       ??0idRenderWorldLocal@@QAE@XZ 004b2a80 f   RenderWorld.obj
 0001:000b1c20       ??1?$idBlockAlloc@UareaNumRef_s@@$0EAA@@@QAE@XZ 004b2c20 f i RenderWorld.obj
 0001:000b1c70       ??1?$idBlockAlloc@UareaReference_s@@$0EAA@@@QAE@XZ 004b2c70 f i RenderWorld.obj
 0001:000b1cc0       ??1?$idBlockAlloc@VidInteraction@@$0BAA@@@QAE@XZ 004b2cc0 f i RenderWorld.obj
 0001:000b1d10       ??1idRenderWorld@@UAE@XZ   004b2d10 f i RenderWorld.obj
 0001:000b1d20       ??4renderEntity_s@@QAEAAU0@ABU0@@Z 004b2d20 f i RenderWorld.obj
 0001:000b1ef0       ??4renderLight_s@@QAEAAU0@ABU0@@Z 004b2ef0 f i RenderWorld.obj
 0001:000b2090       ??8idMat3@@QBE_NABV0@@Z    004b3090 f i RenderWorld.obj
 0001:000b2130       ??8idVec3@@QBE_NABV0@@Z    004b3130 f i RenderWorld.obj
 0001:000b2170       ??_EidRenderWorld@@UAEPAXI@Z 004b3170 f i RenderWorld.obj
 0001:000b2170       ??_GidRenderWorld@@UAEPAXI@Z 004b3170 f i RenderWorld.obj
 0001:000b21a0       ??_EidRenderWorldLocal@@UAEPAXI@Z 004b31a0 f i RenderWorld.obj
 0001:000b21a0       ??_GidRenderWorldLocal@@UAEPAXI@Z 004b31a0 f i RenderWorld.obj
 0001:000b22b0       ?AddEntityDef@idRenderWorldLocal@@UAEHPBUrenderEntity_s@@@Z 004b32b0 f   RenderWorld.obj
 0001:000b2340       ?AddEntityRefToArea@idRenderWorldLocal@@QAEXPAVidRenderEntityLocal@@PAUportalArea_s@@@Z 004b3340 f   RenderWorld.obj
 0001:000b23a0       ?AddLightDef@idRenderWorldLocal@@UAEHPBUrenderLight_s@@@Z 004b33a0 f   RenderWorld.obj
 0001:000b2430       ?AddLightRefToArea@idRenderWorldLocal@@QAEXPAVidRenderLightLocal@@PAUportalArea_s@@@Z 004b3430 f   RenderWorld.obj
 0001:000b2480       ?Alloc@?$idBlockAlloc@UareaReference_s@@$0EAA@@@QAEPAUareaReference_s@@XZ 004b3480 f i RenderWorld.obj
 0001:000b24f0       ?BoundsInAreas@idRenderWorldLocal@@UBEHABVidBounds@@PAHH@Z 004b34f0 f   RenderWorld.obj
 0001:000b2530       ?BoundsInAreas_r@idRenderWorldLocal@@QBEXHABVidBounds@@PAH1H@Z 004b3530 f   RenderWorld.obj
 0001:000b25e0       ?DebugArrow@idRenderWorldLocal@@UAEXABVidVec4@@ABVidVec3@@1HH@Z 004b35e0 f   RenderWorld.obj
 0001:000b2b20       ?DebugAxis@idRenderWorldLocal@@UAEXABVidVec3@@ABVidMat3@@@Z 004b3b20 f   RenderWorld.obj
 0001:000b2dd0       ?DebugBounds@idRenderWorldLocal@@UAEXABVidVec4@@ABVidBounds@@ABVidVec3@@H@Z 004b3dd0 f   RenderWorld.obj
 0001:000b2f40       ?DebugBox@idRenderWorldLocal@@UAEXABVidVec4@@ABVidBox@@H@Z 004b3f40 f   RenderWorld.obj
 0001:000b2fe0       ?DebugCircle@idRenderWorldLocal@@UAEXABVidVec4@@ABVidVec3@@1MHH_N@Z 004b3fe0 f   RenderWorld.obj
 0001:000b33c0       ?DebugClearLines@idRenderWorldLocal@@UAEXH@Z 004b43c0 f   RenderWorld.obj
 0001:000b33e0       ?DebugClearPolygons@idRenderWorldLocal@@UAEXH@Z 004b43e0 f   RenderWorld.obj
 0001:000b33f0       ?DebugCone@idRenderWorldLocal@@UAEXABVidVec4@@ABVidVec3@@1MMH@Z 004b43f0 f   RenderWorld.obj
 0001:000b3d10       ?DebugFrustum@idRenderWorldLocal@@UAEXABVidVec4@@ABVidFrustum@@_NH@Z 004b4d10 f   RenderWorld.obj
 0001:000b3e10       ?DebugLine@idRenderWorldLocal@@UAEXABVidVec4@@ABVidVec3@@1H_N@Z 004b4e10 f   RenderWorld.obj
 0001:000b3e30       ?DebugPolygon@idRenderWorldLocal@@UAEXABVidVec4@@ABVidWinding@@H_N@Z 004b4e30 f   RenderWorld.obj
 0001:000b3e50       ?DebugScreenRect@idRenderWorldLocal@@UAEXABVidVec4@@ABVidScreenRect@@PBUviewDef_s@@H@Z 004b4e50 f   RenderWorld.obj
 0001:000b41b0       ?DebugSphere@idRenderWorldLocal@@UAEXABVidVec4@@ABVidSphere@@H_N@Z 004b51b0 f   RenderWorld.obj
 0001:000b4840       ?DebugWinding@idRenderWorldLocal@@UAEXABVidVec4@@ABVidWinding@@ABVidVec3@@ABVidMat3@@H_N@Z 004b5840 f   RenderWorld.obj
 0001:000b49f0       ?DrawTextA@idRenderWorldLocal@@UAEXPBDABVidVec3@@MABVidVec4@@ABVidMat3@@HH_N@Z 004b59f0 f   RenderWorld.obj
 0001:000b4a30       ?FastWorldTrace@idRenderWorldLocal@@UBE_NAAUmodelTrace_s@@ABVidVec3@@1@Z 004b5a30 f   RenderWorld.obj
 0001:000b4a90       ?FreeEntityDef@idRenderWorldLocal@@UAEXH@Z 004b5a90 f   RenderWorld.obj
 0001:000b4b50       ?FreeInteractions@idRenderWorldLocal@@QAEXXZ 004b5b50 f   RenderWorld.obj
 0001:000b4b90       ?FreeLightDef@idRenderWorldLocal@@UAEXH@Z 004b5b90 f   RenderWorld.obj
 0001:000b4c20       ?GenerateAllInteractions@idRenderWorldLocal@@UAEXXZ 004b5c20 f   RenderWorld.obj
 0001:000b4db0       ?GetPortal@idRenderWorldLocal@@UAE?AUexitPortal_t@@HH@Z 004b5db0 f   RenderWorld.obj
 0001:000b4e60       ?GetRenderEntity@idRenderWorldLocal@@UBEPBUrenderEntity_s@@H@Z 004b5e60 f   RenderWorld.obj
 0001:000b4ec0       ?GetRenderLight@idRenderWorldLocal@@UBEPBUrenderLight_s@@H@Z 004b5ec0 f   RenderWorld.obj
 0001:000b4f20       ?GuiTrace@idRenderWorldLocal@@UBE?AUguiPoint_t@@HVidVec3@@0@Z 004b5f20 f   RenderWorld.obj
 0001:000b5230       ?IntersectsBounds@idBounds@@QBE_NABV1@@Z 004b6230 f i RenderWorld.obj
 0001:000b5280       ?ModelTrace@idRenderWorldLocal@@UBE_NAAUmodelTrace_s@@HABVidVec3@@1M@Z 004b6280 f   RenderWorld.obj
 0001:000b5620       ?NormalVectors@idVec3@@QBEXAAV1@0@Z 004b6620 f i RenderWorld.obj
 0001:000b5760       ?NumPortalsInArea@idRenderWorldLocal@@UAEHH@Z 004b6760 f   RenderWorld.obj
 0001:000b57b0       ?OrthogonalBasis@idVec3@@QBEXAAV1@0@Z 004b67b0 f i RenderWorld.obj
 0001:000b59b0       ?PointInArea@idRenderWorldLocal@@UBEHABVidVec3@@@Z 004b69b0 f   RenderWorld.obj
 0001:000b5a40       ?ProjectDecal@idRenderWorldLocal@@UAEXHABVidFixedWinding@@ABVidVec3@@_NMPBVidMaterial@@H@Z 004b6a40 f   RenderWorld.obj
 0001:000b5b80       ?ProjectDecalOntoWorld@idRenderWorldLocal@@UAEXABVidFixedWinding@@ABVidVec3@@_NMPBVidMaterial@@H@Z 004b6b80 f   RenderWorld.obj
 0001:000b5d70       ?ProjectOverlay@idRenderWorldLocal@@UAEXHQBVidPlane@@PBVidMaterial@@@Z 004b6d70 f   RenderWorld.obj
 0001:000b5df0       ?PushVolumeIntoTree@idRenderWorldLocal@@QAEXPAVidRenderEntityLocal@@PAVidRenderLightLocal@@HPBVidVec3@@@Z 004b6df0 f   RenderWorld.obj
 0001:000b5f80       ?PushVolumeIntoTree_r@idRenderWorldLocal@@QAEXPAVidRenderEntityLocal@@PAVidRenderLightLocal@@PBVidSphere@@HPBVidVec3@@H@Z 004b6f80 f   RenderWorld.obj
 0001:000b61d0       ?R_GlobalShaderOverride@@YA_NPAPBVidMaterial@@@Z 004b71d0 f   RenderWorld.obj
 0001:000b6220       ?R_ListRenderEntityDefs_f@@YAXABVidCmdArgs@@@Z 004b7220 f   RenderWorld.obj
 0001:000b62f0       ?R_ListRenderLightDefs_f@@YAXABVidCmdArgs@@@Z 004b72f0 f   RenderWorld.obj
 0001:000b63e0       ?R_RemapShaderBySkin@@YAPBVidMaterial@@PBV1@PBVidDeclSkin@@01@Z 004b73e0 f   RenderWorld.obj
 0001:000b6440       ?RecurseProcBSP_r@idRenderWorldLocal@@QBEXPAUmodelTrace_s@@HHMMABVidVec3@@1@Z 004b7440 f   RenderWorld.obj
 0001:000b66a0       ?RegenerateWorld@idRenderWorldLocal@@UAEXXZ 004b76a0 f   RenderWorld.obj
 0001:000b66c0       ?RemoveDecals@idRenderWorldLocal@@UAEXH@Z 004b76c0 f   RenderWorld.obj
 0001:000b6710       ?RenderScene@idRenderWorldLocal@@UAEXPBUrenderView_s@@@Z 004b7710 f   RenderWorld.obj
 0001:000b6940       ?SetRenderView@idRenderWorldLocal@@UAEXPBUrenderView_s@@@Z 004b7940 f   RenderWorld.obj
 0001:000b6950       ?Tan16@idMath@@SAMM@Z      004b7950 f i RenderWorld.obj
 0001:000b6a70       ?Trace@idRenderWorldLocal@@UBE_NAAUmodelTrace_s@@ABVidVec3@@1M_N2@Z 004b7a70 f   RenderWorld.obj
 0001:000b7310       ?UpdateEntityDef@idRenderWorldLocal@@UAEXHPBUrenderEntity_s@@@Z 004b8310 f   RenderWorld.obj
 0001:000b7600       ?UpdateLightDef@idRenderWorldLocal@@UAEXHPBUrenderLight_s@@@Z 004b8600 f   RenderWorld.obj
 0001:000b78b0       ?ProcessDemoCommand@idRenderWorldLocal@@UAE_NPAVidDemoFile@@PAUrenderView_s@@PAH@Z 004b88b0 f   RenderWorld_demo.obj
 0001:000b7e00       ?ReadRenderEntity@idRenderWorldLocal@@QAEXXZ 004b8e00 f   RenderWorld_demo.obj
 0001:000b8300       ?ReadRenderLight@idRenderWorldLocal@@QAEXXZ 004b9300 f   RenderWorld_demo.obj
 0001:000b85a0       ?StartWritingDemo@idRenderWorldLocal@@UAEXPAVidDemoFile@@@Z 004b95a0 f   RenderWorld_demo.obj
 0001:000b86f0       ?WriteFreeEntity@idRenderWorldLocal@@QAEXH@Z 004b96f0 f   RenderWorld_demo.obj
 0001:000b8750       ?WriteFreeLight@idRenderWorldLocal@@QAEXH@Z 004b9750 f   RenderWorld_demo.obj
 0001:000b87b0       ?WriteLoadMap@idRenderWorldLocal@@QAEXXZ 004b97b0 f   RenderWorld_demo.obj
 0001:000b8890       ?WriteRenderEntity@idRenderWorldLocal@@QAEXHPBUrenderEntity_s@@@Z 004b9890 f   RenderWorld_demo.obj
 0001:000b8c90       ?WriteRenderLight@idRenderWorldLocal@@QAEXHPBUrenderLight_s@@@Z 004b9c90 f   RenderWorld_demo.obj
 0001:000b8f00       ?WriteRenderView@idRenderWorldLocal@@QAEXPBUrenderView_s@@@Z 004b9f00 f   RenderWorld_demo.obj
 0001:000b90a0       ?WriteVisibleDefs@idRenderWorldLocal@@QAEXPBUviewDef_s@@@Z 004ba0a0 f   RenderWorld_demo.obj
 0001:000b9130       ?AddWorldModelEntities@idRenderWorldLocal@@QAEXXZ 004ba130 f   RenderWorld_load.obj
 0001:000b94e0       ?CheckAreaForPortalSky@idRenderWorldLocal@@UAE_NH@Z 004ba4e0 f   RenderWorld_load.obj
 0001:000b9520       ?ClearPortalStates@idRenderWorldLocal@@QAEXXZ 004ba520 f   RenderWorld_load.obj
 0001:000b9580       ?ClearWorld@idRenderWorldLocal@@QAEXXZ 004ba580 f   RenderWorld_load.obj
 0001:000b95e0       ?CommonChildrenArea_r@idRenderWorldLocal@@QAEHPAUareaNode_t@@@Z 004ba5e0 f   RenderWorld_load.obj
 0001:000b9660       ?FreeDefs@idRenderWorldLocal@@QAEXXZ 004ba660 f   RenderWorld_load.obj
 0001:000b96f0       ?FreeWorld@idRenderWorldLocal@@QAEXXZ 004ba6f0 f   RenderWorld_load.obj
 0001:000b9960       ?InitFromMap@idRenderWorldLocal@@UAE_NPBD@Z 004ba960 f   RenderWorld_load.obj
 0001:000b9d80       ?ParseInterAreaPortals@idRenderWorldLocal@@QAEXPAVidLexer@@@Z 004bad80 f   RenderWorld_load.obj
 0001:000ba000       ?ParseModel@idRenderWorldLocal@@QAEPAVidRenderModel@@PAVidLexer@@@Z 004bb000 f   RenderWorld_load.obj
 0001:000ba230       ?ParseShadowModel@idRenderWorldLocal@@QAEPAVidRenderModel@@PAVidLexer@@@Z 004bb230 f   RenderWorld_load.obj
 0001:000ba4a0       ?SetupAreaRefs@idRenderWorldLocal@@QAEXXZ 004bb4a0 f   RenderWorld_load.obj
 0001:000ba4f0       ??4idFixedWinding@@QAEAAV0@ABVidWinding@@@Z 004bb4f0 f i RenderWorld_portals.obj
 0001:000ba4f0       ??4idWinding@@QAEAAV0@ABV0@@Z 004bb4f0 f i tr_rendertools.obj
 0001:000ba560       ?AddAreaRefs@idRenderWorldLocal@@QAEXHPBUportalStack_s@@@Z 004bb560 f   RenderWorld_portals.obj
 0001:000ba720       ?AreasAreConnected@idRenderWorldLocal@@UAE_NHHW4portalConnection_t@@@Z 004bb720 f   RenderWorld_portals.obj
 0001:000ba7e0       ?BuildConnectedAreas_r@idRenderWorldLocal@@QAEXH@Z 004bb7e0 f   RenderWorld_portals.obj
 0001:000ba830       ?CullLightByPortals@idRenderWorldLocal@@QAE_NPBVidRenderLightLocal@@PBUportalStack_s@@@Z 004bb830 f   RenderWorld_portals.obj
 0001:000baa70       ?FindPortal@idRenderWorldLocal@@UBEHABVidBounds@@@Z 004bba70 f   RenderWorld_portals.obj
 0001:000bab60       ?FindViewLightsAndEntities@idRenderWorldLocal@@QAEXXZ 004bbb60 f   RenderWorld_portals.obj
 0001:000bae10       ?FloodConnectedAreas@idRenderWorldLocal@@QAEXPAUportalArea_s@@H@Z 004bbe10 f   RenderWorld_portals.obj
 0001:000bae70       ?FloodFrustumAreas@idRenderWorldLocal@@QAEPAUareaNumRef_s@@ABVidFrustum@@PAU2@@Z 004bbe70 f   RenderWorld_portals.obj
 0001:000bb0e0       ?FloodFrustumAreas_r@idRenderWorldLocal@@QAEPAUareaNumRef_s@@ABVidFrustum@@HABVidBounds@@PAU2@@Z 004bc0e0 f   RenderWorld_portals.obj
 0001:000bb330       ?FloodLightThroughArea_r@idRenderWorldLocal@@QAEXPAVidRenderLightLocal@@HPBUportalStack_s@@@Z 004bc330 f   RenderWorld_portals.obj
 0001:000bb870       ?FloodViewThroughArea_r@idRenderWorldLocal@@QAEXVidVec3@@HPBUportalStack_s@@@Z 004bc870 f   RenderWorld_portals.obj
 0001:000bbe50       ?FlowLightThroughPortals@idRenderWorldLocal@@QAEXPAVidRenderLightLocal@@@Z 004bce50 f   RenderWorld_portals.obj
 0001:000bc430       ?GetPortalState@idRenderWorldLocal@@UAEHH@Z 004bd430 f   RenderWorld_portals.obj
 0001:000bc470       ?NumPortals@idRenderWorldLocal@@UBEHXZ 004bd470 f   RenderWorld_portals.obj
 0001:000bc480       ?PortalIsFoggedOut@idRenderWorldLocal@@QAE_NPBUportal_s@@@Z 004bd480 f   RenderWorld_portals.obj
 0001:000bc590       ?SetPortalState@idRenderWorldLocal@@UAEXHH@Z 004bd590 f   RenderWorld_portals.obj
 0001:000bc680       ?ShowPortals@idRenderWorldLocal@@QAEXXZ 004bd680 f   RenderWorld_portals.obj
 0001:000bc780       ?GL_Cull@@YAXH@Z           004bd780 f   tr_backend.obj
 0001:000bc800       ?GL_SelectTexture@@YAXH@Z  004bd800 f   tr_backend.obj
 0001:000bc870       ?GL_State@@YAXH@Z          004bd870 f   tr_backend.obj
 0001:000bcbd0       ?GL_TexEnv@@YAXH@Z         004bdbd0 f   tr_backend.obj
 0001:000bcc40       ?RB_ExecuteBackEndCommands@@YAXPBUemptyCommand_t@@@Z 004bdc40 f   tr_backend.obj
 0001:000bcf20       ?RB_LogComment@@YAXPBDZZ   004bdf20 f   tr_backend.obj
 0001:000bcf60       ?RB_SetDefaultGLState@@YAXXZ 004bdf60 f   tr_backend.obj
 0001:000bd1e0       ?RB_SetGL2D@@YAXXZ         004be1e0 f   tr_backend.obj
 0001:000bd2b0       ?RB_ShowImages@@YAXXZ      004be2b0 f   tr_backend.obj
 0001:000bdd40       ?R_DeformDrawSurf@@YAXPAUdrawSurf_s@@@Z 004bed40 f   tr_deform.obj
 0001:000c1720       ?RegisterFont@idRenderSystemLocal@@UAE_NPBDAAUfontInfoEx_t@@@Z 004c2720 f   tr_font.obj
 0001:000c1b80       ?R_ListGuis_f@@YAXABVidCmdArgs@@@Z 004c2b80 f   tr_guisurf.obj
 0001:000c1b90       ?R_ReloadGuis_f@@YAXABVidCmdArgs@@@Z 004c2b90 f   tr_guisurf.obj
 0001:000c1bf0       ?R_RenderGuiSurf@@YAXPAVidUserInterface@@PAUdrawSurf_s@@@Z 004c2bf0 f   tr_guisurf.obj
 0001:000c1db0       ?R_SurfaceToTextureAxis@@YAXPBUsrfTriangles_s@@AAVidVec3@@QAV2@@Z 004c2db0 f   tr_guisurf.obj
 0001:000c2280       ?CreateLightDefInteractions@idRenderWorldLocal@@QAEXPAVidRenderLightLocal@@@Z 004c3280 f   tr_light.obj
 0001:000c2750       ?R_AddDrawSurf@@YAXPBUsrfTriangles_s@@PBUviewEntity_s@@PBUrenderEntity_s@@PBVidMaterial@@ABVidScreenRect@@@Z 004c3750 f   tr_light.obj
 0001:000c2af0       ?R_AddLightSurfaces@@YAXXZ 004c3af0 f   tr_light.obj
 0001:000c2f80       ?R_AddModelSurfaces@@YAXXZ 004c3f80 f   tr_light.obj
 0001:000c33a0       ?R_CalcLightScissorRectangle@@YA?AVidScreenRect@@PAUviewLight_s@@@Z 004c43a0 f   tr_light.obj
 0001:000c3680       ?R_ClippedLightScissorRectangle@@YA?AVidScreenRect@@PAUviewLight_s@@@Z 004c4680 f   tr_light.obj
 0001:000c3990       ?R_CreateAmbientCache@@YA_NPAUsrfTriangles_s@@_N@Z 004c4990 f   tr_light.obj
 0001:000c39f0       ?R_CreateLightingCache@@YA_NPBVidRenderEntityLocal@@PBVidRenderLightLocal@@PAUsrfTriangles_s@@@Z 004c49f0 f   tr_light.obj
 0001:000c3ad0       ?R_CreatePrivateShadowCache@@YAXPAUsrfTriangles_s@@@Z 004c4ad0 f   tr_light.obj
 0001:000c3b00       ?R_CreateVertexProgramShadowCache@@YAXPAUsrfTriangles_s@@@Z 004c4b00 f   tr_light.obj
 0001:000c3b60       ?R_EntityDefDynamicModel@@YAPAVidRenderModel@@PAVidRenderEntityLocal@@@Z 004c4b60 f   tr_light.obj
 0001:000c3f50       ?R_IssueEntityDefCallback@@YA_NPAVidRenderEntityLocal@@@Z 004c4f50 f   tr_light.obj
 0001:000c4100       ?R_LinkLightSurf@@YAXPAPBUdrawSurf_s@@PBUsrfTriangles_s@@PBUviewEntity_s@@PBVidRenderLightLocal@@PBVidMaterial@@ABVidScreenRect@@_N@Z 004c5100 f   tr_light.obj
 0001:000c4200       ?R_RemoveUnecessaryViewLights@@YAXXZ 004c5200 f   tr_light.obj
 0001:000c4380       ?R_SetEntityDefViewEntity@@YAPAUviewEntity_s@@PAVidRenderEntityLocal@@@Z 004c5380 f   tr_light.obj
 0001:000c4430       ?R_SetLightDefViewLight@@YAPAUviewLight_s@@PAVidRenderLightLocal@@@Z 004c5430 f   tr_light.obj
 0001:000c4640       ?R_SkyboxTexGen@@YAXPAUdrawSurf_s@@ABVidVec3@@@Z 004c5640 f   tr_light.obj
 0001:000c4780       ?R_WobbleskyTexGen@@YAXPAUdrawSurf_s@@ABVidVec3@@@Z 004c5780 f   tr_light.obj
 0001:000c4bc0       ?R_CheckForEntityDefsUsingModel@@YAXPAVidRenderModel@@@Z 004c5bc0 f   tr_lightrun.obj
 0001:000c4d80       ?R_ClearEntityDefDynamicModel@@YAXPAVidRenderEntityLocal@@@Z 004c5d80 f   tr_lightrun.obj
 0001:000c4dc0       ?R_CreateEntityRefs@@YAXPAVidRenderEntityLocal@@@Z 004c5dc0 f   tr_lightrun.obj
 0001:000c4f80       ?R_CreateLightDefFogPortals@@YAXPAVidRenderLightLocal@@@Z 004c5f80 f   tr_lightrun.obj
 0001:000c50a0       ?R_CreateLightRefs@@YAXPAVidRenderLightLocal@@@Z 004c60a0 f   tr_lightrun.obj
 0001:000c5220       ?R_DeriveLightData@@YAXPAVidRenderLightLocal@@@Z 004c6220 f   tr_lightrun.obj
 0001:000c57c0       ?R_FreeDerivedData@@YAXXZ  004c67c0 f   tr_lightrun.obj
 0001:000c5920       ?R_FreeEntityDefDecals@@YAXPAVidRenderEntityLocal@@@Z 004c6920 f   tr_lightrun.obj
 0001:000c5950       ?R_FreeEntityDefDerivedData@@YAXPAVidRenderEntityLocal@@_N1@Z 004c6950 f   tr_lightrun.obj
 0001:000c5aa0       ?R_FreeEntityDefFadedDecals@@YAXPAVidRenderEntityLocal@@H@Z 004c6aa0 f   tr_lightrun.obj
 0001:000c5ac0       ?R_FreeEntityDefOverlay@@YAXPAVidRenderEntityLocal@@@Z 004c6ac0 f   tr_lightrun.obj
 0001:000c5af0       ?R_FreeLightDefDerivedData@@YAXPAVidRenderLightLocal@@@Z 004c6af0 f   tr_lightrun.obj
 0001:000c5bc0       ?R_ModulateLights_f@@YAXABVidCmdArgs@@@Z 004c6bc0 f   tr_lightrun.obj
 0001:000c5cd0       ?R_ReCreateWorldReferences@@YAXXZ 004c6cd0 f   tr_lightrun.obj
 0001:000c5db0       ?R_RegenerateWorld_f@@YAXABVidCmdArgs@@@Z 004c6db0 f   tr_lightrun.obj
 0001:000c5eb0       ?R_SetLightProject@@YAXQAVidPlane@@VidVec3@@11111@Z 004c6eb0 f   tr_lightrun.obj
 0001:000c63a0       ?AddPoint@idScreenRect@@QAEXMM@Z 004c73a0 f   tr_main.obj
 0001:000c6400       ?Clear@idScreenRect@@QAEXXZ 004c7400 f   tr_main.obj
 0001:000c6420       ?Equals@idScreenRect@@QBE_NABV1@@Z 004c7420 f   tr_main.obj
 0001:000c6460       ?Expand@idScreenRect@@QAEXXZ 004c7460 f   tr_main.obj
 0001:000c6470       ?Intersect@idScreenRect@@QAEXABV1@@Z 004c7470 f   tr_main.obj
 0001:000c64b0       ?IsEmpty@idScreenRect@@QBE_NXZ 004c74b0 f   tr_main.obj
 0001:000c64d0       ?R_AxisToModelMatrix@@YAXABVidMat3@@ABVidVec3@@QAM@Z 004c74d0 f   tr_main.obj
 0001:000c6540       ?R_ClearedFrameAlloc@@YAPAXH@Z 004c7540 f   tr_main.obj
 0001:000c65f0       ?R_ClearedStaticAlloc@@YAPAXH@Z 004c75f0 f   tr_main.obj
 0001:000c6650       ?R_CornerCullLocalBox@@YA_NABVidBounds@@QBMHPBVidPlane@@@Z 004c7650 f   tr_main.obj
 0001:000c6a50       ?R_CountFrameData@@YAHXZ   004c7a50 f   tr_main.obj
 0001:000c6a80       ?R_CullLocalBox@@YA_NABVidBounds@@QBMHPBVidPlane@@@Z 004c7a80 f   tr_main.obj
 0001:000c6c80       ?R_FrameAlloc@@YAPAXH@Z    004c7c80 f   tr_main.obj
 0001:000c6d20       ?R_GlobalPlaneToLocal@@YAXQBMABVidPlane@@AAV1@@Z 004c7d20 f   tr_main.obj
 0001:000c6de0       ?R_GlobalPointToLocal@@YAXQBMABVidVec3@@AAV1@@Z 004c7de0 f   tr_main.obj
 0001:000c6e70       ?R_GlobalToNormalizedDeviceCoordinates@@YAXABVidVec3@@AAV1@@Z 004c7e70 f   tr_main.obj
 0001:000c7050       ?R_GlobalVectorToLocal@@YAXQBMABVidVec3@@AAV1@@Z 004c8050 f   tr_main.obj
 0001:000c70e0       ?R_InitFrameData@@YAXXZ    004c80e0 f   tr_main.obj
 0001:000c71e0       ?R_LocalPlaneToGlobal@@YAXQBMABVidPlane@@AAV1@@Z 004c81e0 f   tr_main.obj
 0001:000c7290       ?R_LocalPointToGlobal@@YAXQBMABVidVec3@@AAV1@@Z 004c8290 f   tr_main.obj
 0001:000c7360       ?R_RenderView@@YAXPAUviewDef_s@@@Z 004c8360 f   tr_main.obj
 0001:000c7740       ?R_ScreenRectFromViewFrustumBounds@@YA?AVidScreenRect@@ABVidBounds@@@Z 004c8740 f   tr_main.obj
 0001:000c7930       ?R_SetViewMatrix@@YAXPAUviewDef_s@@@Z 004c8930 f   tr_main.obj
 0001:000c7a70       ?R_SetupProjection@@YAXXZ  004c8a70 f   tr_main.obj
 0001:000c8420       ?R_ShowColoredScreenRect@@YAXABVidScreenRect@@H@Z 004c9420 f   tr_main.obj
 0001:000c8520       ?R_ShutdownFrameData@@YAXXZ 004c9520 f   tr_main.obj
 0001:000c8570       ?R_StaticAlloc@@YAPAXH@Z   004c9570 f   tr_main.obj
 0001:000c85b0       ?R_StaticFree@@YAXPAX@Z    004c95b0 f   tr_main.obj
 0001:000c85c0       ?R_ToggleSmpFrame@@YAXXZ   004c95c0 f   tr_main.obj
 0001:000c8630       ?R_TransformClipToDevice@@YAXABVidPlane@@PBUviewDef_s@@AAVidVec3@@@Z 004c9630 f   tr_main.obj
 0001:000c8670       ?R_TransformModelToClip@@YAXABVidVec3@@PBM1AAVidPlane@@2@Z 004c9670 f   tr_main.obj
 0001:000c8810       ?R_TransposeGLMatrix@@YAXQBMQAM@Z 004c9810 f   tr_main.obj
 0001:000c8850       ?Union@idScreenRect@@QAEXABV1@@Z 004c9850 f   tr_main.obj
 0001:000c8890       ?myGlMultMatrix@@YAXPBM0PAM@Z 004c9890 f   tr_main.obj
 0001:000c8c30       ?R_PolytopeSurface@@YAPAUsrfTriangles_s@@HPBVidPlane@@PAPAVidWinding@@@Z 004c9c30 f   tr_polytope.obj
 0001:000c9050       ?RB_BeginDrawingView@@YAXXZ 004ca050 f   tr_render.obj
 0001:000c91b0       ?RB_BindStageTexture@@YAXPBMPBUtextureStage_t@@PBUdrawSurf_s@@@Z 004ca1b0 f   tr_render.obj
 0001:000c93b0       ?RB_BindVariableStageImage@@YAXPBUtextureStage_t@@PBM@Z 004ca3b0 f   tr_render.obj
 0001:000c9460       ?RB_CreateSingleDrawInteractions@@YAXPBUdrawSurf_s@@P6AXPBUdrawInteraction_t@@@Z@Z 004ca460 f   tr_render.obj
 0001:000c9c60       ?RB_DetermineLightScale@@YAXXZ 004cac60 f   tr_render.obj
 0001:000c9d50       ?RB_DrawElementsImmediate@@YAXPBUsrfTriangles_s@@@Z 004cad50 f   tr_render.obj
 0001:000c9e00       ?RB_DrawElementsWithCounters@@YAXPBUsrfTriangles_s@@@Z 004cae00 f   tr_render.obj
 0001:000c9ed0       ?RB_DrawShadowElementsWithCounters@@YAXPBUsrfTriangles_s@@H@Z 004caed0 f   tr_render.obj
 0001:000c9f70       ?RB_DrawView@@YAXPBX@Z     004caf70 f   tr_render.obj
 0001:000ca000       ?RB_EnterModelDepthHack@@YAXM@Z 004cb000 f   tr_render.obj
 0001:000ca090       ?RB_EnterWeaponDepthHack@@YAXXZ 004cb090 f   tr_render.obj
 0001:000ca130       ?RB_FinishStageTexture@@YAXPBUtextureStage_t@@PBUdrawSurf_s@@@Z 004cb130 f   tr_render.obj
 0001:000ca230       ?RB_GetShaderTextureMatrix@@YAXPBMPBUtextureStage_t@@QAM@Z 004cb230 f   tr_render.obj
 0001:000ca310       ?RB_LeaveDepthHack@@YAXXZ  004cb310 f   tr_render.obj
 0001:000ca360       ?RB_LoadShaderTextureMatrix@@YAXPBMPBUtextureStage_t@@@Z 004cb360 f   tr_render.obj
 0001:000ca3a0       ?RB_RenderDrawSurfChainWithFunction@@YAXPBUdrawSurf_s@@P6AX0@Z@Z 004cb3a0 f   tr_render.obj
 0001:000ca4f0       ?RB_RenderDrawSurfListWithFunction@@YAXPAPAUdrawSurf_s@@HP6AXPBU1@@Z@Z 004cb4f0 f   tr_render.obj
 0001:000ca650       ?RB_RenderTriangleSurface@@YAXPBUsrfTriangles_s@@@Z 004cb650 f   tr_render.obj
 0001:000ca7f0       ?RB_T_RenderTriangleSurface@@YAXPBUdrawSurf_s@@@Z 004cb7f0 f   tr_render.obj
 0001:000ca800       ?R_SetDrawInteraction@@YAXPBUshaderStage_t@@PBMPAPAVidImage@@QAVidVec4@@QAM@Z 004cb800 f   tr_render.obj
 0001:000ca9b0       ??0debugPolygon_s@@QAE@XZ  004cb9b0 f i tr_rendertools.obj
 0001:000ca9e0       ??1debugPolygon_s@@QAE@XZ  004cb9e0 f i tr_rendertools.obj
 0001:000caa00       ?RB_AddDebugLine@@YAXABVidVec4@@ABVidVec3@@1H_N@Z 004cba00 f   tr_rendertools.obj
 0001:000caa70       ?RB_AddDebugPolygon@@YAXABVidVec4@@ABVidWinding@@H_N@Z 004cba70 f   tr_rendertools.obj
 0001:000caad0       ?RB_AddDebugText@@YAXPBDABVidVec3@@MABVidVec4@@ABVidMat3@@HH_N@Z 004cbad0 f   tr_rendertools.obj
 0001:000cab80       ?RB_ClearDebugLines@@YAXH@Z 004cbb80 f   tr_rendertools.obj
 0001:000cac10       ?RB_ClearDebugPolygons@@YAXH@Z 004cbc10 f   tr_rendertools.obj
 0001:000cac90       ?RB_ClearDebugText@@YAXH@Z 004cbc90 f   tr_rendertools.obj
 0001:000cade0       ?RB_CountStencilBuffer@@YAXXZ 004cbde0 f   tr_rendertools.obj
 0001:000caf30       ?RB_DrawBounds@@YAXABVidBounds@@@Z 004cbf30 f   tr_rendertools.obj
 0001:000cb6d0       ?RB_RenderDebugTools@@YAXPAPAUdrawSurf_s@@H@Z 004cc6d0 f   tr_rendertools.obj
 0001:000cc6b0       ?RB_ShowIntensity@@YAXXZ   004cd6b0 f   tr_rendertools.obj
 0001:000cc880       ?RB_ShowLights@@YAXXZ      004cd880 f   tr_rendertools.obj
 0001:000ccff0       ?RB_ShowOverdraw@@YAXXZ    004cdff0 f   tr_rendertools.obj
 0001:000cd1a0       ?RB_ShowSilhouette@@YAXXZ  004ce1a0 f   tr_rendertools.obj
 0001:000ce1c0       ?RB_ShutdownDebugTools@@YAXXZ 004cf1c0 f   tr_rendertools.obj
 0001:000ce200       ?RB_SimpleSurfaceSetup@@YAXPBUdrawSurf_s@@@Z 004cf200 f   tr_rendertools.obj
 0001:000ce2a0       ?RB_SimpleWorldSetup@@YAXXZ 004cf2a0 f   tr_rendertools.obj
 0001:000ce320       ?RB_TestGamma@@YAXXZ       004cf320 f   tr_rendertools.obj
 0001:000ce800       ?RB_TestImage@@YAXXZ       004cf800 f   tr_rendertools.obj
 0001:000cec50       ??0?$MyArray@Upoly@@$08@@QAE@ABU0@@Z 004cfc50 f i tr_shadowbounds.obj
 0001:000ced50       ??0?$MyArray@Upoly@@$08@@QAE@XZ 004cfd50 f i tr_shadowbounds.obj
 0001:000cee10       ??0polyhedron@@QAE@$$QAU0@@Z 004cfe10 f i tr_shadowbounds.obj
 0001:000cee10       ??0polyhedron@@QAE@ABU0@@Z 004cfe10 f i tr_shadowbounds.obj
 0001:000ceea0       ?PolyhedronFromBounds@@YA?AUpolyhedron@@ABVidBounds@@@Z 004cfea0 f   tr_shadowbounds.obj
 0001:000cf2b0       ?R_CalcIntersectionScissor@@YA?AVidScreenRect@@PBVidRenderLightLocal@@PBVidRenderEntityLocal@@PBUviewDef_s@@@Z 004d02b0 f   tr_shadowbounds.obj
 0001:000cfbf0       ?add_quad@polyhedron@@QAEXHHHH@Z 004d0bf0 f i tr_shadowbounds.obj
 0001:000cfcd0       ?clip_segments@@YAXABUpolyhedron@@AAU?$MyArray@VidVec4@@$0CE@@@1@Z 004d0cd0 f   tr_shadowbounds.obj
 0001:000d00b0       ?compute_homogeneous_plane@@YA?AVidVec4@@V1@00@Z 004d10b0 f   tr_shadowbounds.obj
 0001:000d0260       ?compute_neighbors@polyhedron@@QAEXXZ 004d1260 f i tr_shadowbounds.obj
 0001:000d0460       ?draw_polyhedron@@YAXPBUviewDef_s@@ABUpolyhedron@@VidVec4@@@Z 004d1460 f   tr_shadowbounds.obj
 0001:000d0530       ?make_sv@@YA?AUpolyhedron@@ABU1@VidVec4@@@Z 004d1530 f   tr_shadowbounds.obj
 0001:000d0c40       ?polyhedron_edges@@YAXAAUpolyhedron@@AAU?$MyArray@VidVec4@@$0CE@@@@Z 004d1c40 f   tr_shadowbounds.obj
 0001:000d0cd0       ?recompute_planes@polyhedron@@QAEXXZ 004d1cd0 f i tr_shadowbounds.obj
 0001:000d17f0       ?R_CreateShadowVolume@@YAPAUsrfTriangles_s@@PBVidRenderEntityLocal@@PBU1@PBVidRenderLightLocal@@W4shadowGen_t@@AAUsrfCullInfo_t@@@Z 004d27f0 f   tr_stencilshadow.obj
 0001:000d24b0       ?R_LightProjectionMatrix@@YAXABVidVec3@@ABVidPlane@@QAVidVec4@@@Z 004d34b0 f   tr_stencilshadow.obj
 0001:000d2600       ?R_MakeShadowFrustums@@YAXPAVidRenderLightLocal@@@Z 004d3600 f   tr_stencilshadow.obj
 0001:000d3220       ?R_GenerateSubViews@@YA_NXZ 004d4220 f   tr_subview.obj
 0001:000d3290       ?R_GenerateSurfaceSubview@@YA_NPAUdrawSurf_s@@@Z 004d4290 f   tr_subview.obj
 0001:000d4200       ?R_PreciseCullSurface@@YA_NPBUdrawSurf_s@@AAVidBounds@@@Z 004d5200 f   tr_subview.obj
 0001:000d4690       ?RB_DrawExpandedTriangles@@YAXPBUsrfTriangles_s@@MABVidVec3@@@Z 004d5690 f   tr_trace.obj
 0001:000d50f0       ?RB_ShowTrace@@YAXPAPAUdrawSurf_s@@H@Z 004d60f0 f   tr_trace.obj
 0001:000d5490       ?R_LocalTrace@@YA?AUlocalTrace_t@@ABVidVec3@@0MPBUsrfTriangles_s@@@Z 004d6490 f   tr_trace.obj
 0001:000d6120       ?Add@?$idBTree@V?$idDynamicBlock@D@@H$03@@QAEPAV?$idBTreeNode@V?$idDynamicBlock@D@@H@@PAV?$idDynamicBlock@D@@H@Z 004d7120 f i idLib:Str.obj
 0001:000d6120       ?Add@?$idBTree@V?$idDynamicBlock@E@@H$03@@QAEPAV?$idBTreeNode@V?$idDynamicBlock@E@@H@@PAV?$idDynamicBlock@E@@H@Z 004d7120 f i snd_cache.obj
 0001:000d6120       ?Add@?$idBTree@V?$idDynamicBlock@H@@H$03@@QAEPAV?$idBTreeNode@V?$idDynamicBlock@H@@H@@PAV?$idDynamicBlock@H@@H@Z 004d7120 f i tr_trisurf.obj
 0001:000d6120       ?Add@?$idBTree@V?$idDynamicBlock@UdominantTri_s@@@@H$03@@QAEPAV?$idBTreeNode@V?$idDynamicBlock@UdominantTri_s@@@@H@@PAV?$idDynamicBlock@UdominantTri_s@@@@H@Z 004d7120 f i tr_trisurf.obj
 0001:000d6120       ?Add@?$idBTree@V?$idDynamicBlock@UshadowCache_s@@@@H$03@@QAEPAV?$idBTreeNode@V?$idDynamicBlock@UshadowCache_s@@@@H@@PAV?$idDynamicBlock@UshadowCache_s@@@@H@Z 004d7120 f i tr_trisurf.obj
 0001:000d6120       ?Add@?$idBTree@V?$idDynamicBlock@UsilEdge_t@@@@H$03@@QAEPAV?$idBTreeNode@V?$idDynamicBlock@UsilEdge_t@@@@H@@PAV?$idDynamicBlock@UsilEdge_t@@@@H@Z 004d7120 f i tr_trisurf.obj
 0001:000d6120       ?Add@?$idBTree@V?$idDynamicBlock@VidDrawVert@@@@H$03@@QAEPAV?$idBTreeNode@V?$idDynamicBlock@VidDrawVert@@@@H@@PAV?$idDynamicBlock@VidDrawVert@@@@H@Z 004d7120 f i tr_trisurf.obj
 0001:000d6120       ?Add@?$idBTree@V?$idDynamicBlock@VidPlane@@@@H$03@@QAEPAV?$idBTreeNode@V?$idDynamicBlock@VidPlane@@@@H@@PAV?$idDynamicBlock@VidPlane@@@@H@Z 004d7120 f i tr_trisurf.obj
 0001:000d6310       ?AllocInternal@?$idDynamicBlockAlloc@H$0BAAAA@$0EAA@@@AAEPAV?$idDynamicBlock@H@@H@Z 004d7310 f i tr_trisurf.obj
 0001:000d63d0       ?AllocInternal@?$idDynamicBlockAlloc@H$0CAAAA@$0EAA@@@AAEPAV?$idDynamicBlock@H@@H@Z 004d73d0 f i tr_trisurf.obj
 0001:000d6490       ?AllocInternal@?$idDynamicBlockAlloc@H$0EAAAA@$0EAA@@@AAEPAV?$idDynamicBlock@H@@H@Z 004d7490 f i tr_trisurf.obj
 0001:000d6550       ?AllocInternal@?$idDynamicBlockAlloc@UdominantTri_s@@$0BAAAA@$0EAA@@@AAEPAV?$idDynamicBlock@UdominantTri_s@@@@H@Z 004d7550 f i tr_trisurf.obj
 0001:000d6650       ?AllocInternal@?$idDynamicBlockAlloc@UshadowCache_s@@$0EAAAA@$0EAA@@@AAEPAV?$idDynamicBlock@UshadowCache_s@@@@H@Z 004d7650 f i tr_trisurf.obj
 0001:000d6740       ?AllocInternal@?$idDynamicBlockAlloc@UsilEdge_t@@$0CAAAA@$0EAA@@@AAEPAV?$idDynamicBlock@UsilEdge_t@@@@H@Z 004d7740 f i tr_trisurf.obj
 0001:000d6740       ?AllocInternal@?$idDynamicBlockAlloc@VidPlane@@$0CAAAA@$0EAA@@@AAEPAV?$idDynamicBlock@VidPlane@@@@H@Z 004d7740 f i tr_trisurf.obj
 0001:000d6830       ?AllocInternal@?$idDynamicBlockAlloc@VidDrawVert@@$0BAAAAA@$0EAA@@@AAEPAV?$idDynamicBlock@VidDrawVert@@@@H@Z 004d7830 f i tr_trisurf.obj
 0001:000d6930       ?AllocNode@?$idBTree@V?$idDynamicBlock@D@@H$03@@AAEPAV?$idBTreeNode@V?$idDynamicBlock@D@@H@@XZ 004d7930 f i idLib:Str.obj
 0001:000d6930       ?AllocNode@?$idBTree@V?$idDynamicBlock@E@@H$03@@AAEPAV?$idBTreeNode@V?$idDynamicBlock@E@@H@@XZ 004d7930 f i snd_cache.obj
 0001:000d6930       ?AllocNode@?$idBTree@V?$idDynamicBlock@H@@H$03@@AAEPAV?$idBTreeNode@V?$idDynamicBlock@H@@H@@XZ 004d7930 f i tr_trisurf.obj
 0001:000d6930       ?AllocNode@?$idBTree@V?$idDynamicBlock@UdominantTri_s@@@@H$03@@AAEPAV?$idBTreeNode@V?$idDynamicBlock@UdominantTri_s@@@@H@@XZ 004d7930 f i tr_trisurf.obj
 0001:000d6930       ?AllocNode@?$idBTree@V?$idDynamicBlock@UshadowCache_s@@@@H$03@@AAEPAV?$idBTreeNode@V?$idDynamicBlock@UshadowCache_s@@@@H@@XZ 004d7930 f i tr_trisurf.obj
 0001:000d6930       ?AllocNode@?$idBTree@V?$idDynamicBlock@UsilEdge_t@@@@H$03@@AAEPAV?$idBTreeNode@V?$idDynamicBlock@UsilEdge_t@@@@H@@XZ 004d7930 f i tr_trisurf.obj
 0001:000d6930       ?AllocNode@?$idBTree@V?$idDynamicBlock@VidDrawVert@@@@H$03@@AAEPAV?$idBTreeNode@V?$idDynamicBlock@VidDrawVert@@@@H@@XZ 004d7930 f i tr_trisurf.obj
 0001:000d6930       ?AllocNode@?$idBTree@V?$idDynamicBlock@VidPlane@@@@H$03@@AAEPAV?$idBTreeNode@V?$idDynamicBlock@VidPlane@@@@H@@XZ 004d7930 f i tr_trisurf.obj
 0001:000d69e0       ?FindSmallestLargerEqual@?$idBTree@V?$idDynamicBlock@H@@H$03@@QBEPAV?$idDynamicBlock@H@@H@Z 004d79e0 f i tr_trisurf.obj
 0001:000d6a30       ?FreeEmptyBaseBlocks@?$idDynamicBlockAlloc@E$0BAAAAA@$0EAA@@@QAEXXZ 004d7a30 f i snd_cache.obj
 0001:000d6a30       ?FreeEmptyBaseBlocks@?$idDynamicBlockAlloc@H$0BAAAA@$0EAA@@@QAEXXZ 004d7a30 f i tr_trisurf.obj
 0001:000d6af0       ?FreeInternal@?$idDynamicBlockAlloc@D$0EAAAA@$0IA@@@AAEXPAV?$idDynamicBlock@D@@@Z 004d7af0 f i idLib:Str.obj
 0001:000d6af0       ?FreeInternal@?$idDynamicBlockAlloc@E$0BAAAAA@$0EAA@@@AAEXPAV?$idDynamicBlock@E@@@Z 004d7af0 f i snd_cache.obj
 0001:000d6af0       ?FreeInternal@?$idDynamicBlockAlloc@E$0BAAAAA@$0IA@@@AAEXPAV?$idDynamicBlock@E@@@Z 004d7af0 f i snd_decoder.obj
 0001:000d6af0       ?FreeInternal@?$idDynamicBlockAlloc@H$0BAAAA@$0EAA@@@AAEXPAV?$idDynamicBlock@H@@@Z 004d7af0 f i tr_trisurf.obj
 0001:000d6af0       ?FreeInternal@?$idDynamicBlockAlloc@H$0CAAAA@$0EAA@@@AAEXPAV?$idDynamicBlock@H@@@Z 004d7af0 f i tr_trisurf.obj
 0001:000d6af0       ?FreeInternal@?$idDynamicBlockAlloc@H$0EAAAA@$0EAA@@@AAEXPAV?$idDynamicBlock@H@@@Z 004d7af0 f i tr_trisurf.obj
 0001:000d6af0       ?FreeInternal@?$idDynamicBlockAlloc@UdominantTri_s@@$0BAAAA@$0EAA@@@AAEXPAV?$idDynamicBlock@UdominantTri_s@@@@@Z 004d7af0 f i tr_trisurf.obj
 0001:000d6af0       ?FreeInternal@?$idDynamicBlockAlloc@UshadowCache_s@@$0EAAAA@$0EAA@@@AAEXPAV?$idDynamicBlock@UshadowCache_s@@@@@Z 004d7af0 f i tr_trisurf.obj
 0001:000d6af0       ?FreeInternal@?$idDynamicBlockAlloc@UsilEdge_t@@$0CAAAA@$0EAA@@@AAEXPAV?$idDynamicBlock@UsilEdge_t@@@@@Z 004d7af0 f i tr_trisurf.obj
 0001:000d6af0       ?FreeInternal@?$idDynamicBlockAlloc@VidDrawVert@@$0BAAAAA@$0EAA@@@AAEXPAV?$idDynamicBlock@VidDrawVert@@@@@Z 004d7af0 f i tr_trisurf.obj
 0001:000d6af0       ?FreeInternal@?$idDynamicBlockAlloc@VidPlane@@$0CAAAA@$0EAA@@@AAEXPAV?$idDynamicBlock@VidPlane@@@@@Z 004d7af0 f i tr_trisurf.obj
 0001:000d6c60       ?MergeNodes@?$idBTree@V?$idDynamicBlock@D@@H$03@@AAEPAV?$idBTreeNode@V?$idDynamicBlock@D@@H@@PAV2@0@Z 004d7c60 f i idLib:Str.obj
 0001:000d6c60       ?MergeNodes@?$idBTree@V?$idDynamicBlock@E@@H$03@@AAEPAV?$idBTreeNode@V?$idDynamicBlock@E@@H@@PAV2@0@Z 004d7c60 f i snd_cache.obj
 0001:000d6c60       ?MergeNodes@?$idBTree@V?$idDynamicBlock@H@@H$03@@AAEPAV?$idBTreeNode@V?$idDynamicBlock@H@@H@@PAV2@0@Z 004d7c60 f i tr_trisurf.obj
 0001:000d6c60       ?MergeNodes@?$idBTree@V?$idDynamicBlock@UdominantTri_s@@@@H$03@@AAEPAV?$idBTreeNode@V?$idDynamicBlock@UdominantTri_s@@@@H@@PAV2@0@Z 004d7c60 f i tr_trisurf.obj
 0001:000d6c60       ?MergeNodes@?$idBTree@V?$idDynamicBlock@UshadowCache_s@@@@H$03@@AAEPAV?$idBTreeNode@V?$idDynamicBlock@UshadowCache_s@@@@H@@PAV2@0@Z 004d7c60 f i tr_trisurf.obj
 0001:000d6c60       ?MergeNodes@?$idBTree@V?$idDynamicBlock@UsilEdge_t@@@@H$03@@AAEPAV?$idBTreeNode@V?$idDynamicBlock@UsilEdge_t@@@@H@@PAV2@0@Z 004d7c60 f i tr_trisurf.obj
 0001:000d6c60       ?MergeNodes@?$idBTree@V?$idDynamicBlock@VidDrawVert@@@@H$03@@AAEPAV?$idBTreeNode@V?$idDynamicBlock@VidDrawVert@@@@H@@PAV2@0@Z 004d7c60 f i tr_trisurf.obj
 0001:000d6c60       ?MergeNodes@?$idBTree@V?$idDynamicBlock@VidPlane@@@@H$03@@AAEPAV?$idBTreeNode@V?$idDynamicBlock@VidPlane@@@@H@@PAV2@0@Z 004d7c60 f i tr_trisurf.obj
 0001:000d6ce0       ?R_AllocStaticTriSurf@@YAPAUsrfTriangles_s@@XZ 004d7ce0 f   tr_trisurf.obj
 0001:000d6d70       ?R_AllocStaticTriSurfIndexes@@YAXPAUsrfTriangles_s@@H@Z 004d7d70 f   tr_trisurf.obj
 0001:000d6dd0       ?R_AllocStaticTriSurfPlanes@@YAXPAUsrfTriangles_s@@H@Z 004d7dd0 f   tr_trisurf.obj
 0001:000d6e70       ?R_AllocStaticTriSurfShadowVerts@@YAXPAUsrfTriangles_s@@H@Z 004d7e70 f   tr_trisurf.obj
 0001:000d6ed0       ?R_AllocStaticTriSurfVerts@@YAXPAUsrfTriangles_s@@H@Z 004d7ed0 f   tr_trisurf.obj
 0001:000d6f30       ?R_BoundTriSurf@@YAXPAUsrfTriangles_s@@@Z 004d7f30 f   tr_trisurf.obj
 0001:000d6f50       ?R_BuildDeformInfo@@YAPAUdeformInfo_s@@HPBVidDrawVert@@HPBH_N@Z 004d7f50 f   tr_trisurf.obj
 0001:000d7180       ?R_BuildDominantTris@@YAXPAUsrfTriangles_s@@@Z 004d8180 f   tr_trisurf.obj
 0001:000d7620       ?R_CleanupTriangles@@YAXPAUsrfTriangles_s@@_N11@Z 004d8620 f   tr_trisurf.obj
 0001:000d77d0       ?R_CopyStaticTriSurf@@YAPAUsrfTriangles_s@@PBU1@@Z 004d87d0 f   tr_trisurf.obj
 0001:000d7830       ?R_CreateDupVerts@@YAXPAUsrfTriangles_s@@@Z 004d8830 f   tr_trisurf.obj
 0001:000d7960       ?R_CreateSilIndexes@@YAXPAUsrfTriangles_s@@@Z 004d8960 f   tr_trisurf.obj
 0001:000d7d90       ?R_DeformInfoMemoryUsed@@YAHPAUdeformInfo_s@@@Z 004d8d90 f   tr_trisurf.obj
 0001:000d7df0       ?R_DeriveFacePlanes@@YAXPAUsrfTriangles_s@@@Z 004d8df0 f   tr_trisurf.obj
 0001:000d8250       ?R_DeriveTangents@@YAXPAUsrfTriangles_s@@_N@Z 004d9250 f   tr_trisurf.obj
 0001:000d83c0       ?R_DeriveTangentsWithoutNormals@@YAXPAUsrfTriangles_s@@@Z 004d93c0 f   tr_trisurf.obj
 0001:000d8cf0       ?R_FreeDeferredTriSurfs@@YAXPAUframeData_t@@@Z 004d9cf0 f   tr_trisurf.obj
 0001:000d8f70       ?R_FreeDeformInfo@@YAXPAUdeformInfo_s@@@Z 004d9f70 f   tr_trisurf.obj
 0001:000d90a0       ?R_FreeStaticTriSurf@@YAXPAUsrfTriangles_s@@@Z 004da0a0 f   tr_trisurf.obj
 0001:000d9100       ?R_FreeStaticTriSurfSilIndexes@@YAXPAUsrfTriangles_s@@@Z 004da100 f   tr_trisurf.obj
 0001:000d9140       ?R_FreeStaticTriSurfVertexCaches@@YAXPAUsrfTriangles_s@@@Z 004da140 f   tr_trisurf.obj
 0001:000d91b0       ?R_IdentifySilEdges@@YAXPAUsrfTriangles_s@@_N@Z 004da1b0 f   tr_trisurf.obj
 0001:000d9430       ?R_InitTriSurfData@@YAXXZ  004da430 f   tr_trisurf.obj
 0001:000d9510       ?R_MergeSurfaceList@@YAPAUsrfTriangles_s@@PAPBU1@H@Z 004da510 f   tr_trisurf.obj
 0001:000d96c0       ?R_MergeTriangles@@YAPAUsrfTriangles_s@@PBU1@0@Z 004da6c0 f   tr_trisurf.obj
 0001:000d96f0       ?R_PurgeTriSurfData@@YAXPAUframeData_t@@@Z 004da6f0 f   tr_trisurf.obj
 0001:000d9cd0       ?R_RangeCheckIndexes@@YAXPBUsrfTriangles_s@@@Z 004dacd0 f   tr_trisurf.obj
 0001:000d9d60       ?R_ReallyFreeStaticTriSurf@@YAXPAUsrfTriangles_s@@@Z 004dad60 f   tr_trisurf.obj
 0001:000d9fb0       ?R_ReferenceStaticTriSurfIndexes@@YAXPAUsrfTriangles_s@@PBU1@@Z 004dafb0 f   tr_trisurf.obj
 0001:000d9fc0       ?R_ReferenceStaticTriSurfVerts@@YAXPAUsrfTriangles_s@@PBU1@@Z 004dafc0 f   tr_trisurf.obj
 0001:000d9fd0       ?R_RemoveDegenerateTriangles@@YAXPAUsrfTriangles_s@@@Z 004dafd0 f   tr_trisurf.obj
 0001:000da0b0       ?R_ResizeStaticTriSurfIndexes@@YAXPAUsrfTriangles_s@@H@Z 004db0b0 f   tr_trisurf.obj
 0001:000da170       ?R_ResizeStaticTriSurfShadowVerts@@YAXPAUsrfTriangles_s@@H@Z 004db170 f   tr_trisurf.obj
 0001:000da230       ?R_ReverseTriangles@@YAXPAUsrfTriangles_s@@@Z 004db230 f   tr_trisurf.obj
 0001:000da2b0       ?R_ShowTriSurfMemory_f@@YAXABVidCmdArgs@@@Z 004db2b0 f   tr_trisurf.obj
 0001:000da650       ?R_ShutdownTriSurfData@@YAXXZ 004db650 f   tr_trisurf.obj
 0001:000da6d0       ?R_TriSurfMemory@@YAHPBUsrfTriangles_s@@@Z 004db6d0 f   tr_trisurf.obj
 0001:000da7a0       ?Remove@?$idBTree@V?$idDynamicBlock@D@@H$03@@QAEXPAV?$idBTreeNode@V?$idDynamicBlock@D@@H@@@Z 004db7a0 f i idLib:Str.obj
 0001:000da7a0       ?Remove@?$idBTree@V?$idDynamicBlock@E@@H$03@@QAEXPAV?$idBTreeNode@V?$idDynamicBlock@E@@H@@@Z 004db7a0 f i snd_cache.obj
 0001:000da7a0       ?Remove@?$idBTree@V?$idDynamicBlock@H@@H$03@@QAEXPAV?$idBTreeNode@V?$idDynamicBlock@H@@H@@@Z 004db7a0 f i tr_trisurf.obj
 0001:000da7a0       ?Remove@?$idBTree@V?$idDynamicBlock@UdominantTri_s@@@@H$03@@QAEXPAV?$idBTreeNode@V?$idDynamicBlock@UdominantTri_s@@@@H@@@Z 004db7a0 f i tr_trisurf.obj
 0001:000da7a0       ?Remove@?$idBTree@V?$idDynamicBlock@UshadowCache_s@@@@H$03@@QAEXPAV?$idBTreeNode@V?$idDynamicBlock@UshadowCache_s@@@@H@@@Z 004db7a0 f i tr_trisurf.obj
 0001:000da7a0       ?Remove@?$idBTree@V?$idDynamicBlock@UsilEdge_t@@@@H$03@@QAEXPAV?$idBTreeNode@V?$idDynamicBlock@UsilEdge_t@@@@H@@@Z 004db7a0 f i tr_trisurf.obj
 0001:000da7a0       ?Remove@?$idBTree@V?$idDynamicBlock@VidDrawVert@@@@H$03@@QAEXPAV?$idBTreeNode@V?$idDynamicBlock@VidDrawVert@@@@H@@@Z 004db7a0 f i tr_trisurf.obj
 0001:000da7a0       ?Remove@?$idBTree@V?$idDynamicBlock@VidPlane@@@@H$03@@QAEXPAV?$idBTreeNode@V?$idDynamicBlock@VidPlane@@@@H@@@Z 004db7a0 f i tr_trisurf.obj
 0001:000da8f0       ?ResizeInternal@?$idDynamicBlockAlloc@H$0BAAAA@$0EAA@@@AAEPAV?$idDynamicBlock@H@@PAV2@H@Z 004db8f0 f i tr_trisurf.obj
 0001:000daa30       ?ResizeInternal@?$idDynamicBlockAlloc@H$0CAAAA@$0EAA@@@AAEPAV?$idDynamicBlock@H@@PAV2@H@Z 004dba30 f i tr_trisurf.obj
 0001:000dab70       ?ResizeInternal@?$idDynamicBlockAlloc@H$0EAAAA@$0EAA@@@AAEPAV?$idDynamicBlock@H@@PAV2@H@Z 004dbb70 f i tr_trisurf.obj
 0001:000dacb0       ?ResizeInternal@?$idDynamicBlockAlloc@UdominantTri_s@@$0BAAAA@$0EAA@@@AAEPAV?$idDynamicBlock@UdominantTri_s@@@@PAV2@H@Z 004dbcb0 f i tr_trisurf.obj
 0001:000dadf0       ?ResizeInternal@?$idDynamicBlockAlloc@UshadowCache_s@@$0EAAAA@$0EAA@@@AAEPAV?$idDynamicBlock@UshadowCache_s@@@@PAV2@H@Z 004dbdf0 f i tr_trisurf.obj
 0001:000daf20       ?ResizeInternal@?$idDynamicBlockAlloc@UsilEdge_t@@$0CAAAA@$0EAA@@@AAEPAV?$idDynamicBlock@UsilEdge_t@@@@PAV2@H@Z 004dbf20 f i tr_trisurf.obj
 0001:000daf20       ?ResizeInternal@?$idDynamicBlockAlloc@VidPlane@@$0CAAAA@$0EAA@@@AAEPAV?$idDynamicBlock@VidPlane@@@@PAV2@H@Z 004dbf20 f i tr_trisurf.obj
 0001:000db050       ?ResizeInternal@?$idDynamicBlockAlloc@VidDrawVert@@$0BAAAAA@$0EAA@@@AAEPAV?$idDynamicBlock@VidDrawVert@@@@PAV2@H@Z 004dc050 f i tr_trisurf.obj
 0001:000db190       ?Shutdown@?$idBlockAlloc@UsrfTriangles_s@@$0BAA@@@QAEXXZ 004dc190 f i tr_trisurf.obj
 0001:000db1e0       ?Shutdown@?$idBlockAlloc@V?$idBTreeNode@V?$idDynamicBlock@D@@H@@$0IA@@@QAEXXZ 004dc1e0 f i idLib:Str.obj
 0001:000db1e0       ?Shutdown@?$idBlockAlloc@V?$idBTreeNode@V?$idDynamicBlock@E@@H@@$0IA@@@QAEXXZ 004dc1e0 f i snd_cache.obj
 0001:000db1e0       ?Shutdown@?$idBlockAlloc@V?$idBTreeNode@V?$idDynamicBlock@H@@H@@$0IA@@@QAEXXZ 004dc1e0 f i tr_trisurf.obj
 0001:000db1e0       ?Shutdown@?$idBlockAlloc@V?$idBTreeNode@V?$idDynamicBlock@UdominantTri_s@@@@H@@$0IA@@@QAEXXZ 004dc1e0 f i tr_trisurf.obj
 0001:000db1e0       ?Shutdown@?$idBlockAlloc@V?$idBTreeNode@V?$idDynamicBlock@UshadowCache_s@@@@H@@$0IA@@@QAEXXZ 004dc1e0 f i tr_trisurf.obj
 0001:000db1e0       ?Shutdown@?$idBlockAlloc@V?$idBTreeNode@V?$idDynamicBlock@UsilEdge_t@@@@H@@$0IA@@@QAEXXZ 004dc1e0 f i tr_trisurf.obj
 0001:000db1e0       ?Shutdown@?$idBlockAlloc@V?$idBTreeNode@V?$idDynamicBlock@VidDrawVert@@@@H@@$0IA@@@QAEXXZ 004dc1e0 f i tr_trisurf.obj
 0001:000db1e0       ?Shutdown@?$idBlockAlloc@V?$idBTreeNode@V?$idDynamicBlock@VidPlane@@@@H@@$0IA@@@QAEXXZ 004dc1e0 f i tr_trisurf.obj
 0001:000db230       ?Shutdown@?$idDynamicBlockAlloc@D$0EAAAA@$0IA@@@QAEXXZ 004dc230 f i idLib:Str.obj
 0001:000db230       ?Shutdown@?$idDynamicBlockAlloc@E$0BAAAAA@$0EAA@@@QAEXXZ 004dc230 f i snd_cache.obj
 0001:000db230       ?Shutdown@?$idDynamicBlockAlloc@E$0BAAAAA@$0IA@@@QAEXXZ 004dc230 f i snd_decoder.obj
 0001:000db230       ?Shutdown@?$idDynamicBlockAlloc@H$0BAAAA@$0EAA@@@QAEXXZ 004dc230 f i tr_trisurf.obj
 0001:000db230       ?Shutdown@?$idDynamicBlockAlloc@H$0CAAAA@$0EAA@@@QAEXXZ 004dc230 f i tr_trisurf.obj
 0001:000db230       ?Shutdown@?$idDynamicBlockAlloc@H$0EAAAA@$0EAA@@@QAEXXZ 004dc230 f i tr_trisurf.obj
 0001:000db230       ?Shutdown@?$idDynamicBlockAlloc@UdominantTri_s@@$0BAAAA@$0EAA@@@QAEXXZ 004dc230 f i tr_trisurf.obj
 0001:000db230       ?Shutdown@?$idDynamicBlockAlloc@UshadowCache_s@@$0EAAAA@$0EAA@@@QAEXXZ 004dc230 f i tr_trisurf.obj
 0001:000db230       ?Shutdown@?$idDynamicBlockAlloc@UsilEdge_t@@$0CAAAA@$0EAA@@@QAEXXZ 004dc230 f i tr_trisurf.obj
 0001:000db230       ?Shutdown@?$idDynamicBlockAlloc@VidDrawVert@@$0BAAAAA@$0EAA@@@QAEXXZ 004dc230 f i tr_trisurf.obj
 0001:000db230       ?Shutdown@?$idDynamicBlockAlloc@VidPlane@@$0CAAAA@$0EAA@@@QAEXXZ 004dc230 f i tr_trisurf.obj
 0001:000db330       ?SplitNode@?$idBTree@V?$idDynamicBlock@D@@H$03@@AAEXPAV?$idBTreeNode@V?$idDynamicBlock@D@@H@@@Z 004dc330 f i idLib:Str.obj
 0001:000db330       ?SplitNode@?$idBTree@V?$idDynamicBlock@E@@H$03@@AAEXPAV?$idBTreeNode@V?$idDynamicBlock@E@@H@@@Z 004dc330 f i snd_cache.obj
 0001:000db330       ?SplitNode@?$idBTree@V?$idDynamicBlock@H@@H$03@@AAEXPAV?$idBTreeNode@V?$idDynamicBlock@H@@H@@@Z 004dc330 f i tr_trisurf.obj
 0001:000db330       ?SplitNode@?$idBTree@V?$idDynamicBlock@UdominantTri_s@@@@H$03@@AAEXPAV?$idBTreeNode@V?$idDynamicBlock@UdominantTri_s@@@@H@@@Z 004dc330 f i tr_trisurf.obj
 0001:000db330       ?SplitNode@?$idBTree@V?$idDynamicBlock@UshadowCache_s@@@@H$03@@AAEXPAV?$idBTreeNode@V?$idDynamicBlock@UshadowCache_s@@@@H@@@Z 004dc330 f i tr_trisurf.obj
 0001:000db330       ?SplitNode@?$idBTree@V?$idDynamicBlock@UsilEdge_t@@@@H$03@@AAEXPAV?$idBTreeNode@V?$idDynamicBlock@UsilEdge_t@@@@H@@@Z 004dc330 f i tr_trisurf.obj
 0001:000db330       ?SplitNode@?$idBTree@V?$idDynamicBlock@VidDrawVert@@@@H$03@@AAEXPAV?$idBTreeNode@V?$idDynamicBlock@VidDrawVert@@@@H@@@Z 004dc330 f i tr_trisurf.obj
 0001:000db330       ?SplitNode@?$idBTree@V?$idDynamicBlock@VidPlane@@@@H$03@@AAEXPAV?$idBTreeNode@V?$idDynamicBlock@VidPlane@@@@H@@@Z 004dc330 f i tr_trisurf.obj
 0001:000db3c0       ?UnlinkFreeInternal@?$idDynamicBlockAlloc@D$0EAAAA@$0IA@@@AAEXPAV?$idDynamicBlock@D@@@Z 004dc3c0 f i idLib:Str.obj
 0001:000db3c0       ?UnlinkFreeInternal@?$idDynamicBlockAlloc@E$0BAAAAA@$0EAA@@@AAEXPAV?$idDynamicBlock@E@@@Z 004dc3c0 f i snd_cache.obj
 0001:000db3c0       ?UnlinkFreeInternal@?$idDynamicBlockAlloc@E$0BAAAAA@$0IA@@@AAEXPAV?$idDynamicBlock@E@@@Z 004dc3c0 f i snd_decoder.obj
 0001:000db3c0       ?UnlinkFreeInternal@?$idDynamicBlockAlloc@H$0BAAAA@$0EAA@@@AAEXPAV?$idDynamicBlock@H@@@Z 004dc3c0 f i tr_trisurf.obj
 0001:000db3c0       ?UnlinkFreeInternal@?$idDynamicBlockAlloc@H$0CAAAA@$0EAA@@@AAEXPAV?$idDynamicBlock@H@@@Z 004dc3c0 f i tr_trisurf.obj
 0001:000db3c0       ?UnlinkFreeInternal@?$idDynamicBlockAlloc@H$0EAAAA@$0EAA@@@AAEXPAV?$idDynamicBlock@H@@@Z 004dc3c0 f i tr_trisurf.obj
 0001:000db3c0       ?UnlinkFreeInternal@?$idDynamicBlockAlloc@UdominantTri_s@@$0BAAAA@$0EAA@@@AAEXPAV?$idDynamicBlock@UdominantTri_s@@@@@Z 004dc3c0 f i tr_trisurf.obj
 0001:000db3c0       ?UnlinkFreeInternal@?$idDynamicBlockAlloc@UshadowCache_s@@$0EAAAA@$0EAA@@@AAEXPAV?$idDynamicBlock@UshadowCache_s@@@@@Z 004dc3c0 f i tr_trisurf.obj
 0001:000db3c0       ?UnlinkFreeInternal@?$idDynamicBlockAlloc@UsilEdge_t@@$0CAAAA@$0EAA@@@AAEXPAV?$idDynamicBlock@UsilEdge_t@@@@@Z 004dc3c0 f i tr_trisurf.obj
 0001:000db3c0       ?UnlinkFreeInternal@?$idDynamicBlockAlloc@VidDrawVert@@$0BAAAAA@$0EAA@@@AAEXPAV?$idDynamicBlock@VidDrawVert@@@@@Z 004dc3c0 f i tr_trisurf.obj
 0001:000db3c0       ?UnlinkFreeInternal@?$idDynamicBlockAlloc@VidPlane@@$0CAAAA@$0EAA@@@AAEXPAV?$idDynamicBlock@VidPlane@@@@@Z 004dc3c0 f i tr_trisurf.obj
 0001:000db3f0       ?R_CreateTurboShadowVolume@@YAPAUsrfTriangles_s@@PBVidRenderEntityLocal@@PBU1@PBVidRenderLightLocal@@AAUsrfCullInfo_t@@@Z 004dc3f0 f   tr_turboshadow.obj
 0001:000db850       ?R_CreateVertexProgramTurboShadowVolume@@YAPAUsrfTriangles_s@@PBVidRenderEntityLocal@@PBU1@PBVidRenderLightLocal@@AAUsrfCullInfo_t@@@Z 004dc850 f   tr_turboshadow.obj
 0001:000dbbf0       ?Alloc@?$idBlockAlloc@UvertCache_s@@$0EAA@@@QAEPAUvertCache_s@@XZ 004dcbf0 f i VertexCache.obj
 0001:000dbc60       ?Alloc@idVertexCache@@QAEXPAXHPAPAUvertCache_s@@_N@Z 004dcc60 f   VertexCache.obj
 0001:000dbde0       ?AllocFrameTemp@idVertexCache@@QAEPAUvertCache_s@@PAXH@Z 004dcde0 f   VertexCache.obj
 0001:000dc010       ?EndFrame@idVertexCache@@QAEXXZ 004dd010 f   VertexCache.obj
 0001:000dc220       ?Free@idVertexCache@@QAEXPAUvertCache_s@@@Z 004dd220 f   VertexCache.obj
 0001:000dc2a0       ?Init@idVertexCache@@QAEXXZ 004dd2a0 f   VertexCache.obj
 0001:000dc3f0       ?IsFast@idVertexCache@@QAE_NXZ 004dd3f0 f   VertexCache.obj
 0001:000dc400       ?Position@idVertexCache@@QAEPAXPAUvertCache_s@@@Z 004dd400 f   VertexCache.obj
 0001:000dc4a0       ?PurgeAll@idVertexCache@@QAEXXZ 004dd4a0 f   VertexCache.obj
 0001:000dc690       ?Shutdown@?$idBlockAlloc@UvertCache_s@@$0EAA@@@QAEXXZ 004dd690 f i VertexCache.obj
 0001:000dc6e0       ?Shutdown@idVertexCache@@QAEXXZ 004dd6e0 f   VertexCache.obj
 0001:000dc6f0       ?Touch@idVertexCache@@QAEXPAUvertCache_s@@@Z 004dd6f0 f   VertexCache.obj
 0001:000dc780       ?UnbindIndex@idVertexCache@@QAEXXZ 004dd780 f   VertexCache.obj
 0001:000dc790       _jpeg_abort                004dd790 f   jcomapi.obj
 0001:000dc7c0       _jpeg_alloc_huff_table     004dd7c0 f   jcomapi.obj
 0001:000dc7e0       _jpeg_alloc_quant_table    004dd7e0 f   jcomapi.obj
 0001:000dc800       _jpeg_destroy              004dd800 f   jcomapi.obj
 0001:000dc9e0       _jpeg_create_decompress    004dd9e0 f   jdapimin.obj
 0001:000dcaa0       _jpeg_destroy_decompress   004ddaa0 f   jdapimin.obj
 0001:000dcab0       _jpeg_finish_decompress    004ddab0 f   jdapimin.obj
 0001:000dcb80       _jpeg_read_header          004ddb80 f   jdapimin.obj
 0001:000dccb0       _jpeg_read_scanlines       004ddcb0 f   jdapistd.obj
 0001:000dcd50       _jpeg_start_decompress     004ddd50 f   jdapistd.obj
 0001:000dce80       _jpeg_stdio_src            004dde80 f   jdatasrc.obj
 0001:000dd1e0       _jinit_d_coef_controller   004de1e0 f   jdcoefct.obj
 0001:000dd460       _jinit_color_deconverter   004de460 f   jdcolor.obj
 0001:000dd960       _jinit_inverse_dct         004de960 f   jddctmgr.obj
 0001:000de130       _jinit_huff_decoder        004df130 f   jdhuff.obj
 0001:000de1a0       _jpeg_fill_bit_buffer      004df1a0 f   jdhuff.obj
 0001:000de2a0       _jpeg_huff_decode          004df2a0 f   jdhuff.obj
 0001:000de390       _jpeg_make_d_derived_tbl   004df390 f   jdhuff.obj
 0001:000de9e0       _jinit_input_controller    004df9e0 f   jdinput.obj
 0001:000decf0       _jinit_d_main_controller   004dfcf0 f   jdmainct.obj
 0001:000e04c0       _jinit_marker_reader       004e14c0 f   jdmarker.obj
 0001:000e0580       _jpeg_resync_to_restart    004e1580 f   jdmarker.obj
 0001:000e0e80       _jinit_master_decompress   004e1e80 f   jdmaster.obj
 0001:000e1300       _jinit_d_post_controller   004e2300 f   jdpostct.obj
 0001:000e1870       _jinit_upsampler           004e2870 f   jdsample.obj
 0001:000e1cb0       _jpeg_std_error            004e2cb0 f   jerror.obj
 0001:000e1d70       _jpeg_idct_float           004e2d70 f   jidctflt.obj
 0001:000e2a40       _jinit_memory_mgr          004e3a40 f   jmemmgr.obj
 0001:000e2f10       _jpeg_free_large           004e3f10 f   jmemnobs.obj
 0001:000e2f10       _jpeg_free_small           004e3f10 f   jmemnobs.obj
 0001:000e2f20       _jpeg_get_large            004e3f20 f   jmemnobs.obj
 0001:000e2f20       _jpeg_get_small            004e3f20 f   jmemnobs.obj
 0001:000e2f30       _jpeg_mem_available        004e3f30 f   jmemnobs.obj
 0001:000e2f40       _jpeg_open_backing_store   004e3f40 f   jmemnobs.obj
 0001:000e2f60       _jcopy_sample_rows         004e3f60 f   jutils.obj
 0001:000e2fb0       _jdiv_round_up             004e3fb0 f   jutils.obj
 0001:000e2fc0       _jround_up                 004e3fc0 f   jutils.obj
 0001:000e2fe0       _jzero_far                 004e3fe0 f   jutils.obj
 0001:000e3000       ??0idSoundCache@@QAE@XZ    004e4000 f   snd_cache.obj
 0001:000e31a0       ??1idSoundCache@@QAE@XZ    004e41a0 f   snd_cache.obj
 0001:000e3290       ?Alloc@?$idDynamicBlockAlloc@E$0BAAAAA@$0EAA@@@QAEPAEH@Z 004e4290 f i snd_cache.obj
 0001:000e32e0       ?AllocInternal@?$idDynamicBlockAlloc@E$0BAAAAA@$0EAA@@@AAEPAV?$idDynamicBlock@E@@H@Z 004e42e0 f i snd_cache.obj
 0001:000e32e0       ?AllocInternal@?$idDynamicBlockAlloc@E$0BAAAAA@$0IA@@@AAEPAV?$idDynamicBlock@E@@H@Z 004e42e0 f i snd_decoder.obj
 0001:000e33e0       ?BeginLevelLoad@idSoundCache@@QAEXXZ 004e43e0 f   snd_cache.obj
 0001:000e3430       ?EndLevelLoad@idSoundCache@@QAEXXZ 004e4430 f   snd_cache.obj
 0001:000e34f0       ?FetchFromCache@idSoundSample@@QAE_NHPAPBEPAH1_N@Z 004e44f0 f   snd_cache.obj
 0001:000e3560       ?FindSound@idSoundCache@@QAEPAVidSoundSample@@ABVidStr@@_N@Z 004e4560 f   snd_cache.obj
 0001:000e37d0       ?GetNewTimeStamp@idSoundSample@@QBEJXZ 004e47d0 f   snd_cache.obj
 0001:000e3860       ?GetObjectA@idSoundCache@@QBEPBVidSoundSample@@H@Z 004e4860 f   snd_cache.obj
 0001:000e3880       ?LengthIn44kHzSamples@idSoundSample@@QBEHXZ 004e4880 f   snd_cache.obj
 0001:000e38a0       ?Load@idSoundSample@@QAEXXZ 004e48a0 f   snd_cache.obj
 0001:000e4080       ?MakeDefault@idSoundSample@@QAEXXZ 004e5080 f   snd_cache.obj
 0001:000e41f0       ?PrintMemInfo@idSoundCache@@QAEXPAUMemInfo_t@@@Z 004e51f0 f   snd_cache.obj
 0001:000e44d0       ?PurgeSoundSample@idSoundSample@@QAEXXZ 004e54d0 f   snd_cache.obj
 0001:000e45a0       ?ReloadSounds@idSoundCache@@QAEX_N@Z 004e55a0 f   snd_cache.obj
 0001:000e4630       ?ResizeInternal@?$idDynamicBlockAlloc@E$0BAAAAA@$0EAA@@@AAEPAV?$idDynamicBlock@E@@PAV2@H@Z 004e5630 f i snd_cache.obj
 0001:000e4760       ??0element_s@?$idBlockAlloc@VidSampleDecoderLocal@@$0EA@@@QAE@XZ 004e5760 f i snd_decoder.obj
 0001:000e47b0       ??1element_s@?$idBlockAlloc@VidSampleDecoderLocal@@$0EA@@@QAE@XZ 004e57b0 f i snd_decoder.obj
 0001:000e47d0       ??1idSampleDecoder@@UAE@XZ 004e57d0 f i snd_decoder.obj
 0001:000e47e0       ??_EidSampleDecoder@@UAEPAXI@Z 004e57e0 f i snd_decoder.obj
 0001:000e47e0       ??_GidSampleDecoder@@UAEPAXI@Z 004e57e0 f i snd_decoder.obj
 0001:000e4810       ??_EidSampleDecoderLocal@@UAEPAXI@Z 004e5810 f i snd_decoder.obj
 0001:000e4810       ??_GidSampleDecoderLocal@@UAEPAXI@Z 004e5810 f i snd_decoder.obj
 0001:000e4840       ?Alloc@idSampleDecoder@@SAPAV1@XZ 004e5840 f   snd_decoder.obj
 0001:000e4930       ?ClearDecoder@idSampleDecoderLocal@@UAEXXZ 004e5930 f   snd_decoder.obj
 0001:000e4990       ?CloseOGG@idWaveFile@@AAEHXZ 004e5990 f   snd_decoder.obj
 0001:000e49f0       ?Decode@idSampleDecoderLocal@@UAEXPAVidSoundSample@@HHPAM@Z 004e59f0 f   snd_decoder.obj
 0001:000e4ce0       ?FS_ReadOGG@@YAIPAXII0@Z   004e5ce0 f   snd_decoder.obj
 0001:000e4d00       ?FS_SeekOGG@@YAHPAX_JH@Z   004e5d00 f   snd_decoder.obj
 0001:000e4d70       ?FS_TellOGG@@YAJPAX@Z      004e5d70 f   snd_decoder.obj
 0001:000e4d80       ?Free@idSampleDecoder@@SAXPAV1@@Z 004e5d80 f   snd_decoder.obj
 0001:000e4db0       ?GetLastDecodeTime@idSampleDecoderLocal@@UBEHXZ 004e5db0 f   snd_decoder.obj
 0001:000e4db0       ?c_str@idWinStr@@UBEPBDXZ  004e5db0 f   BindWindow.obj
 0001:000e4dc0       ?GetNumUsedBlocks@idSampleDecoder@@SAHXZ 004e5dc0 f   snd_decoder.obj
 0001:000e4dd0       ?GetUsedBlockMemory@idSampleDecoder@@SAHXZ 004e5dd0 f   snd_decoder.obj
 0001:000e4de0       ?Init@idSampleDecoder@@SAXXZ 004e5de0 f   snd_decoder.obj
 0001:000e4e20       ?OpenOGG@idWaveFile@@AAEHPBDPAUwaveformatex_s@@@Z 004e5e20 f   snd_decoder.obj
 0001:000e4f90       ?ReadOGG@idWaveFile@@AAEHPAEHPAH@Z 004e5f90 f   snd_decoder.obj
 0001:000e5000       ?ResizeInternal@?$idDynamicBlockAlloc@E$0BAAAAA@$0IA@@@AAEPAV?$idDynamicBlock@E@@PAV2@H@Z 004e6000 f i snd_decoder.obj
 0001:000e5130       ?SetFixedBlocks@?$idDynamicBlockAlloc@E$0BAAAAA@$0IA@@@QAEXH@Z 004e6130 f i snd_decoder.obj
 0001:000e52f0       ?Shutdown@?$idBlockAlloc@VidSampleDecoderLocal@@$0EA@@@QAEXXZ 004e62f0 f i snd_decoder.obj
 0001:000e5380       ?Shutdown@idSampleDecoder@@SAXXZ 004e6380 f   snd_decoder.obj
 0001:000e53a0       ?ov_openFile@@YAHPAVidFile@@PAUOggVorbis_File@@@Z 004e63a0 f   snd_decoder.obj
 0001:000e5400       __decoder_calloc           004e6400 f   snd_decoder.obj
 0001:000e5470       __decoder_free             004e6470 f   snd_decoder.obj
 0001:000e54a0       __decoder_malloc           004e64a0 f   snd_decoder.obj
 0001:000e54f0       __decoder_realloc          004e64f0 f   snd_decoder.obj
 0001:000e55b0       ??0idEFXFile@@QAE@XZ       004e65b0 f   snd_efxfile.obj
 0001:000e55e0       ??1idEFXFile@@QAE@XZ       004e65e0 f   snd_efxfile.obj
 0001:000e5640       ?Clear@idEFXFile@@QAEXXZ   004e6640 f   snd_efxfile.obj
 0001:000e5710       ?FindEffect@idEFXFile@@QAE_NAAVidStr@@PAPAVidSoundEffect@@PAH@Z 004e6710 f   snd_efxfile.obj
 0001:000e5770       ?LoadFile@idEFXFile@@QAE_NPBD_N@Z 004e6770 f   snd_efxfile.obj
 0001:000e5920       ?ReadEffect@idEFXFile@@QAE_NAAVidLexer@@PAVidSoundEffect@@@Z 004e6920 f   snd_efxfile.obj
 0001:000e5f30       ?UnloadFile@idEFXFile@@QAEXXZ 004e6f30 f   snd_efxfile.obj
 0001:000e5f40       ??0idSlowChannel@@QAE@XZ   004e6f40 f i snd_emitter.obj
 0001:000e5f70       ??0idSoundChannel@@QAE@XZ  004e6f70 f   snd_emitter.obj
 0001:000e5f90       ??0idSoundEmitterLocal@@QAE@XZ 004e6f90 f   snd_emitter.obj
 0001:000e6020       ??1idSlowChannel@@QAE@XZ   004e7020 f i snd_emitter.obj
 0001:000e6040       ??1idSoundChannel@@QAE@XZ  004e7040 f   snd_emitter.obj
 0001:000e6070       ??1idSoundEmitter@@UAE@XZ  004e7070 f i snd_emitter.obj
 0001:000e6080       ??_ESoundFX@@UAEPAXI@Z     004e7080 f i snd_emitter.obj
 0001:000e6080       ??_ESoundFX_Lowpass@@UAEPAXI@Z 004e7080 f i snd_system.obj
 0001:000e6080       ??_GSoundFX@@UAEPAXI@Z     004e7080 f i snd_emitter.obj
 0001:000e6080       ??_GSoundFX_Lowpass@@UAEPAXI@Z 004e7080 f i snd_system.obj
 0001:000e60c0       ??_ESoundFX_LowpassFast@@UAEPAXI@Z 004e70c0 f i snd_emitter.obj
 0001:000e60c0       ??_GSoundFX_LowpassFast@@UAEPAXI@Z 004e70c0 f i snd_emitter.obj
 0001:000e6100       ??_EidSoundEmitter@@UAEPAXI@Z 004e7100 f i snd_emitter.obj
 0001:000e6100       ??_GidSoundEmitter@@UAEPAXI@Z 004e7100 f i snd_emitter.obj
 0001:000e6130       ??_EidSoundEmitterLocal@@UAEPAXI@Z 004e7130 f i snd_emitter.obj
 0001:000e6130       ??_GidSoundEmitterLocal@@UAEPAXI@Z 004e7130 f i snd_emitter.obj
 0001:000e61c0       ?ALStop@idSoundChannel@@QAEXXZ 004e71c0 f   snd_emitter.obj
 0001:000e6290       ?AttachSoundChannel@idSlowChannel@@QAEXPBVidSoundChannel@@@Z 004e7290 f   snd_emitter.obj
 0001:000e62a0       ?CheckForCompletion@idSoundEmitterLocal@@QAEXH@Z 004e72a0 f   snd_emitter.obj
 0001:000e6580       ?Clear@idSoundChannel@@QAEXXZ 004e7580 f   snd_emitter.obj
 0001:000e6660       ?Clear@idSoundEmitterLocal@@QAEXXZ 004e7660 f   snd_emitter.obj
 0001:000e66d0       ?Clear@idSoundFade@@QAEXXZ 004e76d0 f   snd_emitter.obj
 0001:000e66f0       ?CurrentAmplitude@idSoundEmitterLocal@@UAEMXZ 004e76f0 f   snd_emitter.obj
 0001:000e6770       ?CurrentlyPlaying@idSoundEmitterLocal@@UBE_NXZ 004e7770 f   snd_emitter.obj
 0001:000e6780       ?FadeDbAt44kHz@idSoundFade@@QAEMH@Z 004e7780 f   snd_emitter.obj
 0001:000e67f0       ?FadeSound@idSoundEmitterLocal@@UAEXHMM@Z 004e77f0 f   snd_emitter.obj
 0001:000e69a0       ?Free@idSoundEmitterLocal@@UAEX_N@Z 004e79a0 f   snd_emitter.obj
 0001:000e6a30       ?GatherChannelSamples@idSlowChannel@@QAEXHHPAM@Z 004e7a30 f   snd_emitter.obj
 0001:000e6aa0       ?GatherChannelSamples@idSoundChannel@@QBEXHHPAM@Z 004e7aa0 f   snd_emitter.obj
 0001:000e6c00       ?GenerateSlowChannel@idSlowChannel@@AAEXAAVFracTime@@HPAM@Z 004e7c00 f   snd_emitter.obj
 0001:000e6e30       ?GetSlowChannel@idSoundEmitterLocal@@QAE?AVidSlowChannel@@PBVidSoundChannel@@@Z 004e7e30 f   snd_emitter.obj
 0001:000e6f60       ?ModifySound@idSoundEmitterLocal@@UAEXHPBUsoundShaderParms_t@@@Z 004e7f60 f   snd_emitter.obj
 0001:000e7150       ?ResetSlowChannel@idSoundEmitterLocal@@QAEXPBVidSoundChannel@@@Z 004e8150 f   snd_emitter.obj
 0001:000e71c0       ?SetSlowChannel@idSoundEmitterLocal@@QAEXPBVidSoundChannel@@VidSlowChannel@@@Z 004e81c0 f   snd_emitter.obj
 0001:000e72c0       ?Spatialize@idSoundEmitterLocal@@QAEXVidVec3@@HPAVidRenderWorld@@@Z 004e82c0 f   snd_emitter.obj
 0001:000e7530       ?StartSound@idSoundEmitterLocal@@UAEHPBVidSoundShader@@HMH_N@Z 004e8530 f   snd_emitter.obj
 0001:000e7b20       ?Stop@idSoundChannel@@QAEXXZ 004e8b20 f   snd_emitter.obj
 0001:000e7b40       ?StopSound@idSoundEmitterLocal@@UAEXH@Z 004e8b40 f   snd_emitter.obj
 0001:000e7c30       ?UpdateEmitter@idSoundEmitterLocal@@UAEXABVidVec3@@HPBUsoundShaderParms_t@@@Z 004e8c30 f   snd_emitter.obj
 0001:000e7d60       ??0idSoundShader@@QAE@XZ   004e8d60 f   snd_shader.obj
 0001:000e7e00       ??_EidSoundShader@@UAEPAXI@Z 004e8e00 f i snd_shader.obj
 0001:000e7e00       ??_GidSoundShader@@UAEPAXI@Z 004e8e00 f i snd_shader.obj
 0001:000e7e70       ?CheckShakesAndOgg@idSoundShader@@UBE_NXZ 004e8e70 f   snd_shader.obj
 0001:000e7f20       ?DefaultDefinition@idSoundShader@@UBEPBDXZ 004e8f20 f   snd_shader.obj
 0001:000e7f30       ?FreeData@idSoundShader@@UAEXXZ 004e8f30 f   snd_shader.obj
 0001:000e7f50       ?GetMaxDistance@idSoundShader@@UBEMXZ 004e8f50 f   snd_shader.obj
 0001:000e7f60       ?GetMinDistance@idSoundShader@@UBEMXZ 004e8f60 f   snd_shader.obj
 0001:000e7f70       ?GetNumSounds@idSoundShader@@UBEHXZ 004e8f70 f   snd_shader.obj
 0001:000e7f80       ?GetParms@idSoundShader@@UBEPBUsoundShaderParms_t@@XZ 004e8f80 f   snd_shader.obj
 0001:000e7f90       ?GetSound@idSoundShader@@UBEPBDH@Z 004e8f90 f   snd_shader.obj
 0001:000e7fd0       ?HasDefaultSound@idSoundShader@@UBE_NXZ 004e8fd0 f   snd_shader.obj
 0001:000e8000       ?List@idSoundShader@@UBEXXZ 004e9000 f   snd_shader.obj
 0001:000e8190       ?Parse@idSoundShader@@UAE_NPBDH@Z 004e9190 f   snd_shader.obj
 0001:000e8250       ?ParseShader@idSoundShader@@AAE_NAAVidLexer@@@Z 004e9250 f   snd_shader.obj
 0001:000e8b50       ?SetDefaultText@idSoundShader@@UAE_NXZ 004e9b50 f   snd_shader.obj
 0001:000e8c10       ?Size@idSoundShader@@UBEIXZ 004e9c10 f   snd_shader.obj
 0001:000e8c20       ?Init@idSoundSystemLocal@@UAEXXZ 004e9c20 f   snd_system.obj
 0001:000e9190       ?Shutdown@idSoundSystemLocal@@UAEXXZ 004ea190 f   snd_system.obj
 0001:000e9280       ?ClearBuffer@idSoundSystemLocal@@UAEXXZ 004ea280 f   snd_system.obj
 0001:000e92e0       ?ShutdownHW@idSoundSystemLocal@@UAE_NXZ 004ea2e0 f   snd_system.obj
 0001:000e9350       ?InitHW@idSoundSystemLocal@@UAE_NXZ 004ea350 f   snd_system.obj
 0001:000e93e0       ?AsyncUpdate@idSoundSystemLocal@@UAEHH@Z 004ea3e0 f   snd_system.obj
 0001:000e9630       ?AsyncUpdateWrite@idSoundSystemLocal@@UAEHH@Z 004ea630 f   snd_system.obj
 0001:000e97d0       ?AsyncMix@idSoundSystemLocal@@UAEHHPAM@Z 004ea7d0 f   snd_system.obj
 0001:000e9840       ?SetMute@idSoundSystemLocal@@UAEX_N@Z 004ea840 f   snd_system.obj
 0001:000e9850       ?ImageForTime@idSoundSystemLocal@@UAE?AUcinData_t@@H_N@Z 004ea850 f   snd_system.obj
 0001:000e9ed0       ?GetSoundDecoderInfo@idSoundSystemLocal@@UAEHHAAUsoundDecoderInfo_t@@@Z 004eaed0 f   snd_system.obj
 0001:000ea050       ?AllocSoundWorld@idSoundSystemLocal@@UAEPAVidSoundWorld@@PAVidRenderWorld@@@Z 004eb050 f   snd_system.obj
 0001:000ea0c0       ?SetPlayingSoundWorld@idSoundSystemLocal@@UAEXPAVidSoundWorld@@@Z 004eb0c0 f   snd_system.obj
 0001:000ea0d0       ?BeginLevelLoad@idSoundSystemLocal@@UAEXXZ 004eb0d0 f   snd_system.obj
 0001:000ea110       ?EndLevelLoad@idSoundSystemLocal@@UAEXPBD@Z 004eb110 f   snd_system.obj
 0001:000ea2a0       ?PrintMemInfo@idSoundSystemLocal@@UAEXPAUMemInfo_t@@@Z 004eb2a0 f   snd_system.obj
 0001:000ea2b0       ?IsEAXAvailable@idSoundSystemLocal@@UAEHXZ 004eb2b0 f   snd_system.obj
 0001:000ea360       ??_EidSoundSystemLocal@@UAEPAXI@Z 004eb360 f i snd_system.obj
 0001:000ea360       ??_GidSoundSystemLocal@@UAEPAXI@Z 004eb360 f i snd_system.obj
 0001:000ea3c0       ??_EidSoundSystem@@UAEPAXI@Z 004eb3c0 f i snd_system.obj
 0001:000ea3c0       ??_GidSoundSystem@@UAEPAXI@Z 004eb3c0 f i snd_system.obj
 0001:000ea3f0       ??$ArgCompletion_Integer@$0A@$09@idCmdSystem@@SAXABVidCmdArgs@@P6AXPBD@Z@Z 004eb3f0 f i snd_system.obj
 0001:000ea430       ??1idSoundSystem@@UAE@XZ   004eb430 f i snd_system.obj
 0001:000ea440       ??_ESoundFX_Comb@@UAEPAXI@Z 004eb440 f i snd_system.obj
 0001:000ea440       ??_GSoundFX_Comb@@UAEPAXI@Z 004eb440 f i snd_system.obj
 0001:000ea480       ?AllocOpenALSource@idSoundSystemLocal@@QAEIPAVidSoundChannel@@_N1@Z 004eb480 f   snd_system.obj
 0001:000ea5f0       ?ArgCompletion_SoundName@idCmdSystem@@SAXABVidCmdArgs@@P6AXPBD@Z@Z 004eb5f0 f i snd_system.obj
 0001:000ea620       ?DoEnviroSuit@idSoundSystemLocal@@QAEXPAMHH@Z 004eb620 f   snd_system.obj
 0001:000eab70       ?FreeOpenALSource@idSoundSystemLocal@@QAEXI@Z 004ebb70 f   snd_system.obj
 0001:000eac00       ?GetCurrent44kHzTime@idSoundSystemLocal@@QBEHXZ 004ebc00 f   snd_system.obj
 0001:000eac40       ?Initialize@SoundFX_Comb@@UAEXXZ 004ebc40 f   snd_system.obj
 0001:000eac70       ?ListSoundDecoders_f@@YAXABVidCmdArgs@@@Z 004ebc70 f   snd_system.obj
 0001:000eaee0       ?ListSounds_f@@YAXABVidCmdArgs@@@Z 004ebee0 f   snd_system.obj
 0001:000eb0f0       ?MillisecondsToSamples@idSoundSystemLocal@@QBEHH@Z 004ec0f0 f   snd_system.obj
 0001:000eb100       ?ProcessSample@SoundFX_Comb@@UAEXPAM0@Z 004ec100 f   snd_system.obj
 0001:000eb170       ?ProcessSample@SoundFX_Lowpass@@UAEXPAM0@Z 004ec170 f   snd_system.obj
 0001:000eb360       ?ProcessSample@SoundFX_LowpassFast@@UAEXPAM0@Z 004ec360 f   snd_system.obj
 0001:000eb3b0       ?SamplesToMilliseconds@idSoundSystemLocal@@QBEHH@Z 004ec3b0 f   snd_system.obj
 0001:000eb3d0       ?SetParms@SoundFX_LowpassFast@@QAEXMMM@Z 004ec3d0 f   snd_system.obj
 0001:000eb4a0       ?SoundReloadSounds_f@@YAXABVidCmdArgs@@@Z 004ec4a0 f   snd_system.obj
 0001:000eb500       ?SoundSystemRestart_f@@YAXABVidCmdArgs@@@Z 004ec500 f   snd_system.obj
 0001:000eb620       ?TestSound_f@@YAXABVidCmdArgs@@@Z 004ec620 f   snd_system.obj
 0001:000eb660       ?dB2Scale@idSoundSystemLocal@@QBEMM@Z 004ec660 f   snd_system.obj
 0001:000eb6e0       ??0idWaveFile@@QAE@XZ      004ec6e0 f   snd_wavefile.obj
 0001:000eb720       ??1idWaveFile@@QAE@XZ      004ec720 f   snd_wavefile.obj
 0001:000eb7b0       ?Close@idWaveFile@@QAEHXZ  004ec7b0 f   snd_wavefile.obj
 0001:000eb7e0       ?Open@idWaveFile@@QAEHPBDPAUwaveformatex_s@@@Z 004ec7e0 f   snd_wavefile.obj
 0001:000ebb70       ?OpenFromMemory@idWaveFile@@QAEHPAFHPAUwaveformatextensible_s@@@Z 004ecb70 f   snd_wavefile.obj
 0001:000ebbb0       ?Read@idWaveFile@@QAEHPAEHPAH@Z 004ecbb0 f   snd_wavefile.obj
 0001:000ebc80       ?ResetFile@idWaveFile@@QAEHXZ 004ecc80 f   snd_wavefile.obj
 0001:000ebd20       ??0idSoundWorldLocal@@QAE@XZ 004ecd20 f   snd_world.obj
 0001:000ebdc0       ??_EidSoundWorld@@UAEPAXI@Z 004ecdc0 f i snd_world.obj
 0001:000ebdc0       ??_GidSoundWorld@@UAEPAXI@Z 004ecdc0 f i snd_world.obj
 0001:000ebdf0       ??_EidSoundWorldLocal@@UAEPAXI@Z 004ecdf0 f i snd_world.obj
 0001:000ebdf0       ??_GidSoundWorldLocal@@UAEPAXI@Z 004ecdf0 f i snd_world.obj
 0001:000ebf20       ?AVIClose@idSoundWorldLocal@@UAEXXZ 004ecf20 f   snd_world.obj
 0001:000ec4e0       ?AVIOpen@idSoundWorldLocal@@UAEXPBD0@Z 004ed4e0 f   snd_world.obj
 0001:000ec9c0       ?AVIUpdate@idSoundWorldLocal@@QAEXXZ 004ed9c0 f   snd_world.obj
 0001:000ecb00       ?AddChannelContribution@idSoundWorldLocal@@QAEXPAVidSoundEmitterLocal@@PAVidSoundChannel@@HHPAM@Z 004edb00 f   snd_world.obj
 0001:000ed770       ?AllocLocalSoundEmitter@idSoundWorldLocal@@QAEPAVidSoundEmitterLocal@@XZ 004ee770 f   snd_world.obj
 0001:000ed8d0       ?AllocSoundEmitter@idSoundWorldLocal@@UAEPAVidSoundEmitter@@XZ 004ee8d0 f   snd_world.obj
 0001:000ed930       ?CalcEars@idSoundWorldLocal@@QAEXHVidVec3@@0VidMat3@@QAMM@Z 004ee930 f   snd_world.obj
 0001:000edc70       ?ClearAllSoundEmitters@idSoundWorldLocal@@UAEXXZ 004eec70 f   snd_world.obj
 0001:000edcd0       ?CurrentShakeAmplitudeForPosition@idSoundWorldLocal@@UAEMHABVidVec3@@@Z 004eecd0 f   snd_world.obj
 0001:000ee340       ?EmitterForIndex@idSoundWorldLocal@@UAEPAVidSoundEmitter@@H@Z 004ef340 f   snd_world.obj
 0001:000ee390       ?FadeSoundClasses@idSoundWorldLocal@@UAEXHMM@Z 004ef390 f   snd_world.obj
 0001:000ee450       ?FindAmplitude@idSoundWorldLocal@@QAEMPAVidSoundEmitterLocal@@HPBVidVec3@@H_N@Z 004ef450 f   snd_world.obj
 0001:000eea30       ?ForegroundUpdate@idSoundWorldLocal@@QAEXH@Z 004efa30 f   snd_world.obj
 0001:000eef50       ?Init@idSoundWorldLocal@@QAEXPAVidRenderWorld@@@Z 004eff50 f   snd_world.obj
 0001:000ef140       ?IsPaused@idSoundWorldLocal@@UAE_NXZ 004f0140 f   snd_world.obj
 0001:000ef150       ?MixLoop@idSoundWorldLocal@@QAEXHHPAM@Z 004f0150 f   snd_world.obj
 0001:000ef550       ?OffsetSoundTime@idSoundWorldLocal@@QAEXH@Z 004f0550 f   snd_world.obj
 0001:000ef640       ?Pause@idSoundWorldLocal@@UAEXXZ 004f0640 f   snd_world.obj
 0001:000ef670       ?PlaceListener@idSoundWorldLocal@@UAEXABVidVec3@@ABVidMat3@@HHABVidStr@@@Z 004f0670 f   snd_world.obj
 0001:000ef8a0       ?PlayShaderDirectly@idSoundWorldLocal@@UAEXPBDH@Z 004f08a0 f   snd_world.obj
 0001:000ef960       ?ProcessDemoCommand@idSoundWorldLocal@@UAEXPAVidDemoFile@@@Z 004f0960 f   snd_world.obj
 0001:000efde0       ?ReadFromSaveGame@idSoundWorldLocal@@UAEXPAVidFile@@@Z 004f0de0 f   snd_world.obj
 0001:000f0220       ?ReadFromSaveGameSoundChannel@idSoundWorldLocal@@UAEXPAVidFile@@PAVidSoundChannel@@@Z 004f1220 f   snd_world.obj
 0001:000f0310       ?ReadFromSaveGameSoundShaderParams@idSoundWorldLocal@@UAEXPAVidFile@@PAUsoundShaderParms_t@@@Z 004f1310 f   snd_world.obj
 0001:000f0360       ?ResolveOrigin@idSoundWorldLocal@@QAEXHPBUsoundPortalTrace_s@@HMABVidVec3@@PAVidSoundEmitterLocal@@@Z 004f1360 f   snd_world.obj
 0001:000f08f0       ?SetEnviroSuit@idSoundWorldLocal@@UAEX_N@Z 004f18f0 f   snd_world.obj
 0001:000f0900       ?SetSlowmo@idSoundWorldLocal@@UAEX_N@Z 004f1900 f   snd_world.obj
 0001:000f0910       ?SetSlowmoSpeed@idSoundWorldLocal@@UAEXM@Z 004f1910 f   snd_world.obj
 0001:000f0930       ?StartWritingDemo@idSoundWorldLocal@@UAEXPAVidDemoFile@@@Z 004f1930 f   snd_world.obj
 0001:000f0960       ?StopAllSounds@idSoundWorldLocal@@UAEXXZ 004f1960 f   snd_world.obj
 0001:000f0990       ?UnPause@idSoundWorldLocal@@UAEXXZ 004f1990 f   snd_world.obj
 0001:000f09d0       ?WriteToSaveGame@idSoundWorldLocal@@UAEXPAVidFile@@@Z 004f19d0 f   snd_world.obj
 0001:000f0c20       ?WriteToSaveGameSoundChannel@idSoundWorldLocal@@UAEXPAVidFile@@PAVidSoundChannel@@@Z 004f1c20 f   snd_world.obj
 0001:000f0d50       ?WriteToSaveGameSoundShaderParams@idSoundWorldLocal@@UAEXPAVidFile@@PAUsoundShaderParms_t@@@Z 004f1d50 f   snd_world.obj
 0001:000f0dd0       _vorbis_bitrate_clear      004f1dd0 f   bitrate.obj
 0001:000f0eb0       _vorbis_bitrate_managed    004f1eb0 f   bitrate.obj
 0001:000f1270       __vorbis_block_alloc       004f2270 f   block.obj
 0001:000f12d0       __vorbis_block_ripcord     004f22d0 f   block.obj
 0001:000f1340       _vorbis_block_clear        004f2340 f   block.obj
 0001:000f13a0       _vorbis_block_init         004f23a0 f   block.obj
 0001:000f13f0       _vorbis_dsp_clear          004f23f0 f   block.obj
 0001:000f1600       _vorbis_synthesis_blockin  004f2600 f   block.obj
 0001:000f1cd0       _vorbis_synthesis_init     004f2cd0 f   block.obj
 0001:000f1d60       _vorbis_synthesis_pcmout   004f2d60 f   block.obj
 0001:000f1dc0       _vorbis_synthesis_read     004f2dc0 f   block.obj
 0001:000f1df0       _vorbis_synthesis_restart  004f2df0 f   block.obj
 0001:000f1fe0       _vorbis_book_decode        004f2fe0 f   codebook.obj
 0001:000f2000       _vorbis_book_decodev_add   004f3000 f   codebook.obj
 0001:000f24a0       _vorbis_book_decodev_set   004f34a0 f   codebook.obj
 0001:000f2660       _vorbis_book_decodevs_add  004f3660 f   codebook.obj
 0001:000f2930       _vorbis_book_decodevv_add  004f3930 f   codebook.obj
 0001:000f2b50       _vorbis_book_encode        004f3b50 f   codebook.obj
 0001:000f2b90       _vorbis_staticbook_unpack  004f3b90 f   codebook.obj
 0001:000f2e20       __ve_envelope_clear        004f3e20 f   envelope.obj
 0001:000f4850       _floor1_encode             004f5850 f   floor1.obj
 0001:000f4e90       _floor1_fit                004f5e90 f   floor1.obj
 0001:000f53a0       _floor1_interpolate_fit    004f63a0 f   floor1.obj
 0001:000f5be0       _vorbis_comment_clear      004f6be0 f   info.obj
 0001:000f5c50       _vorbis_comment_init       004f6c50 f   info.obj
 0001:000f5c60       _vorbis_info_blocksize     004f6c60 f   info.obj
 0001:000f5c80       _vorbis_info_clear         004f6c80 f   info.obj
 0001:000f5de0       _vorbis_info_init          004f6de0 f   info.obj
 0001:000f5e10       _vorbis_synthesis_headerin 004f6e10 f   info.obj
 0001:000f6020       _vorbis_lsp_to_curve       004f7020 f   lsp.obj
 0001:000f74d0       _mdct_backward             004f84d0 f   mdct.obj
 0001:000f8330       _mdct_clear                004f9330 f   mdct.obj
 0001:000f8370       _mdct_forward              004f9370 f   mdct.obj
 0001:000f8590       _mdct_init                 004f9590 f   mdct.obj
 0001:000f88b0       __vi_psy_free              004f98b0 f   psy.obj
 0001:000f88e0       __vp_couple                004f98e0 f   psy.obj
 0001:000f8f10       __vp_global_free           004f9f10 f   psy.obj
 0001:000f8f40       __vp_noise_normalize       004f9f40 f   psy.obj
 0001:000f93d0       __vp_noise_normalize_sort  004fa3d0 f   psy.obj
 0001:000f95f0       __vp_noisemask             004fa5f0 f   psy.obj
 0001:000f9a80       __vp_offset_and_mix        004faa80 f   psy.obj
 0001:000f9b00       __vp_psy_clear             004fab00 f   psy.obj
 0001:000f9bd0       __vp_psy_init              004fabd0 f   psy.obj
 0001:000fa400       __vp_quantize_couple_memo  004fb400 f   psy.obj
 0001:000fa6d0       __vp_quantize_couple_sort  004fb6d0 f   psy.obj
 0001:000fa840       __vp_remove_floor          004fb840 f   psy.obj
 0001:000fa970       __vp_tonemask              004fb970 f   psy.obj
 0001:000fbf70       _res0_free_info            004fcf70 f   res0.obj
 0001:000fbfa0       _res0_free_look            004fcfa0 f   res0.obj
 0001:000fc020       _res0_pack                 004fd020 f   res0.obj
 0001:000fc120       _res0_unpack               004fd120 f   res0.obj
 0001:000fc270       _res0_look                 004fd270 f   res0.obj
 0001:000fc450       _res0_inverse              004fd450 f   res0.obj
 0001:000fc4b0       _res1_forward              004fd4b0 f   res0.obj
 0001:000fc9f0       _res1_class                004fd9f0 f   res0.obj
 0001:000fccb0       _res1_inverse              004fdcb0 f   res0.obj
 0001:000fcd10       _res2_class                004fdd10 f   res0.obj
 0001:000fd000       _res2_forward              004fe000 f   res0.obj
 0001:000fd290       _res2_inverse              004fe290 f   res0.obj
 0001:000fdc90       __book_maptype1_quantvals  004fec90 f   sharedbook.obj
 0001:000fdd30       __book_unquantize          004fed30 f   sharedbook.obj
 0001:000fe0b0       __ilog                     004ff0b0 f   sharedbook.obj
 0001:000fe0d0       __make_words               004ff0d0 f   sharedbook.obj
 0001:000fe290       _vorbis_book_clear         004ff290 f   sharedbook.obj
 0001:000fe300       _vorbis_book_init_decode   004ff300 f   sharedbook.obj
 0001:000feb10       _vorbis_book_init_encode   004ffb10 f   sharedbook.obj
 0001:000feb60       _vorbis_staticbook_clear   004ffb60 f   sharedbook.obj
 0001:000fec20       _vorbis_staticbook_destroy 004ffc20 f   sharedbook.obj
 0001:00100530       _drft_clear                00501530 f   smallft.obj
 0001:00100570       _drft_forward              00501570 f   smallft.obj
 0001:001005a0       _drft_init                 005015a0 f   smallft.obj
 0001:001009e0       _vorbis_packet_blocksize   005019e0 f   synthesis.obj
 0001:00100a60       _vorbis_synthesis          00501a60 f   synthesis.obj
 0001:00100bb0       _vorbis_synthesis_trackonly 00501bb0 f   synthesis.obj
 0001:00101d50       _ov_clear                  00502d50 f   vorbisfile.obj
 0001:00101e50       _ov_info                   00502e50 f   vorbisfile.obj
 0001:00101e80       _ov_open_callbacks         00502e80 f   vorbisfile.obj
 0001:00101ec0       _ov_pcm_seek               00502ec0 f   vorbisfile.obj
 0001:00102220       _ov_pcm_seek_page          00503220 f   vorbisfile.obj
 0001:00102940       _ov_pcm_total              00503940 f   vorbisfile.obj
 0001:001029c0       _ov_raw_seek               005039c0 f   vorbisfile.obj
 0001:00102da0       _ov_read                   00503da0 f   vorbisfile.obj
 0001:00103140       _ov_read_float             00504140 f   vorbisfile.obj
 0001:001035c0       __vorbis_apply_window      005045c0 f   windowvb.obj
 0001:00103830       __vorbis_window_get        00504830 f   windowvb.obj
 0001:00103840       _oggpack_adv               00504840 f   bitwise.obj
 0001:00103870       _oggpack_bytes             00504870 f   bitwise.obj
 0001:00103890       _oggpack_look              00504890 f   bitwise.obj
 0001:00103940       _oggpack_read              00504940 f   bitwise.obj
 0001:00103a00       _oggpack_readinit          00504a00 f   bitwise.obj
 0001:00103a30       _oggpack_write             00504a30 f   bitwise.obj
 0001:00103b10       _oggpack_writealign        00504b10 f   bitwise.obj
 0001:00103b30       _oggpack_writeclear        00504b30 f   bitwise.obj
 0001:00103b50       _oggpack_writeinit         00504b50 f   bitwise.obj
 0001:00103ce0       _ogg_page_checksum_set     00504ce0 f   framing.obj
 0001:00103d80       _ogg_page_continued        00504d80 f   framing.obj
 0001:00103d90       _ogg_page_eos              00504d90 f   framing.obj
 0001:00103da0       _ogg_page_granulepos       00504da0 f   framing.obj
 0001:00103e30       _ogg_page_serialno         00504e30 f   framing.obj
 0001:00103e60       _ogg_stream_clear          00504e60 f   framing.obj
 0001:00103eb0       _ogg_stream_init           00504eb0 f   framing.obj
 0001:00103f20       _ogg_stream_packetout      00504f20 f   framing.obj
 0001:00103f40       _ogg_stream_packetpeek     00504f40 f   framing.obj
 0001:00103f60       _ogg_stream_pagein         00504f60 f   framing.obj
 0001:001042f0       _ogg_stream_reset          005052f0 f   framing.obj
 0001:00104370       _ogg_stream_reset_serialno 00505370 f   framing.obj
 0001:00104400       _ogg_sync_buffer           00505400 f   framing.obj
 0001:00104480       _ogg_sync_clear            00505480 f   framing.obj
 0001:001044b0       _ogg_sync_init             005054b0 f   framing.obj
 0001:001044d0       _ogg_sync_pageseek         005054d0 f   framing.obj
 0001:00104690       _ogg_sync_reset            00505690 f   framing.obj
 0001:001046c0       _ogg_sync_wrote            005056c0 f   framing.obj
 0001:001046e0       ?DebugPrintf@idSysLocal@@UAAXPBDZZ 005056e0 f   sys_local.obj
 0001:00104700       ?DebugVPrintf@idSysLocal@@UAEXPBDPAD@Z 00505700 f   sys_local.obj
 0001:00104720       ?GetClockTicks@idSysLocal@@UAENXZ 00505720 f   sys_local.obj
 0001:00104730       ?ClockTicksPerSecond@idSysLocal@@UAENXZ 00505730 f   sys_local.obj
 0001:00104740       ?GetProcessorId@idSysLocal@@UAE?AW4cpuid_t@@XZ 00505740 f   sys_local.obj
 0001:00104750       ?GetProcessorString@idSysLocal@@UAEPBDXZ 00505750 f   sys_local.obj
 0001:00104760       ?FPU_GetState@idSysLocal@@UAEPBDXZ 00505760 f   sys_local.obj
 0001:00104770       ?FPU_StackIsEmpty@idSysLocal@@UAE_NXZ 00505770 f   sys_local.obj
 0001:00104780       ?FPU_SetFTZ@idSysLocal@@UAEX_N@Z 00505780 f   sys_local.obj
 0001:00104790       ?FPU_SetDAZ@idSysLocal@@UAEX_N@Z 00505790 f   sys_local.obj
 0001:001047a0       ?FPU_EnableExceptions@idSysLocal@@UAEXH@Z 005057a0 f   sys_local.obj
 0001:001047b0       ?GetCallStack@idSysLocal@@UAEXPAKH@Z 005057b0 f   sys_local.obj
 0001:001047d0       ?GetCallStackStr@idSysLocal@@UAEPBDPBKH@Z 005057d0 f   sys_local.obj
 0001:001047f0       ?GetCallStackCurStr@idSysLocal@@UAEPBDH@Z 005057f0 f   sys_local.obj
 0001:00104800       ?PostParse@idGameBearShootWindow@@UAEXXZ 00505800 f   GameBearShootWindow.obj
 0001:00104800       ?PostParse@idGameBustOutWindow@@UAEXXZ 00505800 f   GameBustOutWindow.obj
 0001:00104800       ?PostParse@idMarkerWindow@@UAEXXZ 00505800 f   MarkerWindow.obj
 0001:00104800       ?PostParse@idRenderWindow@@UAEXXZ 00505800 f   RenderWindow.obj
 0001:00104800       ?ShutdownSymbols@idSysLocal@@UAEXXZ 00505800 f   sys_local.obj
 0001:00104810       ?LockMemory@idSysLocal@@UAE_NPAXH@Z 00505810 f   sys_local.obj
 0001:00104830       ?UnlockMemory@idSysLocal@@UAE_NPAXH@Z 00505830 f   sys_local.obj
 0001:00104850       ?DLL_Load@idSysLocal@@UAEHPBD@Z 00505850 f   sys_local.obj
 0001:00104860       ?DLL_GetProcAddress@idSysLocal@@UAEPAXHPBD@Z 00505860 f   sys_local.obj
 0001:00104880       ?DLL_Unload@idSysLocal@@UAEXH@Z 00505880 f   sys_local.obj
 0001:00104890       ?DLL_GetFileName@idSysLocal@@UAEXPBDPADH@Z 00505890 f   sys_local.obj
 0001:001048b0       ?GenerateMouseButtonEvent@idSysLocal@@UAE?AUsysEvent_s@@H_N@Z 005058b0 f   sys_local.obj
 0001:001048e0       ?GenerateMouseMoveEvent@idSysLocal@@UAE?AUsysEvent_s@@HH@Z 005058e0 f   sys_local.obj
 0001:00104910       ??$ArgCompletion_String@$1?sysLanguageNames@@3PAPBDA@idCmdSystem@@SAXABVidCmdArgs@@P6AXPBD@Z@Z 00505910 f i sys_local.obj
 0001:00104960       ?Sys_TimeStampToStr@@YAPBDJ@Z 00505960 f   sys_local.obj
 0001:00105120       ?GetCPUInfo@@YA_NAAUcpuInfo_t@@@Z 00506120 f   win_cpu.obj
 0001:00105350       ?Sys_CPUCount@@YAXAAH00@Z  00506350 f   win_cpu.obj
 0001:00105380       ?Sys_ClockTicksPerSecond@@YANXZ 00506380 f   win_cpu.obj
 0001:00105470       ?Sys_FPU_EnableExceptions@@YAXH@Z 00506470 f   win_cpu.obj
 0001:001054a0       ?Sys_FPU_GetState@@YAPBDXZ 005064a0 f   win_cpu.obj
 0001:001057a0       ?Sys_FPU_SetDAZ@@YAX_N@Z   005067a0 f   win_cpu.obj
 0001:001057d0       ?Sys_FPU_SetFTZ@@YAX_N@Z   005067d0 f   win_cpu.obj
 0001:00105800       ?Sys_FPU_SetPrecision@@YAXH@Z 00506800 f   win_cpu.obj
 0001:00105860       ?Sys_FPU_StackIsEmpty@@YA_NXZ 00506860 f   win_cpu.obj
 0001:00105880       ?Sys_GetCPUId@@YA?AW4cpuid_t@@XZ 00506880 f   win_cpu.obj
 0001:00105b80       ?Sys_GetClockTicks@@YANXZ  00506b80 f   win_cpu.obj
 0001:00105be0       ?CheckIfScreenResolutionIsSupported@@YA_NHH@Z 00506be0 f   win_glimp.obj
 0001:00105c50       ?FakeWndProc@@YGJPAUHWND__@@IIJ@Z 00506c50 f   win_glimp.obj
 0001:00105cf0       ?GLW_CheckWGLExtensions@@YAXPAUHDC__@@@Z 00506cf0 f   win_glimp.obj
 0001:001066f0       ?GLimp_ActivateContext@@YAXXZ 005076f0 f   win_glimp.obj
 0001:00106710       ?GLimp_DeactivateContext@@YAXXZ 00507710 f   win_glimp.obj
 0001:00106730       ?GLimp_Init@@YA_NUglimpParms_t@@@Z 00507730 f   win_glimp.obj
 0001:00106ac0       ?GLimp_SetGamma@@YAXQAG00@Z 00507ac0 f   win_glimp.obj
 0001:00106b50       ?GLimp_SetScreenParms@@YA_NUglimpParms_t@@@Z 00507b50 f   win_glimp.obj
 0001:00106d40       ?GLimp_Shutdown@@YAXXZ     00507d40 f   win_glimp.obj
 0001:00106f10       ?GLimp_SwapBuffers@@YAXXZ  00507f10 f   win_glimp.obj
 0001:00106f50       _GLimp_ExtensionPointer    00507f50 f   win_glimp.obj
 0001:00106f80       ?IN_ActivateMouse@@YAXXZ   00507f80 f   win_input.obj
 0001:00106ff0       ?IN_DeactivateMouse@@YAXXZ 00507ff0 f   win_input.obj
 0001:00107030       ?IN_Frame@@YAXXZ           00508030 f   win_input.obj
 0001:00107090       ?Sys_GetConsoleKey@@YAE_N@Z 00508090 f   win_input.obj
 0001:001070b0       ?Sys_GetScanTable@@YAPBEXZ 005080b0 f   win_input.obj
 0001:001070c0       ?Sys_GrabMouseCursor@@YAX_N@Z 005080c0 f   win_input.obj
 0001:00107130       ?Sys_InitInput@@YAXXZ      00508130 f   win_input.obj
 0001:001073d0       ?Sys_InitScanTable@@YAXXZ  005083d0 f   win_input.obj
 0001:00107540       ?Sys_MapCharForKey@@YAEH@Z 00508540 f   win_input.obj
 0001:00107550       ?Sys_PollKeyboardInputEvents@@YAHXZ 00508550 f   win_input.obj
 0001:001075b0       ?Sys_PollMouseInputEvents@@YAHXZ 005085b0 f   win_input.obj
 0001:00107700       ?Sys_ReturnKeyboardInputEvent@@YAHHAAHAA_N@Z 00508700 f   win_input.obj
 0001:00107a00       ?Sys_ReturnMouseInputEvent@@YAHHAAH0@Z 00508a00 f   win_input.obj
 0001:00107ac0       ?Sys_ShutdownInput@@YAXXZ  00508ac0 f   win_input.obj
 0001:00107b30       ?OpenURL@idSysLocal@@UAEXPBD_N@Z 00508b30 f   win_main.obj
 0001:00107be0       ?StartProcess@idSysLocal@@UAEXPBD_N@Z 00508be0 f   win_main.obj
 0001:00107cb0       ?Sys_AlreadyRunning@@YA_NXZ 00508cb0 f   win_main.obj
 0001:00107d30       ?Sys_ClearEvents@@YAXXZ    00508d30 f   win_main.obj
 0001:00107d50       ?Sys_CreateThread@@YAXP6AIPAX@Z0W4xthreadPriority@@AAUxthreadInfo@@PBDQAPAU2@PAH@Z 00508d50 f   win_main.obj
 0001:00107dc0       ?Sys_DLL_GetProcAddress@@YAPAXHPBD@Z 00508dc0 f   win_main.obj
 0001:00107dd0       ?Sys_DLL_Load@@YAHPBD@Z    00508dd0 f   win_main.obj
 0001:00107e80       ?Sys_DLL_Unload@@YAXH@Z    00508e80 f   win_main.obj
 0001:00107ed0       ?Sys_DebugPrintf@@YAXPBDZZ 00508ed0 f   win_main.obj
 0001:00107f20       ?Sys_DebugVPrintf@@YAXPBDPAD@Z 00508f20 f   win_main.obj
 0001:00107f70       ?Sys_DefaultBasePath@@YAPBDXZ 00508f70 f   win_main.obj
 0001:00107f90       ?Sys_DefaultSavePath@@YAPBDXZ 00508f90 f   win_main.obj
 0001:00107fb0       ?Sys_EXEPath@@YAPBDXZ      00508fb0 f   win_main.obj
 0001:00107fd0       ?Sys_EnterCriticalSection@@YAXH@Z 00508fd0 f   win_main.obj
 0001:00108000       ?Sys_Error@@YAXPBDZZ       00509000 f   win_main.obj
 0001:001080a0       ?Sys_FileTimeStamp@@YAJPAU_iobuf@@@Z 005090a0 f   win_main.obj
 0001:001080d0       ?Sys_GenerateEvents@@YAXXZ 005090d0 f   win_main.obj
 0001:00108250       ?Sys_GetClipboardData@@YAPADXZ 00509250 f   win_main.obj
 0001:001082c0       ?Sys_GetEvent@@YA?AUsysEvent_s@@XZ 005092c0 f   win_main.obj
 0001:00108310       ?Sys_GetProcessorId@@YA?AW4cpuid_t@@XZ 00509310 f   win_main.obj
 0001:00108320       ?Sys_GetProcessorString@@YAPBDXZ 00509320 f   win_main.obj
 0001:00108330       ?Sys_In_Restart_f@@YAXABVidCmdArgs@@@Z 00509330 f   win_main.obj
 0001:00108340       ?Sys_Init@@YAXXZ           00509340 f   win_main.obj
 0001:00108a70       ?Sys_IsWindowVisible@@YA_NXZ 00509a70 f   win_main.obj
 0001:00108a90       ?Sys_LeaveCriticalSection@@YAXH@Z 00509a90 f   win_main.obj
 0001:00108ab0       ?Sys_ListFiles@@YAHPBD0AAV?$idList@VidStr@@@@@Z 00509ab0 f   win_main.obj
 0001:00108ce0       ?Sys_Mkdir@@YAXPBD@Z       00509ce0 f   win_main.obj
 0001:00108cf0       ?Sys_Printf@@YAXPBDZZ      00509cf0 f   win_main.obj
 0001:00108d60       ?Sys_QueEvent@@YAXHW4sysEventType_t@@HHHPAX@Z 00509d60 f   win_main.obj
 0001:00108df0       ?Sys_Quit@@YAXXZ           00509df0 f   win_main.obj
 0001:00108e10       ?Sys_SetClipboardData@@YAXPBD@Z 00509e10 f   win_main.obj
 0001:00108e80       ?Sys_ShowWindow@@YAX_N@Z   00509e80 f   win_main.obj
 0001:00108ea0       ?Sys_Shutdown@@YAXXZ       00509ea0 f   win_main.obj
 0001:00108eb0       ?Sys_Sleep@@YAXH@Z         00509eb0 f   win_main.obj
 0001:00108ec0       ?Sys_TriggerEvent@@YAXH@Z  00509ec0 f   win_main.obj
 0001:00108ed0       ?Sys_WaitForEvent@@YAXH@Z  00509ed0 f   win_main.obj
 0001:00108f00       _WinMain@16                00509f00 f   win_main.obj
 0001:00109150       _vsprintf                  0050a150 f i win_main.obj
 0001:00109180       ??0idPort@@QAE@XZ          0050a180 f   win_net.obj
 0001:001091a0       ??1idPort@@UAE@XZ          0050a1a0 f   win_net.obj
 0001:00109210       ??_EidPort@@UAEPAXI@Z      0050a210 f i win_net.obj
 0001:00109210       ??_GidPort@@UAEPAXI@Z      0050a210 f i win_net.obj
 0001:001092a0       ?Alloc@?$idBlockAlloc@UudpMsg_s@@$0EA@@@QAEPAUudpMsg_s@@XZ 0050a2a0 f i win_net.obj
 0001:00109320       ?Close@idPort@@QAEXXZ      0050a320 f   win_net.obj
 0001:00109390       ?GetPacket@idPort@@QAE_NAAUnetadr_t@@PAXAAHH@Z 0050a390 f   win_net.obj
 0001:001095a0       ?GetPacketBlocking@idPort@@QAE_NAAUnetadr_t@@PAXAAHHH@Z 0050a5a0 f   win_net.obj
 0001:00109650       ?InitForPort@idPort@@QAE_NH@Z 0050a650 f   win_net.obj
 0001:00109700       ?NET_ErrorString@@YAPADXZ  0050a700 f   win_net.obj
 0001:00109960       ?NET_IPSocket@@YAHPBDHPAUnetadr_t@@@Z 0050a960 f   win_net.obj
 0001:00109bb0       ?Net_GetUDPPacket@@YA_NHAAUnetadr_t@@PADAAHH@Z 0050abb0 f   win_net.obj
 0001:00109e20       ?Net_NetadrToSockadr@@YAXPBUnetadr_t@@PAUsockaddr@@@Z 0050ae20 f   win_net.obj
 0001:00109e80       ?Net_SendUDPPacket@@YAXHHPBXUnetadr_t@@@Z 0050ae80 f   win_net.obj
 0001:00109f90       ?Net_SockadrToNetadr@@YAXPAUsockaddr@@PAUnetadr_t@@@Z 0050af90 f   win_net.obj
 0001:0010a0d0       ?SendPacket@idPort@@QAEXUnetadr_t@@PBXH@Z 0050b0d0 f   win_net.obj
 0001:0010a2d0       ?Shutdown@?$idBlockAlloc@UudpMsg_s@@$0EA@@@QAEXXZ 0050b2d0 f i win_net.obj
 0001:0010a320       ?Sys_CompareNetAdrBase@@YA_NUnetadr_t@@0@Z 0050b320 f   win_net.obj
 0001:0010a390       ?Sys_InitNetworking@@YAXXZ 0050b390 f   win_net.obj
 0001:0010a650       ?Sys_IsLANAddress@@YA_NUnetadr_t@@@Z 0050b650 f   win_net.obj
 0001:0010a6c0       ?Sys_NetAdrToString@@YAPBDUnetadr_t@@@Z 0050b6c0 f   win_net.obj
 0001:0010a750       ?Sys_StringToNetAdr@@YA_NPBDPAUnetadr_t@@_N@Z 0050b750 f   win_net.obj
 0001:0010a820       ?GLimp_EnableLogging@@YAX_N@Z 0050b820 f   win_qgl.obj
 0001:0010c440       ?QGL_Init@@YA_NPBD@Z       0050d440 f   win_qgl.obj
 0001:0010d940       ?QGL_Shutdown@@YAXXZ       0050e940 f   win_qgl.obj
 0001:00113610       ??0CAtlException@ATL@@QAE@J@Z 00514610 f i win_shared.obj
 0001:00113620       ??0CComBSTR@ATL@@QAE@PBD@Z 00514620 f i win_shared.obj
 0001:001136a0       ??1?$CComPtr@UIEnumWbemClassObject@@@ATL@@QAE@XZ 005146a0 f i win_shared.obj
 0001:001136a0       ??1?$CComPtr@UIWbemClassObject@@@ATL@@QAE@XZ 005146a0 f i win_shared.obj
 0001:001136a0       ??1?$CComPtr@UIWbemLocator@@@ATL@@QAE@XZ 005146a0 f i win_shared.obj
 0001:001136a0       ??1?$CComPtr@UIWbemServices@@@ATL@@QAE@XZ 005146a0 f i win_shared.obj
 0001:001136e0       ??1CComBSTR@ATL@@QAE@XZ    005146e0 f i win_shared.obj
 0001:001136f0       ??1CComVariant@ATL@@QAE@XZ 005146f0 f i win_shared.obj
 0001:00113700       ?AtlThrowImpl@ATL@@YGXJ@Z  00514700 f i win_shared.obj
 0001:00113720       ?GetCallerAddr@@YAKJ@Z     00514720 f   win_shared.obj
 0001:00113760       ?GetFuncAddr@@YAKK@Z       00514760 f   win_shared.obj
 0001:00113790       ?Sys_GetCallStack@@YAXPAKH@Z 00514790 f   win_shared.obj
 0001:00113800       ?Sys_GetCallStackCurStr@@YAPBDH@Z 00514800 f   win_shared.obj
 0001:00113900       ?Sys_GetCallStackStr@@YAPBDPBKH@Z 00514900 f   win_shared.obj
 0001:001139e0       ?Sys_GetCurrentMemoryStatus@@YAXAAUsysMemoryStats_s@@@Z 005149e0 f   win_shared.obj
 0001:00113a80       ?Sys_GetCurrentUser@@YAPADXZ 00514a80 f   win_shared.obj
 0001:00113ad0       ?Sys_GetDriveFreeSpace@@YAHPBD@Z 00514ad0 f   win_shared.obj
 0001:00113b20       ?Sys_GetSystemRam@@YAHXZ   00514b20 f   win_shared.obj
 0001:00113b50       ?Sys_GetVideoRam@@YAHXZ    00514b50 f   win_shared.obj
 0001:00113d60       ?Sys_LockMemory@@YA_NPAXH@Z 00514d60 f   win_shared.obj
 0001:00113d80       ?Sys_Microseconds@@YA_KXZ  00514d80 f   win_shared.obj
 0001:00113ea0       ?Sys_Milliseconds@@YAHXZ   00514ea0 f   win_shared.obj
 0001:00113f00       ?Sys_SetPhysicalWorkMemory@@YAXHH@Z 00514f00 f   win_shared.obj
 0001:00113f20       ?Sys_UnlockMemory@@YA_NPAXH@Z 00514f20 f   win_shared.obj
 0001:00113f40       ?_AtlInitializeCriticalSectionEx@ATL@@YAHPAU_RTL_CRITICAL_SECTION@@KK@Z 00514f40 f i win_shared.obj
 0001:00113f60       ??_EidAudioHardware@@UAEPAXI@Z 00514f60 f i win_snd.obj
 0001:00113f60       ??_GidAudioHardware@@UAEPAXI@Z 00514f60 f i win_snd.obj
 0001:00113f90       ??_EidAudioHardwareWIN32@@UAEPAXI@Z 00514f90 f i win_snd.obj
 0001:00113f90       ??_GidAudioHardwareWIN32@@UAEPAXI@Z 00514f90 f i win_snd.obj
 0001:00114080       ?Alloc@idAudioHardware@@SAPAV1@XZ 00515080 f   win_snd.obj
 0001:001140c0       ?FillBufferWithSound@idAudioBufferWIN32@@QAEHPAUIDirectSoundBuffer@@_N@Z 005150c0 f   win_snd.obj
 0001:00114240       ?GetCurrentPosition@idAudioHardwareWIN32@@UAE_NPAK@Z 00515240 f   win_snd.obj
 0001:001142c0       ?GetMixBufferSize@idAudioHardwareWIN32@@UAEHXZ 005152c0 f i win_snd.obj
 0001:001142d0       ?GetNumberOfSpeakers@idAudioHardwareWIN32@@UAEHXZ 005152d0 f i win_snd.obj
 0001:001142e0       ?Initialize@idAudioHardwareWIN32@@UAE_NXZ 005152e0 f   win_snd.obj
 0001:00114a70       ?InitializeIDAL@@YAPBDPAUHINSTANCE__@@@Z 00515a70 f   win_snd.obj
 0001:00114d70       ?IsSoundPlaying@idAudioBufferWIN32@@UAE_NXZ 00515d70 f   win_snd.obj
 0001:00114da0       ?Lock@idAudioHardwareWIN32@@UAE_NPAPAXPAK@Z 00515da0 f   win_snd.obj
 0001:00114e30       ?Play@idAudioBufferWIN32@@UAEHII@Z 00515e30 f   win_snd.obj
 0001:00114ef0       ?Reset@idAudioBufferWIN32@@UAEHXZ 00515ef0 f   win_snd.obj
 0001:00114f10       ?SetVolume@idAudioBufferWIN32@@UAEXM@Z 00515f10 f   win_snd.obj
 0001:00114f30       ?Stop@idAudioBufferWIN32@@UAEHXZ 00515f30 f   win_snd.obj
 0001:00114f50       ?Sys_FreeOpenAL@@YAXXZ     00515f50 f   win_snd.obj
 0001:00114f70       ?Sys_LoadOpenAL@@YA_NXZ    00515f70 f   win_snd.obj
 0001:00114ff0       ?Unlock@idAudioHardwareWIN32@@UAE_NPAXI@Z 00515ff0 f   win_snd.obj
 0001:00115360       ?Conbuf_AppendText@@YAXPBD@Z 00516360 f   win_syscon.obj
 0001:00115480       ?InputLineWndProc@@YGJPAUHWND__@@IIJ@Z 00516480 f   win_syscon.obj
 0001:00115740       ?Sys_ConsoleInput@@YAPADXZ 00516740 f   win_syscon.obj
 0001:00115770       ?Sys_CreateConsole@@YAXXZ  00516770 f   win_syscon.obj
 0001:00115ae0       ?Sys_DestroyConsole@@YAXXZ 00516ae0 f   win_syscon.obj
 0001:00115b20       ?Sys_ShowConsole@@YAXH_N@Z 00516b20 f   win_syscon.obj
 0001:00115b90       ?Win_SetErrorText@@YAXPBD@Z 00516b90 f   win_syscon.obj
 0001:00115c20       ?DisableTaskKeys@@YAXHHH@Z 00516c20 f   win_taskkeyhook.obj
 0001:00115cf0       ?MyTaskKeyHookLL@@YGJHIJ@Z 00516cf0 f   win_taskkeyhook.obj
 0001:00115d80       ?MainWndProc@@YGJPAUHWND__@@IIJ@Z 00516d80 f   win_wndproc.obj
 0001:001162c0       ?MapKey@@YAHH@Z            005172c0 f   win_wndproc.obj
 0001:00116510       ?WIN_Sizing@@YAXGPAUtagRECT@@@Z 00517510 f   win_wndproc.obj
 0001:001166d0       ??1idAASBuild@@QAE@XZ      005176d0 f   AASBuild.obj
 0001:00116730       ??1idAASSettings@@QAE@XZ   00517730 f i AASBuild.obj
 0001:00116770       ??1idSurface_Patch@@QAE@XZ 00517770 f i AASBuild.obj
 0001:00116780       ??4idAASSettings@@QAEAAV0@ABV0@@Z 00517780 f i AASBuild.obj
 0001:00116970       ??_GidMapFile@@QAEPAXI@Z   00517970 f i AASBuild.obj
 0001:00116a00       ?AddBrushesForMapBrush@idAASBuild@@AAE?AVidBrushList@@PBVidMapBrush@@ABVidVec3@@ABVidMat3@@HHV2@@Z 00517a00 f   AASBuild.obj
 0001:00116dc0       ?AddBrushesForMapEntity@idAASBuild@@AAE?AVidBrushList@@PBVidMapEntity@@HV2@@Z 00517dc0 f   AASBuild.obj
 0001:00116fb0       ?AddBrushesForMapPatch@idAASBuild@@AAE?AVidBrushList@@PBVidMapPatch@@ABVidVec3@@ABVidMat3@@HHV2@@Z 00517fb0 f   AASBuild.obj
 0001:00117cc0       ?Build@idAASBuild@@QAE_NABVidStr@@PBVidAASSettings@@@Z 00518cc0 f   AASBuild.obj
 0001:00118640       ?BuildReachability@idAASBuild@@QAE_NABVidStr@@PBVidAASSettings@@@Z 00519640 f   AASBuild.obj
 0001:00118870       ?ChangeMultipleBoundingBoxContents_r@idAASBuild@@AAEXPAVidBrushBSPNode@@H@Z 00519870 f   AASBuild.obj
 0001:001188b0       ?CheckForEntities@idAASBuild@@ABE_NPBVidMapFile@@AAV?$idList@VidStr@@@@@Z 005198b0 f   AASBuild.obj
 0001:00118a90       ?ChoppedAwayByProcBSP@idAASBuild@@AAE_NHPAVidFixedWinding@@ABVidVec3@@1M@Z 00519a90 f   AASBuild.obj
 0001:00118c20       ?ClipBrushSidesWithProcBSP@idAASBuild@@AAEXAAVidBrushList@@@Z 00519c20 f   AASBuild.obj
 0001:00118ee0       ?DeleteProcBSP@idAASBuild@@AAEXXZ 00519ee0 f   AASBuild.obj
 0001:00118f10       ?ExpandedChopAllowed@@YA_NPAVidBrush@@0@Z 00519f10 f   AASBuild.obj
 0001:00118f10       ?ExpandedMergeAllowed@@YA_NPAVidBrush@@0@Z 00519f10 f   AASBuild.obj
 0001:00118f30       ?LoadProcBSP@idAASBuild@@AAE_NPBDJ@Z 00519f30 f   AASBuild.obj
 0001:001191d0       ?MergeAllowed@@YA_NPAVidBrush@@0@Z 0051a1d0 f   AASBuild.obj
 0001:00119200       ?ParseOptions@@YAHABVidCmdArgs@@AAVidAASSettings@@@Z 0051a200 f   AASBuild.obj
 0001:00119340       ?RunAASDir_f@@YAXABVidCmdArgs@@@Z 0051a340 f   AASBuild.obj
 0001:001197d0       ?RunAAS_f@@YAXABVidCmdArgs@@@Z 0051a7d0 f   AASBuild.obj
 0001:00119b30       ?RunReach_f@@YAXABVidCmdArgs@@@Z 0051ab30 f   AASBuild.obj
 0001:00119e20       ?Shutdown@idAASBuild@@QAEXXZ 0051ae20 f   AASBuild.obj
 0001:00119ec0       ??4aasArea_s@@QAEAAU0@ABU0@@Z 0051aec0 f i AASBuild_file.obj
 0001:00119f40       ?Append@?$idList@UaasArea_s@@@@QAEHABUaasArea_s@@@Z 0051af40 f i AASBuild_file.obj
 0001:00119fb0       ?Append@?$idList@USSDLevelData_t@@@@QAEHABUSSDLevelData_t@@@Z 0051afb0 f i GameSSDWindow.obj
 0001:00119fb0       ?Append@?$idList@UaasEdge_s@@@@QAEHABUaasEdge_s@@@Z 0051afb0 f i AASBuild_file.obj
 0001:00119fb0       ?Append@?$idList@UdrawWin_t@@@@QAEHABUdrawWin_t@@@Z 0051afb0 f i Window.obj
 0001:00119fb0       ?Append@?$idList@VidKeyValue@@@@QAEHABVidKeyValue@@@Z 0051afb0 f i idLib:Dict.obj
 0001:0011a020       ?Append@?$idList@UaasFace_s@@@@QAEHABUaasFace_s@@@Z 0051b020 f i AASBuild_file.obj
 0001:0011a020       ?Append@?$idList@UaasPortal_s@@@@QAEHABUaasPortal_s@@@Z 0051b020 f i AASFile.obj
 0001:0011a0a0       ?Append@?$idList@USSDWeaponData_t@@@@QAEHABUSSDWeaponData_t@@@Z 0051b0a0 f i GameSSDWindow.obj
 0001:0011a0a0       ?Append@?$idList@UaasNode_s@@@@QAEHABUaasNode_s@@@Z 0051b0a0 f i AASBuild_file.obj
 0001:0011a120       ?Append@?$idList@VidPlane@@@@QAEHABVidPlane@@@Z 0051b120 f i AASBuild_file.obj
 0001:0011a190       ?FindPlane@idPlaneSet@@QAEHABVidPlane@@MM@Z 0051b190 f i AASBuild_file.obj
 0001:0011a4b0       ?GetAreaForLeafNode@idAASBuild@@AAE_NPAVidBrushBSPNode@@PAH@Z 0051b4b0 f   AASBuild_file.obj
 0001:0011a660       ?GetEdge@idAASBuild@@AAE_NABVidVec3@@0PAHH@Z 0051b660 f   AASBuild_file.obj
 0001:0011a7d0       ?GetFaceForPortal@idAASBuild@@AAE_NPAVidBrushBSPPortal@@HPAH@Z 0051b7d0 f   AASBuild_file.obj
 0001:0011aa10       ?GetSizeEstimate_r@idAASBuild@@AAEXPAVidBrushBSPNode@@0AAUsizeEstimate_s@@@Z 0051ba10 f   AASBuild_file.obj
 0001:0011aab0       ?GetVertex@idAASBuild@@AAE_NABVidVec3@@PAH@Z 0051bab0 f   AASBuild_file.obj
 0001:0011ad30       ?Resize@?$idList@H@@QAEXHH@Z 0051bd30 f i AASBuild_file.obj
 0001:0011adc0       ?Resize@?$idList@UaasArea_s@@@@QAEXH@Z 0051bdc0 f i AASBuild_file.obj
 0001:0011aee0       ?Resize@?$idList@VidPlane@@@@QAEXH@Z 0051bee0 f i AASBuild_file.obj
 0001:0011af80       ?Resize@?$idList@VidVec3@@@@QAEXH@Z 0051bf80 f i AASBuild_file.obj
 0001:0011b030       ?SetSizeEstimate@idAASBuild@@AAEXABVidBrushBSP@@PAVidAASFileLocal@@@Z 0051c030 f   AASBuild_file.obj
 0001:0011b530       ?StoreFile@idAASBuild@@AAE_NABVidBrushBSP@@@Z 0051c530 f   AASBuild_file.obj
 0001:0011b810       ?StoreTree_r@idAASBuild@@AAEHPAVidBrushBSPNode@@@Z 0051c810 f   AASBuild_file.obj
 0001:0011b930       ??1?$idVectorSet@VidVec3@@$02@@QAE@XZ 0051c930 f i BrushBSP.obj
 0001:0011b930       ??1idPlaneSet@@QAE@XZ      0051c930 f i AASBuild_gravity.obj
 0001:0011b930       ??1idRegisterList@@QAE@XZ  0051c930 f i Window.obj
 0001:0011b9a0       ?GravSubdivLeafNode@idAASBuild@@AAEXPAVidBrushBSPNode@@@Z 0051c9a0 f   AASBuild_gravity.obj
 0001:0011c530       ?GravSubdiv_r@idAASBuild@@AAEXPAVidBrushBSPNode@@@Z 0051d530 f   AASBuild_gravity.obj
 0001:0011c580       ?GravitationalSubdivision@idAASBuild@@AAEXAAVidBrushBSP@@@Z 0051d580 f   AASBuild_gravity.obj
 0001:0011c600       ?PortalIsGap@idAASBuild@@AAE_NPAVidBrushBSPPortal@@H@Z 0051d600 f   AASBuild_gravity.obj
 0001:0011c680       ?SetPortalFlags_r@idAASBuild@@AAEXPAVidBrushBSPNode@@@Z 0051d680 f   AASBuild_gravity.obj
 0001:0011c770       ??0idLedge@@QAE@ABVidVec3@@00PAVidBrushBSPNode@@@Z 0051d770 f   AASBuild_ledge.obj
 0001:0011ca00       ??4idLedge@@QAEAAV0@ABV0@@Z 0051da00 f i AASBuild_ledge.obj
 0001:0011ca90       ?AddLedge@idAASBuild@@AAEXABVidVec3@@0PAVidBrushBSPNode@@@Z 0051da90 f   AASBuild_ledge.obj
 0001:0011d290       ?ChopWinding@idLedge@@QBEPAVidWinding@@PBV2@@Z 0051e290 f   AASBuild_ledge.obj
 0001:0011d300       ?CreateBevels@idLedge@@QAEXABVidVec3@@@Z 0051e300 f   AASBuild_ledge.obj
 0001:0011d7f0       ?FindLeafNodeLedges@idAASBuild@@AAEXPAVidBrushBSPNode@@0@Z 0051e7f0 f   AASBuild_ledge.obj
 0001:0011e040       ?FindLedges_r@idAASBuild@@AAEXPAVidBrushBSPNode@@0@Z 0051f040 f   AASBuild_ledge.obj
 0001:0011e0a0       ?IsLedgeSide_r@idAASBuild@@AAE_NPAVidBrushBSPNode@@PAVidFixedWinding@@ABVidPlane@@ABVidVec3@@3M@Z 0051f0a0 f   AASBuild_ledge.obj
 0001:0011e2c0       ?LedgeSubdiv@idAASBuild@@AAEXPAVidBrushBSPNode@@@Z 0051f2c0 f   AASBuild_ledge.obj
 0001:0011e620       ?LedgeSubdivFlood_r@idAASBuild@@AAEXPAVidBrushBSPNode@@PBVidLedge@@@Z 0051f620 f   AASBuild_ledge.obj
 0001:0011e920       ?LedgeSubdivLeafNodes_r@idAASBuild@@AAEXPAVidBrushBSPNode@@PBVidLedge@@@Z 0051f920 f   AASBuild_ledge.obj
 0001:0011e970       ?LedgeSubdivision@idAASBuild@@AAEXAAVidBrushBSP@@@Z 0051f970 f   AASBuild_ledge.obj
 0001:0011ea20       ?Resize@?$idList@VidLedge@@@@QAEXH@Z 0051fa20 f i AASBuild_ledge.obj
 0001:0011eb90       ?WriteLedgeMap@idAASBuild@@AAEXABVidStr@@0@Z 0051fb90 f   AASBuild_ledge.obj
 0001:0011eca0       ?AllGapsLeadToOtherNode@idAASBuild@@AAE_NPAVidBrushBSPNode@@0@Z 0051fca0 f   AASBuild_merge.obj
 0001:0011ed10       ?MergeLeafNodes@idAASBuild@@AAEXAAVidBrushBSP@@@Z 0051fd10 f   AASBuild_merge.obj
 0001:0011ed70       ?MergeLeafNodes_r@idAASBuild@@AAEXAAVidBrushBSP@@PAVidBrushBSPNode@@@Z 0051fd70 f   AASBuild_merge.obj
 0001:0011eec0       ?Append@?$idList@UaasCluster_s@@@@QAEHABUaasCluster_s@@@Z 0051fec0 f i AASCluster.obj
 0001:0011ef30       ?Build@idAASCluster@@QAE_NPAVidAASFileLocal@@@Z 0051ff30 f   AASCluster.obj
 0001:0011f190       ?CreatePortals@idAASCluster@@AAEXXZ 00520190 f   AASCluster.obj
 0001:0011f260       ?FindClusters@idAASCluster@@AAE_NXZ 00520260 f   AASCluster.obj
 0001:0011f350       ?FloodClusterAreas_r@idAASCluster@@AAE_NHH@Z 00520350 f   AASCluster.obj
 0001:0011f5e0       ?NumberClusterAreas@idAASCluster@@AAEXH@Z 005205e0 f   AASCluster.obj
 0001:0011f760       ?Resize@?$idList@UaasCluster_s@@@@QAEXH@Z 00520760 f i AASCluster.obj
 0001:0011f760       ?Resize@?$idList@UsurfaceEdge_s@@@@QAEXH@Z 00520760 f i idLib:Surface.obj
 0001:0011f800       ?TestPortals@idAASCluster@@AAE_NXZ 00520800 f   AASCluster.obj
 0001:0011f9f0       ??0idAASFile@@QAE@XZ       005209f0 f i AASFile.obj
 0001:0011fd40       ??0idAASFileLocal@@QAE@XZ  00520d40 f   AASFile.obj
 0001:00120000       ??0idAASSettings@@QAE@XZ   00521000 f   AASFile.obj
 0001:00120180       ??1idAASFile@@UAE@XZ       00521180 f i AASFile.obj
 0001:001203e0       ??_EidAASFile@@UAEPAXI@Z   005213e0 f i AASFile.obj
 0001:001203e0       ??_GidAASFile@@UAEPAXI@Z   005213e0 f i AASFile.obj
 0001:00120410       ??_EidAASFileLocal@@UAEPAXI@Z 00521410 f i AASFile.obj
 0001:00120410       ??_GidAASFileLocal@@UAEPAXI@Z 00521410 f i AASFile.obj
 0001:00120490       ?Clear@idAASFileLocal@@QAEXXZ 00521490 f   AASFile.obj
 0001:00120690       ?DeleteClusters@idAASFileLocal@@QAEXXZ 00521690 f   AASFile.obj
 0001:00120770       ?DeleteReachabilities@idAASFileLocal@@QAEXXZ 00521770 f   AASFile.obj
 0001:001207e0       ?FinishAreas@idAASFileLocal@@QAEXXZ 005217e0 f   AASFile.obj
 0001:00120870       ?FromDict@idAASSettings@@QAE_NPBDPBVidDict@@@Z 00521870 f   AASFile.obj
 0001:00120cd0       ?FromParser@idAASSettings@@QAE_NAAVidLexer@@@Z 00521cd0 f   AASFile.obj
 0001:00121370       ?LinkReversedReachability@idAASFileLocal@@QAEXXZ 00522370 f   AASFile.obj
 0001:001213d0       ?Load@idAASFileLocal@@QAE_NABVidStr@@I@Z 005223d0 f   AASFile.obj
 0001:00122040       ?ParseAreas@idAASFileLocal@@AAE_NAAVidLexer@@@Z 00523040 f   AASFile.obj
 0001:00122200       ?ParseClusters@idAASFileLocal@@AAE_NAAVidLexer@@@Z 00523200 f   AASFile.obj
 0001:00122350       ?ParseIndex@idAASFileLocal@@AAE_NAAVidLexer@@AAV?$idList@H@@@Z 00523350 f   AASFile.obj
 0001:00122440       ?ParseReachabilities@idAASFileLocal@@AAE_NAAVidLexer@@H@Z 00523440 f   AASFile.obj
 0001:001226f0       ?PrintInfo@idAASFileLocal@@UBEXXZ 005236f0 f   AASFile.obj
 0001:001227e0       ?ReportRoutingEfficiency@idAASFileLocal@@QBEXXZ 005237e0 f   AASFile.obj
 0001:00122a30       ?ValidEntity@idAASSettings@@QBE_NPBD@Z 00523a30 f   AASFile.obj
 0001:00122c10       ?Write@idAASFileLocal@@QAE_NABVidStr@@I@Z 00523c10 f   AASFile.obj
 0001:001233a0       ?WriteToFile@idAASSettings@@QBE_NPAVidFile@@@Z 005243a0 f   AASFile.obj
 0001:00123600       ?Optimize@idAASFileLocal@@QAEXXZ 00524600 f   AASFile_optimize.obj
 0001:001242d0       ?AreaBounds@idAASFileLocal@@UBE?AVidBounds@@H@Z 005252d0 f   AASFile_sample.obj
 0001:001243f0       ?AreaCenter@idAASFileLocal@@UBE?AVidVec3@@H@Z 005253f0 f   AASFile_sample.obj
 0001:001244f0       ?AreaContentsTravelFlags@idAASFileLocal@@ABEHH@Z 005254f0 f   AASFile_sample.obj
 0001:00124520       ?AreaReachableGoal@idAASFileLocal@@ABE?AVidVec3@@H@Z 00525520 f   AASFile_sample.obj
 0001:001246f0       ?BoundsReachableAreaNum@idAASFileLocal@@UBEHABVidBounds@@HH@Z 005256f0 f   AASFile_sample.obj
 0001:00124710       ?BoundsReachableAreaNum_r@idAASFileLocal@@ABEHHABVidBounds@@HH@Z 00525710 f   AASFile_sample.obj
 0001:001247b0       ?EdgeBounds@idAASFileLocal@@UBE?AVidBounds@@H@Z 005257b0 f   AASFile_sample.obj
 0001:00124860       ?EdgeCenter@idAASFileLocal@@UBE?AVidVec3@@H@Z 00525860 f   AASFile_sample.obj
 0001:001248d0       ?FaceBounds@idAASFileLocal@@UBE?AVidBounds@@H@Z 005258d0 f   AASFile_sample.obj
 0001:001249f0       ?FaceCenter@idAASFileLocal@@UBE?AVidVec3@@H@Z 005259f0 f   AASFile_sample.obj
 0001:00124ac0       ?MaxTreeDepth@idAASFileLocal@@ABEHXZ 00525ac0 f   AASFile_sample.obj
 0001:00124b10       ?MaxTreeDepth_r@idAASFileLocal@@ABEXHAAH0@Z 00525b10 f   AASFile_sample.obj
 0001:00124b60       ?PointAreaNum@idAASFileLocal@@UBEHABVidVec3@@@Z 00525b60 f   AASFile_sample.obj
 0001:00124bf0       ?PointReachableAreaNum@idAASFileLocal@@UBEHABVidVec3@@ABVidBounds@@HH@Z 00525bf0 f   AASFile_sample.obj
 0001:00124ef0       ?PushPointIntoAreaNum@idAASFileLocal@@UBEXHAAVidVec3@@@Z 00525ef0 f   AASFile_sample.obj
 0001:00125000       ?Trace@idAASFileLocal@@UBE_NAAUaasTrace_s@@ABVidVec3@@1@Z 00526000 f   AASFile_sample.obj
 0001:00125720       ??_EidAASFileManager@@UAEPAXI@Z 00526720 f i AASFileManager.obj
 0001:00125720       ??_EidAASFileManagerLocal@@UAEPAXI@Z 00526720 f i AASFileManager.obj
 0001:00125720       ??_GidAASFileManager@@UAEPAXI@Z 00526720 f i AASFileManager.obj
 0001:00125720       ??_GidAASFileManagerLocal@@UAEPAXI@Z 00526720 f i AASFileManager.obj
 0001:00125750       ?LoadAAS@idAASFileManagerLocal@@UAEPAVidAASFile@@PBDI@Z 00526750 f   AASFileManager.obj
 0001:00125860       ?FreeAAS@idAASFileManagerLocal@@UAEXPAVidAASFile@@@Z 00526860 f   AASFileManager.obj
 0001:00125860       ?FreeListGUI@idUserInterfaceManagerLocal@@UAEXPAVidListGUI@@@Z 00526860 f   UserInterface.obj
 0001:00125880       ?Build@idAASReach@@QAE_NPBVidMapFile@@PAVidAASFileLocal@@@Z 00526880 f   AASReach.obj
 0001:00125af0       ?Reachability_EqualFloorHeight@idAASReach@@AAEXH@Z 00526af0 f   AASReach.obj
 0001:00125eb0       ?Reachability_Fly@idAASReach@@AAEXH@Z 00526eb0 f   AASReach.obj
 0001:001260c0       ?Reachability_Step_Barrier_WaterJump_WalkOffLedge@idAASReach@@AAE_NHH@Z 005270c0 f   AASReach.obj
 0001:00127b00       ?Reachability_Swim@idAASReach@@AAEXH@Z 00528b00 f   AASReach.obj
 0001:00127d20       ??0idBrush@@QAE@XZ         00528d20 f   Brush.obj
 0001:00127dd0       ??0idBrushList@@QAE@XZ     00528dd0 f   Brush.obj
 0001:00127df0       ??0idBrushMap@@QAE@ABVidStr@@0@Z 00528df0 f   Brush.obj
 0001:00127fa0       ??0idBrushSide@@QAE@ABVidPlane@@H@Z 00528fa0 f   Brush.obj
 0001:00127fd0       ??1idBrush@@QAE@XZ         00528fd0 f   Brush.obj
 0001:00128040       ??1idBrushMap@@QAE@XZ      00529040 f   Brush.obj
 0001:001280b0       ??1idBrushSide@@QAE@XZ     005290b0 f   Brush.obj
 0001:001280c0       ??_GidBrush@@QAEPAXI@Z     005290c0 f i Brush.obj
 0001:00128140       ?AddBevelsForAxialBox@idBrush@@AAEXXZ 00529140 f   Brush.obj
 0001:00128900       ?AddToTail@idBrushList@@QAEXAAV1@@Z 00529900 f   Brush.obj
 0001:00128960       ?AddToTail@idBrushList@@QAEXPAVidBrush@@@Z 00529960 f   Brush.obj
 0001:00128990       ?BoundBrush@idBrush@@AAEXPBV1@@Z 00529990 f   Brush.obj
 0001:00128e30       ?Chop@idBrushList@@QAEXP6A_NPAVidBrush@@0@Z@Z 00529e30 f   Brush.obj
 0001:00129540       ?Copy@idBrush@@QBEPAV1@XZ  0052a540 f   Brush.obj
 0001:00129680       ?Copy@idBrushList@@QBEPAV1@XZ 0052a680 f   Brush.obj
 0001:00129700       ?Copy@idBrushSide@@QBEPAV1@XZ 0052a700 f   Brush.obj
 0001:00129760       ?CreatePlaneList@idBrushList@@QBEXAAVidPlaneSet@@@Z 0052a760 f   Brush.obj
 0001:00129dc0       ?CreateWindings@idBrush@@AAE_NXZ 0052adc0 f   Brush.obj
 0001:0012a010       ?Delete@idBrushList@@QAEXPAVidBrush@@@Z 0052b010 f   Brush.obj
 0001:0012a0c0       ?DisplayRealTimeString@@YAXPADZZ 0052b0c0 f   Brush.obj
 0001:0012a130       ?ExpandForAxialBox@idBrush@@QAEXABVidBounds@@@Z 0052b130 f   Brush.obj
 0001:0012a200       ?Free@idBrushList@@QAEXXZ  0052b200 f   Brush.obj
 0001:0012a2b0       ?FromBounds@idBrush@@QAE_NABVidBounds@@@Z 0052b2b0 f   Brush.obj
 0001:0012a440       ?FromSides@idBrush@@QAE_NAAV?$idList@PAVidBrushSide@@@@@Z 0052b440 f   Brush.obj
 0001:0012a500       ?FromWinding@idBrush@@QAE_NABVidWinding@@ABVidPlane@@@Z 0052b500 f   Brush.obj
 0001:0012ac90       ?GetBounds@idBrushList@@QBE?AVidBounds@@XZ 0052bc90 f   Brush.obj
 0001:0012ad50       ?Merge@idBrushList@@QAEXP6A_NPAVidBrush@@0@Z@Z 0052bd50 f   Brush.obj
 0001:0012aea0       ?SetFlagOnFacingBrushSides@idBrushList@@QAEXABVidPlane@@H@Z 0052bea0 f   Brush.obj
 0001:0012afe0       ?Split@idBrush@@QBEHABVidPlane@@HPAPAV1@1@Z 0052bfe0 f   Brush.obj
 0001:0012b7f0       ?Split@idBrushList@@QAEXABVidPlane@@HAAV1@1_N@Z 0052c7f0 f   Brush.obj
 0001:0012b980       ?Subtract@idBrush@@QBE_NPBV1@AAVidBrushList@@@Z 0052c980 f   Brush.obj
 0001:0012bad0       ?Transform@idBrush@@QAEXABVidVec3@@ABVidMat3@@@Z 0052cad0 f   Brush.obj
 0001:0012bd10       ?TryMerge@idBrush@@QAE_NPBV1@ABVidPlaneSet@@@Z 0052cd10 f   Brush.obj
 0001:0012c0f0       ?WriteBrush@idBrushMap@@QAEXPBVidBrush@@@Z 0052d0f0 f   Brush.obj
 0001:0012c1a0       ??0idBrushBSP@@QAE@XZ      0052d1a0 f   BrushBSP.obj
 0001:0012c240       ??0idBrushBSPNode@@QAE@XZ  0052d240 f   BrushBSP.obj
 0001:0012c2b0       ??1idBrushBSP@@QAE@XZ      0052d2b0 f   BrushBSP.obj
 0001:0012c390       ??_GidBrushBSPNode@@QAEPAXI@Z 0052d390 f i BrushBSP.obj
 0001:0012c4a0       ?BrushSplitterStats@idBrushBSP@@AAEHPBVidBrush@@HABVidPlaneSet@@PA_NAAUsplitterStats_s@@@Z 0052d4a0 f   BrushBSP.obj
 0001:0012c710       ?Build@idBrushBSP@@QAEXVidBrushList@@HP6A_NPAVidBrush@@1@Z2@Z 0052d710 f   BrushBSP.obj
 0001:0012c9e0       ?BuildBrushBSP_r@idBrushBSP@@AAEPAVidBrushBSPNode@@PAV2@ABVidPlaneSet@@PA_NH@Z 0052d9e0 f   BrushBSP.obj
 0001:0012cc60       ?BuildGrid_r@idBrushBSP@@AAEXAAV?$idList@PAVidBrushBSPNode@@@@PAVidBrushBSPNode@@@Z 0052dc60 f   BrushBSP.obj
 0001:0012cfb0       ?FindSplitter@idBrushBSP@@AAEHPAVidBrushBSPNode@@ABVidPlaneSet@@PA_NAAUsplitterStats_s@@@Z 0052dfb0 f   BrushBSP.obj
 0001:0012d1d0       ?FloodFromEntities@idBrushBSP@@AAE_NPBVidMapFile@@HABV?$idList@VidStr@@@@@Z 0052e1d0 f   BrushBSP.obj
 0001:0012d430       ?FloodThroughPortals_r@idBrushBSP@@AAEXPAVidBrushBSPNode@@HH@Z 0052e430 f   BrushBSP.obj
 0001:0012d4c0       ?Free_r@idBrushBSP@@AAEXPAVidBrushBSPNode@@@Z 0052e4c0 f   BrushBSP.obj
 0001:0012d4f0       ?LeakFile@idBrushBSP@@QAEXABVidStr@@@Z 0052e4f0 f   BrushBSP.obj
 0001:0012d720       ?MakeNodePortal@idBrushBSP@@AAEXPAVidBrushBSPNode@@@Z 0052e720 f   BrushBSP.obj
 0001:0012d9a0       ?MakeOutsidePortals@idBrushBSP@@AAEXXZ 0052e9a0 f   BrushBSP.obj
 0001:0012dd10       ?MakeTreePortals_r@idBrushBSP@@AAEXPAVidBrushBSPNode@@@Z 0052ed10 f   BrushBSP.obj
 0001:0012dec0       ?MeltFlood_r@idBrushBSP@@AAEXPAVidBrushBSPNode@@HAAVidBounds@@AAV?$idVectorSet@VidVec3@@$02@@@Z 0052eec0 f   BrushBSP.obj
 0001:0012e290       ?MeltLeafNodePortals@idBrushBSP@@AAEXPAVidBrushBSPNode@@HAAV?$idVectorSet@VidVec3@@$02@@@Z 0052f290 f   BrushBSP.obj
 0001:0012e530       ?MeltPortals@idBrushBSP@@QAEXH@Z 0052f530 f   BrushBSP.obj
 0001:0012e670       ?MeltPortals_r@idBrushBSP@@AAEXPAVidBrushBSPNode@@HAAV?$idVectorSet@VidVec3@@$02@@@Z 0052f670 f   BrushBSP.obj
 0001:0012e6d0       ?MergeLeafNodePortals@idBrushBSP@@AAEXPAVidBrushBSPNode@@H@Z 0052f6d0 f   BrushBSP.obj
 0001:0012ea30       ?MergePortals@idBrushBSP@@QAEXH@Z 0052fa30 f   BrushBSP.obj
 0001:0012eac0       ?MergePortals_r@idBrushBSP@@AAEXPAVidBrushBSPNode@@H@Z 0052fac0 f   BrushBSP.obj
 0001:0012eb10       ?PlaneSide@idBrushBSPNode@@QBEHABVidPlane@@M@Z 0052fb10 f   BrushBSP.obj
 0001:0012eba0       ?Portalize@idBrushBSP@@QAEXXZ 0052fba0 f   BrushBSP.obj
 0001:0012ec10       ?PruneMergedTree_r@idBrushBSP@@QAEXPAVidBrushBSPNode@@@Z 0052fc10 f   BrushBSP.obj
 0001:0012ec70       ?RemoveColinearPoints_r@idBrushBSP@@AAEXPAVidBrushBSPNode@@H@Z 0052fc70 f   BrushBSP.obj
 0001:0012ecf0       ?RemoveFlagFlood@idBrushBSPNode@@QAEXH@Z 0052fcf0 f   BrushBSP.obj
 0001:0012ed50       ?RemoveFlagRecurse@idBrushBSPNode@@QAEXH@Z 0052fd50 f   BrushBSP.obj
 0001:0012ed80       ?RemoveFlagRecurseFlood@idBrushBSPNode@@QAEXH@Z 0052fd80 f   BrushBSP.obj
 0001:0012edd0       ?RemoveFromNode@idBrushBSPPortal@@QAEXPAVidBrushBSPNode@@@Z 0052fdd0 f   BrushBSP.obj
 0001:0012ee70       ?RemoveMultipleLeafNodeReferences_r@idBrushBSP@@AAEXPAVidBrushBSPNode@@@Z 0052fe70 f   BrushBSP.obj
 0001:0012eec0       ?RemoveOutside@idBrushBSP@@QAE_NPBVidMapFile@@HABV?$idList@VidStr@@@@@Z 0052fec0 f   BrushBSP.obj
 0001:0012ef60       ?RemoveOutside_r@idBrushBSP@@AAEXPAVidBrushBSPNode@@H@Z 0052ff60 f   BrushBSP.obj
 0001:0012efc0       ?SetPortalPlanes_r@idBrushBSP@@AAEXPAVidBrushBSPNode@@AAVidPlaneSet@@@Z 0052ffc0 f   BrushBSP.obj
 0001:0012f3c0       ?Split@idBrushBSPNode@@QAE_NABVidPlane@@H@Z 005303c0 f   BrushBSP.obj
 0001:0012f850       ?SplitNodePortals@idBrushBSP@@AAEXPAVidBrushBSPNode@@@Z 00530850 f   BrushBSP.obj
 0001:0012fc20       ?TryMergeLeafNodes@idBrushBSP@@QAE_NPAVidBrushBSPPortal@@H@Z 00530c20 f   BrushBSP.obj
 0001:00130030       ?UpdateTreeAfterMerge_r@idBrushBSP@@AAEXPAVidBrushBSPNode@@ABVidBounds@@00@Z 00531030 f   BrushBSP.obj
 0001:001300b0       ?WriteBrushMap@idBrushBSP@@QAEXABVidStr@@0H@Z 005310b0 f   BrushBSP.obj
 0001:00130120       ?Dmap@@YAXABVidCmdArgs@@@Z 00531120 f   dmap.obj
 0001:00130c10       ?Dmap_f@@YAXABVidCmdArgs@@@Z 00531c10 f   dmap.obj
 0001:00130c60       ?BuildFaceTree_r@@YAXPAUnode_s@@PAUbspface_s@@@Z 00531c60 f   facebsp.obj
 0001:00130ea0       ?FaceBSP@@YAPAUtree_s@@PAUbspface_s@@@Z 00531ea0 f   facebsp.obj
 0001:00131070       ?FreeTree@@YAXPAUtree_s@@@Z 00532070 f   facebsp.obj
 0001:001310c0       ?FreeTreePortals_r@@YAXPAUnode_s@@@Z 005320c0 f   facebsp.obj
 0001:00131130       ?FreeTree_r@@YAXPAUnode_s@@@Z 00532130 f   facebsp.obj
 0001:00131170       ?MakeStructuralBspFaceList@@YAPAUbspface_s@@PAUprimitive_s@@@Z 00532170 f   facebsp.obj
 0001:00131240       ?SelectSplitPlaneNum@@YAHPAUnode_s@@PAUbspface_s@@@Z 00532240 f   facebsp.obj
 0001:001314b0       ?Draw_ClearWindow@@YAXXZ   005324b0 f   gldraw.obj
 0001:001315d0       ?LeakFile@@YAXPAUtree_s@@@Z 005325d0 f   leakfile.obj
 0001:00131a00       ?FindFloatPlane@@YAHABVidPlane@@PA_N@Z 00532a00 f   map.obj
 0001:00131af0       ?FreeDMapFile@@YAXXZ       00532af0 f   map.obj
 0001:00131ca0       ?FreeOptimizeGroupList@@YAXPAUoptimizeGroup_s@@@Z 00532ca0 f   map.obj
 0001:00131cd0       ?LoadDMapFile@@YA_NPBD@Z   00532cd0 f   map.obj
 0001:00134320       ?OptimizeEntity@@YAXPAUuEntity_t@@@Z 00535320 f   optimize.obj
 0001:001343b0       ?OptimizeGroupList@@YAXPAUoptimizeGroup_s@@@Z 005353b0 f   optimize.obj
 0001:00135280       ?SplitOriginalEdgesAtCrossings@@YAXPAUoptimizeGroup_s@@@Z 00536280 f   optimize.obj
 0001:00135ca0       ?PruneNodes_r@@YAHPAUnode_s@@@Z 00536ca0 f   output.obj
 0001:00135d10       ?ShareMapTriVerts@@YAPAUsrfTriangles_s@@PBUmapTri_s@@@Z 00536d10 f   output.obj
 0001:00135fa0       ?Write1DMatrix@@YAXPAVidFile@@HPAM@Z 00536fa0 f   output.obj
 0001:00136300       ?WriteOutputFile@@YAXXZ    00537300 f   output.obj
 0001:00136920       ?CheckAreas_r@@YAXPAUnode_s@@@Z 00537920 f   portals.obj
 0001:00136970       ?ClearAreas_r@@YAXPAUnode_s@@@Z 00537970 f   portals.obj
 0001:001369a0       ?FillOutside@@YAXPAUuEntity_t@@@Z 005379a0 f   portals.obj
 0001:00136a30       ?FillOutside_r@@YAXPAUnode_s@@@Z 00537a30 f   portals.obj
 0001:00136a80       ?FindAreas_r@@YAXPAUnode_s@@@Z 00537a80 f   portals.obj
 0001:00136da0       ?FloodAreas@@YAXPAUuEntity_t@@@Z 00537da0 f   portals.obj
 0001:00136e40       ?FloodAreas_r@@YAXPAUnode_s@@@Z 00537e40 f   portals.obj
 0001:00136f00       ?FloodEntities@@YA_NPAUtree_s@@@Z 00537f00 f   portals.obj
 0001:00137220       ?FloodPortals_r@@YAXPAUnode_s@@H@Z 00538220 f   portals.obj
 0001:00137290       ?FreePortal@@YAXPAUuPortal_s@@@Z 00538290 f   portals.obj
 0001:001377a0       ?MakeTreePortals@@YAXPAUtree_s@@@Z 005387a0 f   portals.obj
 0001:001377d0       ?MakeTreePortals_r@@YAXPAUnode_s@@@Z 005387d0 f   portals.obj
 0001:00137980       ?RemovePortalFromNode@@YAXPAUuPortal_s@@PAUnode_s@@@Z 00538980 f   portals.obj
 0001:00137dd0       ??1idRenderEntityLocal@@UAE@XZ 00538dd0 f i shadowopt3.obj
 0001:00137de0       ??4shadowTri_t@@QAEAAU0@ABU0@@Z 00538de0 f i shadowopt3.obj
 0001:00137e80       ?CleanupOptimizedShadowTris@@YAXPAUsrfTriangles_s@@@Z 00538e80 f   shadowopt3.obj
 0001:00138c40       ?CreateLightShadow@@YAPAUsrfTriangles_s@@PAUoptimizeGroup_s@@PBUmapLight_t@@@Z 00539c40 f   shadowopt3.obj
 0001:00139f40       ?GenerateSilPlanes@@YAXXZ  0053af40 f   shadowopt3.obj
 0001:0013a1e0       ?SuperOptimizeOccluders@@YA?AUoptimizedShadow_t@@PAVidVec4@@PAHHVidPlane@@VidVec3@@@Z 0053b1e0 f   shadowopt3.obj
 0001:0013a960       ?CountGroupListTris@@YAHPBUoptimizeGroup_s@@@Z 0053b960 f   tritjunction.obj
 0001:0013a990       ?FixAreaGroupsTjunctions@@YAXPAUoptimizeGroup_s@@@Z 0053b990 f   tritjunction.obj
 0001:0013aac0       ?FixEntityTjunctions@@YAXPAUuEntity_t@@@Z 0053bac0 f   tritjunction.obj
 0001:0013ac30       ?FixGlobalTjunctions@@YAXPAUuEntity_t@@@Z 0053bc30 f   tritjunction.obj
 0001:0013bbf0       ?FreeTJunctionHash@@YAXXZ  0053cbf0 f   tritjunction.obj
 0001:0013bc60       ?GetHashVert@@YAPAUhashVert_s@@AAVidVec3@@@Z 0053cc60 f   tritjunction.obj
 0001:0013c020       ?HashTriangles@@YAXPAUoptimizeGroup_s@@@Z 0053d020 f   tritjunction.obj
 0001:0013c3d0       ??4mapTri_s@@QAEAAU0@ABU0@@Z 0053d3d0 f i tritools.obj
 0001:0013c4e0       ?AllocTri@@YAPAUmapTri_s@@XZ 0053d4e0 f   tritools.obj
 0001:0013c510       ?CopyMapTri@@YAPAUmapTri_s@@PBU1@@Z 0053d510 f   tritools.obj
 0001:0013c530       ?CopyTriList@@YAPAUmapTri_s@@PBU1@@Z 0053d530 f   tritools.obj
 0001:0013c570       ?CountTriList@@YAHPBUmapTri_s@@@Z 0053d570 f   tritools.obj
 0001:0013c590       ?FreeTri@@YAXPAUmapTri_s@@@Z 0053d590 f   tritools.obj
 0001:0013c5a0       ?FreeTriList@@YAXPAUmapTri_s@@@Z 0053d5a0 f   tritools.obj
 0001:0013c5d0       ?MapTriArea@@YAMPBUmapTri_s@@@Z 0053d5d0 f   tritools.obj
 0001:0013c5f0       ?MergeTriLists@@YAPAUmapTri_s@@PAU1@0@Z 0053d5f0 f   tritools.obj
 0001:0013c620       ?PlaneForTri@@YAXPBUmapTri_s@@AAVidPlane@@@Z 0053d620 f   tritools.obj
 0001:0013c710       ?TriVertsFromOriginal@@YAXPAUmapTri_s@@PBU1@@Z 0053d710 f   tritools.obj
 0001:0013c950       ?WindingForTri@@YAPAVidWinding@@PBUmapTri_s@@@Z 0053d950 f   tritools.obj
 0001:0013ca50       ?WindingToTriList@@YAPAUmapTri_s@@PBVidWinding@@PBU1@@Z 0053da50 f   tritools.obj
 0001:0013cc40       ?AllocBrush@@YAPAUbspbrush_s@@H@Z 0053dc40 f   ubrush.obj
 0001:0013cc70       ?AllocNode@@YAPAUnode_s@@XZ 0053dc70 f   ubrush.obj
 0001:0013cc90       ?AllocTree@@YAPAUtree_s@@XZ 0053dc90 f   ubrush.obj
 0001:0013ccf0       ?BoundBrush@@YA_NPAUbspbrush_s@@@Z 0053dcf0 f   ubrush.obj
 0001:0013ce50       ?CopyBrush@@YAPAUbspbrush_s@@PAU1@@Z 0053de50 f   ubrush.obj
 0001:0013cec0       ?CreateBrushWindings@@YA_NPAUbspbrush_s@@@Z 0053dec0 f   ubrush.obj
 0001:0013d010       ?FilterBrushIntoTree_r@@YAHPAUbspbrush_s@@PAUnode_s@@@Z 0053e010 f   ubrush.obj
 0001:0013d080       ?FilterBrushesIntoTree@@YAXPAUuEntity_t@@@Z 0053e080 f   ubrush.obj
 0001:0013d170       ?FreeBrush@@YAXPAUbspbrush_s@@@Z 0053e170 f   ubrush.obj
 0001:0013d1c0       ?FreeBrushList@@YAXPAUbspbrush_s@@@Z 0053e1c0 f   ubrush.obj
 0001:0013d220       ?SplitBrush@@YAXPAUbspbrush_s@@HPAPAU1@1@Z 0053e220 f   ubrush.obj
 0001:0013da50       ?AddMapTriToAreas@@YAXPAUmapTri_s@@PAUuEntity_t@@@Z 0053ea50 f   usurface.obj
 0001:0013e890       ?ClipSidesByTree@@YAXPAUuEntity_t@@@Z 0053f890 f   usurface.obj
 0001:0013eb90       ?ClipTriIntoTree_r@@YAXPAVidWinding@@PAUmapTri_s@@PAUuEntity_t@@PAUnode_s@@@Z 0053fb90 f   usurface.obj
 0001:0013ec80       ?Prelight@@YAXPAUuEntity_t@@@Z 0053fc80 f   usurface.obj
 0001:0013edd0       ?PutPrimitivesInAreas@@YAXPAUuEntity_t@@@Z 0053fdd0 f   usurface.obj
 0001:0013fa40       ?TriListForSide@@YAPAUmapTri_s@@PBUside_s@@PBVidWinding@@@Z 00540a40 f   usurface.obj
 0001:00141c90       ?RenderBumpFlat_f@@YAXABVidCmdArgs@@@Z 00542c90 f   renderbump.obj
 0001:00142e20       ?RenderBump_f@@YAXABVidCmdArgs@@@Z 00543e20 f   renderbump.obj
 0001:001440c0       ??0codec@@QAE@XZ           005450c0 f   codec.obj
 0001:001441a0       ?AddQuad@codec@@AAEHPAUquadcel@@H@Z 005451a0 f   codec.obj
 0001:00144660       ?BestCodeword@codec@@QAEHPAEHPAPAN@Z 00545660 f   codec.obj
 0001:001447b0       ?ComputeMotionBlock@codec@@QAEHPAE0H@Z 005457b0 f   codec.obj
 0001:00144870       ?FvqData@codec@@QAEXPAEHHHPAUquadcel@@_N@Z 00545870 f   codec.obj
 0001:00144cc0       ?GetCurrentQuadOutputSize@codec@@AAEHPAUquadcel@@@Z 00545cc0 f   codec.obj
 0001:00144d30       ?GetCurrentRMSE@codec@@AAEMPAUquadcel@@@Z 00545d30 f   codec.obj
 0001:00144dc0       ?GetData@codec@@QAEXPAEHHHPAVNSBitmapImageRep@@@Z 00545dc0 f   codec.obj
 0001:00144f60       ?InitImages@codec@@QAEXXZ  00545f60 f   codec.obj
 0001:00145160       ?MakePreviousImage@codec@@AAEXPAUquadcel@@@Z 00546160 f   codec.obj
 0001:00145970       ?QuadX@codec@@QAEXHHH@Z    00546970 f   codec.obj
 0001:00145a30       ?Segment@codec@@AAEXPAHPAMHM@Z 00546a30 f   codec.obj
 0001:001466c0       ?Snr@codec@@QAEMPAE0H@Z    005476c0 f   codec.obj
 0001:001467b0       ?Sort@codec@@AAEXPAMPAHH@Z 005477b0 f   codec.obj
 0001:001468c0       ?SparseEncode@codec@@QAEXXZ 005478c0 f   codec.obj
 0001:00148570       ?VQ@codec@@AAEXHHPBEPAMPAPAN_N@Z 00549570 f   codec.obj
 0001:00149030       ?VqData2@codec@@QAEXPAEPAUquadcel@@@Z 0054a030 f   codec.obj
 0001:00149270       ?VqData4@codec@@QAEXPAEPAUquadcel@@@Z 0054a270 f   codec.obj
 0001:00149360       ?VqData8@codec@@QAEXPAEPAUquadcel@@@Z 0054a360 f   codec.obj
 0001:00149540       ??0NSBitmapImageRep@@QAE@HH@Z 0054a540 f   NSBitmapImageRep.obj
 0001:00149570       ??0NSBitmapImageRep@@QAE@PBD@Z 0054a570 f   NSBitmapImageRep.obj
 0001:001495c0       ??1NSBitmapImageRep@@QAE@XZ 0054a5c0 f   NSBitmapImageRep.obj
 0001:00149600       ?samplesPerPixel@NSBitmapImageRep@@QAEHXZ 0054a600 f   NSBitmapImageRep.obj
 0001:00149610       ?EncodeStream@roq@@QAEXPBD@Z 0054a610 f   roq.obj
 0001:00149c00       ?FirstFrameSize@roq@@QAEHXZ 0054ac00 f   roq.obj
 0001:00149c10       ?HasSound@roq@@QAE_NXZ     0054ac10 f   roq.obj
 0001:00149c20       ?InitRoQPatterns@roq@@QAEXXZ 0054ac20 f   roq.obj
 0001:00149d90       ?IsLastFrame@roq@@QAE_NXZ  0054ad90 f   roq.obj
 0001:00149da0       ?IsQuiet@roq@@QAE_NXZ      0054ada0 f   roq.obj
 0001:00149db0       ?MarkQuadx@roq@@QAEXHHHMH@Z 0054adb0 f   roq.obj
 0001:00149dc0       ?NormalFrameSize@roq@@QAEHXZ 0054adc0 f   roq.obj
 0001:00149dd0       ?ParamNoAlpha@roq@@QAE_NXZ 0054add0 f   roq.obj
 0001:00149de0       ?RoQFileEncode_f@@YAXABVidCmdArgs@@@Z 0054ade0 f   roq.obj
 0001:00149ed0       ?Scaleable@roq@@QAE_NXZ    0054aed0 f   roq.obj
 0001:00149ee0       ?Write32Word@roq@@AAEXPAIPAVidFile@@@Z 0054aee0 f   roq.obj
 0001:00149f50       ?WriteCodeBook@roq@@QAEXPAE@Z 0054af50 f   roq.obj
 0001:00149f70       ?WriteCodeBookToStream@roq@@AAEXPAEHG@Z 0054af70 f   roq.obj
 0001:0014a030       ?WriteFrame@roq@@QAEXPAUquadcel@@@Z 0054b030 f   roq.obj
 0001:0014a710       ?AssureSize@?$idList@VidStr@@@@QAEXHABVidStr@@@Z 0054b710 f i roqParam.obj
 0001:0014a7d0       ?FirstFrameSize@roqParam@@QAEHXZ 0054b7d0 f   roqParam.obj
 0001:0014a7e0       ?GetNextImageFilename@roqParam@@QAEPBDXZ 0054b7e0 f   roqParam.obj
 0001:0014a9e0       ?GetNthInputFileName@roqParam@@QAEXAAVidStr@@H@Z 0054b9e0 f   roqParam.obj
 0001:0014adf0       ?HasSound@roqParam@@QAE_NXZ 0054bdf0 f   roqParam.obj
 0001:0014ae00       ?InitFromFile@roqParam@@QAEXPBD@Z 0054be00 f   roqParam.obj
 0001:0014b970       ?IsScaleable@roqParam@@QAE_NXZ 0054c970 f   roqParam.obj
 0001:0014b980       ?MoreFrames@roqParam@@QAE_NXZ 0054c980 f   roqParam.obj
 0001:0014b990       ?NoAlpha@roqParam@@QAE_NXZ 0054c990 f   roqParam.obj
 0001:0014b9a0       ?NormalFrameSize@roqParam@@QAEHXZ 0054c9a0 f   roqParam.obj
 0001:0014b9b0       ?NumberOfFrames@roqParam@@QAEHXZ 0054c9b0 f   roqParam.obj
 0001:0014b9c0       ?parseRange@@YAHPBDHQAH111QA_N1@Z 0054c9c0 f   roqParam.obj
 0001:0014bb40       ?parseTimecodeRange@@YAHPBDHQAH111QA_N1@Z 0054cb40 f   roqParam.obj
 0001:0014bd40       ??0idBindWindow@@QAE@PAVidDeviceContext@@PAVidUserInterfaceLocal@@@Z 0054cd40 f   BindWindow.obj
 0001:0014bde0       ??1idWinStr@@UAE@XZ        0054cde0 f i BindWindow.obj
 0001:0014be30       ??_EidBindWindow@@UAEPAXI@Z 0054ce30 f i BindWindow.obj
 0001:0014be30       ??_GidBindWindow@@UAEPAXI@Z 0054ce30 f i BindWindow.obj
 0001:0014beb0       ??_EidWinStr@@UAEPAXI@Z    0054ceb0 f i BindWindow.obj
 0001:0014beb0       ??_GidWinStr@@UAEPAXI@Z    0054ceb0 f i BindWindow.obj
 0001:0014bf10       ?Activate@idBindWindow@@UAEX_NAAVidStr@@@Z 0054cf10 f   BindWindow.obj
 0001:0014bf40       ?Allocated@idBindWindow@@UAEIXZ 0054cf40 f i BindWindow.obj
 0001:0014bf40       ?Allocated@idChoiceWindow@@UAEIXZ 0054cf40 f i ChoiceWindow.obj
 0001:0014bf40       ?Allocated@idEditWindow@@UAEIXZ 0054cf40 f i EditWindow.obj
 0001:0014bf40       ?Allocated@idListWindow@@UAEIXZ 0054cf40 f i ListWindow.obj
 0001:0014bf40       ?Allocated@idMarkerWindow@@UAEIXZ 0054cf40 f i MarkerWindow.obj
 0001:0014bf40       ?Allocated@idRenderWindow@@UAEIXZ 0054cf40 f i RenderWindow.obj
 0001:0014bf40       ?Allocated@idSliderWindow@@UAEIXZ 0054cf40 f i SliderWindow.obj
 0001:0014bf50       ?CommonInit@idBindWindow@@AAEXXZ 0054cf50 f   BindWindow.obj
 0001:0014c040       ?Draw@idBindWindow@@UAEXHMM@Z 0054d040 f   BindWindow.obj
 0001:0014c1e0       ?GetName@idWinVar@@QBEPBDXZ 0054d1e0 f i BindWindow.obj
 0001:0014c210       ?GetWinVarByName@idBindWindow@@UAEPAVidWinVar@@PBD_NPAPAUdrawWin_t@@@Z 0054d210 f   BindWindow.obj
 0001:0014c250       ?HandleEvent@idBindWindow@@UAEPBDPBUsysEvent_s@@PA_N@Z 0054d250 f   BindWindow.obj
 0001:0014c300       ?Init@idWinStr@@UAEXPBDPAVidWindow@@@Z 0054d300 f i BindWindow.obj
 0001:0014c370       ?PostParse@idBindWindow@@UAEXXZ 0054d370 f   BindWindow.obj
 0001:0014c3b0       ?ReadFromSaveGame@idWinStr@@UAEXPAVidFile@@@Z 0054d3b0 f i BindWindow.obj
 0001:0014c420       ?Set@idWinStr@@UAEXPBD@Z   0054d420 f i BindWindow.obj
 0001:0014c480       ?Size@idWinStr@@UAEIXZ     0054d480 f i BindWindow.obj
 0001:0014c4c0       ?Size@idWinVar@@UAEIXZ     0054d4c0 f i BindWindow.obj
 0001:0014c4f0       ?Update@idWinStr@@UAEXXZ   0054d4f0 f i BindWindow.obj
 0001:0014c570       ?WriteToSaveGame@idWinStr@@UAEXPAVidFile@@@Z 0054d570 f i BindWindow.obj
 0001:0014c5c0       ?x@idWinStr@@UBEMXZ        0054d5c0 f i BindWindow.obj
 0001:0014c5e0       ??0idChoiceWindow@@QAE@PAVidDeviceContext@@PAVidUserInterfaceLocal@@@Z 0054d5e0 f   ChoiceWindow.obj
 0001:0014c830       ??1idChoiceWindow@@UAE@XZ  0054d830 f   ChoiceWindow.obj
 0001:0014ca40       ??1idWinBool@@UAE@XZ       0054da40 f i ChoiceWindow.obj
 0001:0014ca50       ??_EidChoiceWindow@@UAEPAXI@Z 0054da50 f i ChoiceWindow.obj
 0001:0014ca50       ??_GidChoiceWindow@@UAEPAXI@Z 0054da50 f i ChoiceWindow.obj
 0001:0014ca80       ??_EidWinBool@@UAEPAXI@Z   0054da80 f i ChoiceWindow.obj
 0001:0014ca80       ??_GidWinBool@@UAEPAXI@Z   0054da80 f i ChoiceWindow.obj
 0001:0014cab0       ?Activate@idChoiceWindow@@UAEX_NAAVidStr@@@Z 0054dab0 f   ChoiceWindow.obj
 0001:0014cae0       ?CommonInit@idChoiceWindow@@AAEXXZ 0054dae0 f   ChoiceWindow.obj
 0001:0014cbf0       ?Draw@idChoiceWindow@@UAEXHMM@Z 0054dbf0 f   ChoiceWindow.obj
 0001:0014ce20       ?GetWinVarByName@idChoiceWindow@@UAEPAVidWinVar@@PBD_NPAPAUdrawWin_t@@@Z 0054de20 f   ChoiceWindow.obj
 0001:0014cef0       ?HandleEvent@idChoiceWindow@@UAEPBDPBUsysEvent_s@@PA_N@Z 0054def0 f   ChoiceWindow.obj
 0001:0014d130       ?Init@idWinBool@@UAEXPBDPAVidWindow@@@Z 0054e130 f i ChoiceWindow.obj
 0001:0014d1a0       ?InitVars@idChoiceWindow@@AAEXXZ 0054e1a0 f   ChoiceWindow.obj
 0001:0014d2e0       ?Length@idWinStr@@QAEHXZ   0054e2e0 f i ChoiceWindow.obj
 0001:0014d330       ?ParseInternalVar@idChoiceWindow@@EAE_NPBDPAVidParser@@@Z 0054e330 f   ChoiceWindow.obj
 0001:0014d3a0       ?PostParse@idChoiceWindow@@UAEXXZ 0054e3a0 f   ChoiceWindow.obj
 0001:0014d430       ?ReadFromSaveGame@idWinBool@@UAEXPAVidFile@@@Z 0054e430 f i ChoiceWindow.obj
 0001:0014d460       ?RunNamedEvent@idChoiceWindow@@UAEXPBD@Z 0054e460 f   ChoiceWindow.obj
 0001:0014d6a0       ?Set@idWinBool@@UAEXPBD@Z  0054e6a0 f i ChoiceWindow.obj
 0001:0014d710       ?Update@idWinBool@@UAEXXZ  0054e710 f i ChoiceWindow.obj
 0001:0014d7a0       ?UpdateChoice@idChoiceWindow@@AAEXXZ 0054e7a0 f   ChoiceWindow.obj
 0001:0014d8a0       ?UpdateChoicesAndVals@idChoiceWindow@@AAEXXZ 0054e8a0 f   ChoiceWindow.obj
 0001:0014df60       ?ValidateChoice@idChoiceWindow@@AAEXXZ 0054ef60 f   ChoiceWindow.obj
 0001:0014e010       ?WriteToSaveGame@idWinBool@@UAEXPAVidFile@@@Z 0054f010 f i ChoiceWindow.obj
 0001:0014e040       ?c_str@idWinBool@@UBEPBDXZ 0054f040 f i ChoiceWindow.obj
 0001:0014e060       ?x@idWinBool@@UBEMXZ       0054f060 f i ChoiceWindow.obj
 0001:0014e080       ??0idDeviceContext@@QAE@XZ 0054f080 f   DeviceContext.obj
 0001:0014e100       ?Append@?$idList@VidRectangle@@@@QAEHABVidRectangle@@@Z 0054f100 f i DeviceContext.obj
 0001:0014e170       ?CharWidth@idDeviceContext@@QAEHDM@Z 0054f170 f   DeviceContext.obj
 0001:0014e1d0       ?ClippedCoords@idDeviceContext@@QAE_NPAM0000000@Z 0054f1d0 f   DeviceContext.obj
 0001:0014e4c0       ?DrawCursor@idDeviceContext@@QAEXPAM0M@Z 0054f4c0 f   DeviceContext.obj
 0001:0014e5a0       ?DrawEditCursor@idDeviceContext@@QAEXMMM@Z 0054f5a0 f   DeviceContext.obj
 0001:0014e6d0       ?DrawFilledRect@idDeviceContext@@QAEXMMMMABVidVec4@@@Z 0054f6d0 f   DeviceContext.obj
 0001:0014e790       ?DrawMaterial@idDeviceContext@@QAEXMMMMPBVidMaterial@@ABVidVec4@@MM@Z 0054f790 f   DeviceContext.obj
 0001:0014e900       ?DrawMaterialRotated@idDeviceContext@@QAEXMMMMPBVidMaterial@@ABVidVec4@@MMM@Z 0054f900 f   DeviceContext.obj
 0001:0014eac0       ?DrawRect@idDeviceContext@@QAEXMMMMMABVidVec4@@@Z 0054fac0 f   DeviceContext.obj
 0001:0014ecd0       ?DrawStretchPic@idDeviceContext@@QAEXMMMMMMMMPBVidMaterial@@@Z 0054fcd0 f   DeviceContext.obj
 0001:0014f1a0       ?DrawStretchPicRotated@idDeviceContext@@QAEXMMMMMMMMPBVidMaterial@@M@Z 005501a0 f   DeviceContext.obj
 0001:0014f9b0       ?DrawTextA@idDeviceContext@@AAEHMMMVidVec4@@PBDMHHH@Z 005509b0 f   DeviceContext.obj
 0001:0014fd60       ?DrawTextA@idDeviceContext@@QAEHPBDMHVidVec4@@VidRectangle@@_NH3PAV?$idList@H@@H@Z 00550d60 f   DeviceContext.obj
 0001:00150320       ?FindFont@idDeviceContext@@QAEHPBD@Z 00551320 f   DeviceContext.obj
 0001:00150510       ?GetTransformInfo@idDeviceContext@@QAEXAAVidVec3@@AAVidMat3@@@Z 00551510 f   DeviceContext.obj
 0001:00150590       ?Init@idDeviceContext@@QAEXXZ 00551590 f   DeviceContext.obj
 0001:001509c0       ?IsIdentity@idMat3@@QBE_NM@Z 005519c0 f i DeviceContext.obj
 0001:00150b40       ?MaxCharHeight@idDeviceContext@@QAEHM@Z 00551b40 f   DeviceContext.obj
 0001:00150ba0       ?MaxCharWidth@idDeviceContext@@QAEHM@Z 00551ba0 f   DeviceContext.obj
 0001:00150c00       ?PaintChar@idDeviceContext@@AAEXMMMMMMMMMPBVidMaterial@@@Z 00551c00 f   DeviceContext.obj
 0001:00150ce0       ?PopClipRect@idDeviceContext@@QAEXXZ 00551ce0 f   DeviceContext.obj
 0001:00150d00       ?PushClipRect@idDeviceContext@@QAEXVidRectangle@@@Z 00551d00 f   DeviceContext.obj
 0001:00150d10       ?Resize@?$idList@UfontInfoEx_t@@@@QAEXH@Z 00551d10 f i DeviceContext.obj
 0001:00150dc0       ?Resize@?$idList@VidRectangle@@@@QAEXH@Z 00551dc0 f i DeviceContext.obj
 0001:00150e90       ?SetCursor@idDeviceContext@@QAEXH@Z 00551e90 f   DeviceContext.obj
 0001:00150eb0       ?SetFont@idDeviceContext@@QAEXH@Z 00551eb0 f   DeviceContext.obj
 0001:00150ee0       ?SetFontByScale@idDeviceContext@@AAEXM@Z 00551ee0 f   DeviceContext.obj
 0001:00150f80       ?SetSize@idDeviceContext@@QAEXMM@Z 00551f80 f   DeviceContext.obj
 0001:00150ff0       ?SetTransformInfo@idDeviceContext@@QAEXABVidVec3@@ABVidMat3@@@Z 00551ff0 f   DeviceContext.obj
 0001:00151070       ?Shutdown@idDeviceContext@@QAEXXZ 00552070 f   DeviceContext.obj
 0001:00151110       ?TextWidth@idDeviceContext@@QAEHPBDMH@Z 00552110 f   DeviceContext.obj
 0001:00151200       ??0idEditWindow@@QAE@PAVidDeviceContext@@PAVidUserInterfaceLocal@@@Z 00552200 f   EditWindow.obj
 0001:00151360       ??4idWinBool@@QAEAA_NAB_N@Z 00552360 f i EditWindow.obj
 0001:001513d0       ??4idWinStr@@QAEAAVidStr@@ABV1@@Z 005523d0 f i EditWindow.obj
 0001:00151450       ??_EidEditWindow@@UAEPAXI@Z 00552450 f i EditWindow.obj
 0001:00151450       ??_GidEditWindow@@UAEPAXI@Z 00552450 f i EditWindow.obj
 0001:00151560       ?Activate@idEditWindow@@UAEX_NAAVidStr@@@Z 00552560 f   EditWindow.obj
 0001:001515f0       ?CommonInit@idEditWindow@@AAEXXZ 005525f0 f   EditWindow.obj
 0001:00151720       ?Draw@idEditWindow@@UAEXHMM@Z 00552720 f   EditWindow.obj
 0001:00151a40       ?EnsureCursorVisible@idEditWindow@@AAEXXZ 00552a40 f   EditWindow.obj
 0001:00151dc0       ?GainFocus@idEditWindow@@UAEXXZ 00552dc0 f   EditWindow.obj
 0001:00151e20       ?GetWinVarByName@idEditWindow@@UAEPAVidWinVar@@PBD_NPAPAUdrawWin_t@@@Z 00552e20 f   EditWindow.obj
 0001:00151ec0       ?HandleEvent@idEditWindow@@UAEPBDPBUsysEvent_s@@PA_N@Z 00552ec0 f   EditWindow.obj
 0001:00152740       ?ParseInternalVar@idEditWindow@@EAE_NPBDPAVidParser@@@Z 00553740 f   EditWindow.obj
 0001:001528b0       ?PostParse@idEditWindow@@UAEXXZ 005538b0 f   EditWindow.obj
 0001:00152b30       ?RunNamedEvent@idEditWindow@@UAEXPBD@Z 00553b30 f   EditWindow.obj
 0001:00152d60       ??0idFieldWindow@@QAE@PAVidDeviceContext@@PAVidUserInterfaceLocal@@@Z 00553d60 f   FieldWindow.obj
 0001:00152df0       ??_EidFieldWindow@@UAEPAXI@Z 00553df0 f i FieldWindow.obj
 0001:00152df0       ??_GidFieldWindow@@UAEPAXI@Z 00553df0 f i FieldWindow.obj
 0001:00152e60       ?Draw@idFieldWindow@@UAEXHMM@Z 00553e60 f   FieldWindow.obj
 0001:00153030       ?ParseInternalVar@idFieldWindow@@EAE_NPBDPAVidParser@@@Z 00554030 f   FieldWindow.obj
 0001:001530a0       ??0idGameBearShootWindow@@QAE@PAVidDeviceContext@@PAVidUserInterfaceLocal@@@Z 005540a0 f   GameBearShootWindow.obj
 0001:001531a0       ??_EBSEntity@@UAEPAXI@Z    005541a0 f i GameBearShootWindow.obj
 0001:001531a0       ??_GBSEntity@@UAEPAXI@Z    005541a0 f i GameBearShootWindow.obj
 0001:00153200       ??_EidGameBearShootWindow@@UAEPAXI@Z 00554200 f i GameBearShootWindow.obj
 0001:00153200       ??_GidGameBearShootWindow@@UAEPAXI@Z 00554200 f i GameBearShootWindow.obj
 0001:001532b0       ?CommonInit@idGameBearShootWindow@@AAEXXZ 005542b0 f   GameBearShootWindow.obj
 0001:00153ae0       ?DeleteContents@?$idList@PAVBOEntity@@@@QAEX_N@Z 00554ae0 f i GameBustOutWindow.obj
 0001:00153ae0       ?DeleteContents@?$idList@PAVBSEntity@@@@QAEX_N@Z 00554ae0 f i GameBearShootWindow.obj
 0001:00153ae0       ?DeleteContents@?$idList@PAVidMapPrimitive@@@@QAEX_N@Z 00554ae0 f i idLib:MapFile.obj
 0001:00153ae0       ?DeleteContents@?$idList@PAVidUserInterfaceLocal@@@@QAEX_N@Z 00554ae0 f i UserInterface.obj
 0001:00153b60       ?Draw@BSEntity@@UAEXPAVidDeviceContext@@@Z 00554b60 f   GameBearShootWindow.obj
 0001:00153bd0       ?Draw@idGameBearShootWindow@@UAEXHMM@Z 00554bd0 f   GameBearShootWindow.obj
 0001:00153c10       ?GetWinVarByName@idGameBearShootWindow@@UAEPAVidWinVar@@PBD_NPAPAUdrawWin_t@@@Z 00554c10 f   GameBearShootWindow.obj
 0001:00153ca0       ?HandleEvent@idGameBearShootWindow@@UAEPBDPBUsysEvent_s@@PA_N@Z 00554ca0 f   GameBearShootWindow.obj
 0001:00153cb0       ?ParseInternalVar@idGameBearShootWindow@@EAE_NPBDPAVidParser@@@Z 00554cb0 f   GameBearShootWindow.obj
 0001:00153db0       ?ReadFromSaveGame@BSEntity@@UAEXPAVidFile@@PAVidGameBearShootWindow@@@Z 00554db0 f   GameBearShootWindow.obj
 0001:00153e80       ?ReadFromSaveGame@idGameBearShootWindow@@UAEXPAVidFile@@@Z 00554e80 f   GameBearShootWindow.obj
 0001:00154200       ?ResetGameState@idGameBearShootWindow@@AAEXXZ 00555200 f   GameBearShootWindow.obj
 0001:001542e0       ?SetMaterial@BSEntity@@QAEXPBD@Z 005552e0 f   GameBearShootWindow.obj
 0001:00154320       ?Update@BSEntity@@UAEXM@Z  00555320 f   GameBearShootWindow.obj
 0001:001543d0       ?UpdateBear@idGameBearShootWindow@@AAEXXZ 005553d0 f   GameBearShootWindow.obj
 0001:001549c0       ?UpdateGame@idGameBearShootWindow@@AAEXXZ 005559c0 f   GameBearShootWindow.obj
 0001:00155050       ?WriteToSaveGame@BSEntity@@UAEXPAVidFile@@@Z 00556050 f   GameBearShootWindow.obj
 0001:001550f0       ?WriteToSaveGame@idGameBearShootWindow@@UAEXPAVidFile@@@Z 005560f0 f   GameBearShootWindow.obj
 0001:001553e0       ??0BOBrick@@QAE@PAVBOEntity@@MMMM@Z 005563e0 f   GameBustOutWindow.obj
 0001:001554a0       ??0idGameBustOutWindow@@QAE@PAVidDeviceContext@@PAVidUserInterfaceLocal@@@Z 005564a0 f   GameBustOutWindow.obj
 0001:00155630       ??_EBOEntity@@UAEPAXI@Z    00556630 f i GameBustOutWindow.obj
 0001:00155630       ??_GBOEntity@@UAEPAXI@Z    00556630 f i GameBustOutWindow.obj
 0001:00155690       ??_EidGameBustOutWindow@@UAEPAXI@Z 00556690 f i GameBustOutWindow.obj
 0001:00155690       ??_GidGameBustOutWindow@@UAEPAXI@Z 00556690 f i GameBustOutWindow.obj
 0001:00155810       ?ClearBoard@idGameBustOutWindow@@AAEXXZ 00556810 f   GameBustOutWindow.obj
 0001:001558b0       ?ClearPowerups@idGameBustOutWindow@@AAEXXZ 005568b0 f   GameBustOutWindow.obj
 0001:00155910       ?CommonInit@idGameBustOutWindow@@AAEXXZ 00556910 f   GameBustOutWindow.obj
 0001:00155b50       ?CreateNewBall@idGameBustOutWindow@@AAEPAVBOEntity@@XZ 00556b50 f   GameBustOutWindow.obj
 0001:00155ca0       ?Draw@BOEntity@@UAEXPAVidDeviceContext@@@Z 00556ca0 f   GameBustOutWindow.obj
 0001:00155d10       ?Draw@idGameBustOutWindow@@UAEXHMM@Z 00556d10 f   GameBustOutWindow.obj
 0001:00155d50       ?GetWinVarByName@idGameBustOutWindow@@UAEPAVidWinVar@@PBD_NPAPAUdrawWin_t@@@Z 00556d50 f   GameBustOutWindow.obj
 0001:00155df0       ?HandleEvent@idGameBustOutWindow@@UAEPBDPBUsysEvent_s@@PA_N@Z 00556df0 f   GameBustOutWindow.obj
 0001:00155ed0       ?LengthFast@idVec2@@QBEMXZ 00556ed0 f i GameBustOutWindow.obj
 0001:00155f40       ?LoadBoardFiles@idGameBustOutWindow@@AAEXXZ 00556f40 f   GameBustOutWindow.obj
 0001:00156150       ?NormalizeFast@idVec2@@QAEMXZ 00557150 f i GameBustOutWindow.obj
 0001:001561d0       ?ParseInternalVar@idGameBustOutWindow@@EAE_NPBDPAVidParser@@@Z 005571d0 f   GameBustOutWindow.obj
 0001:00156330       ?ReadFromSaveGame@BOBrick@@UAEXPAVidFile@@PAVidGameBustOutWindow@@@Z 00557330 f   GameBustOutWindow.obj
 0001:001563b0       ?ReadFromSaveGame@BOEntity@@UAEXPAVidFile@@PAVidGameBustOutWindow@@@Z 005573b0 f   GameBustOutWindow.obj
 0001:00156470       ?ReadFromSaveGame@idGameBustOutWindow@@UAEXPAVidFile@@@Z 00557470 f   GameBustOutWindow.obj
 0001:00156a00       ?ResetGameState@idGameBustOutWindow@@AAEXXZ 00557a00 f   GameBustOutWindow.obj
 0001:00156ae0       ?SetCurrentBoard@idGameBustOutWindow@@AAEXXZ 00557ae0 f   GameBustOutWindow.obj
 0001:00156e20       ?Update@BOEntity@@UAEXMH@Z 00557e20 f   GameBustOutWindow.obj
 0001:00156e90       ?UpdateBall@idGameBustOutWindow@@AAEXXZ 00557e90 f   GameBustOutWindow.obj
 0001:00157530       ?UpdateGame@idGameBustOutWindow@@AAEXXZ 00558530 f   GameBustOutWindow.obj
 0001:00157820       ?UpdatePowerups@idGameBustOutWindow@@AAEXXZ 00558820 f   GameBustOutWindow.obj
 0001:00157a70       ?UpdateScore@idGameBustOutWindow@@AAEXXZ 00558a70 f   GameBustOutWindow.obj
 0001:00157bf0       ?WriteToSaveGame@BOBrick@@UAEXPAVidFile@@@Z 00558bf0 f   GameBustOutWindow.obj
 0001:00157c90       ?WriteToSaveGame@BOEntity@@UAEXPAVidFile@@@Z 00558c90 f   GameBustOutWindow.obj
 0001:00157d20       ?WriteToSaveGame@idGameBustOutWindow@@UAEXPAVidFile@@@Z 00558d20 f   GameBustOutWindow.obj
 0001:00157fe0       ?checkCollision@BOBrick@@QAE?AW4collideDir_t@@VidVec2@@0@Z 00558fe0 f   GameBustOutWindow.obj
 0001:00158380       ??0SSDAsteroid@@QAE@XZ     00559380 f   GameSSDWindow.obj
 0001:00158400       ??0SSDAstronaut@@QAE@XZ    00559400 f   GameSSDWindow.obj
 0001:00158480       ??0SSDExplosion@@QAE@XZ    00559480 f   GameSSDWindow.obj
 0001:00158510       ??0SSDPoints@@QAE@XZ       00559510 f   GameSSDWindow.obj
 0001:001585a0       ??0SSDPowerup@@QAE@XZ      005595a0 f   GameSSDWindow.obj
 0001:00158620       ??0SSDProjectile@@QAE@XZ   00559620 f   GameSSDWindow.obj
 0001:001586b0       ??0idGameSSDWindow@@QAE@PAVidDeviceContext@@PAVidUserInterfaceLocal@@@Z 005596b0 f   GameSSDWindow.obj
 0001:00158890       ??1SSDAsteroid@@UAE@XZ     00559890 f   GameSSDWindow.obj
 0001:00158890       ??1SSDAstronaut@@UAE@XZ    00559890 f   GameSSDWindow.obj
 0001:00158890       ??1SSDExplosion@@UAE@XZ    00559890 f   GameSSDWindow.obj
 0001:00158890       ??1SSDPoints@@UAE@XZ       00559890 f   GameSSDWindow.obj
 0001:00158890       ??1SSDPowerup@@UAE@XZ      00559890 f   GameSSDWindow.obj
 0001:00158890       ??1SSDProjectile@@UAE@XZ   00559890 f   GameSSDWindow.obj
 0001:001588f0       ??1SSDCrossHair@@QAE@XZ    005598f0 f   GameSSDWindow.obj
 0001:00158900       ??1idGameSSDWindow@@UAE@XZ 00559900 f   GameSSDWindow.obj
 0001:00158ae0       ??_ESSDAsteroid@@UAEPAXI@Z 00559ae0 f i GameSSDWindow.obj
 0001:00158ae0       ??_ESSDAstronaut@@UAEPAXI@Z 00559ae0 f i GameSSDWindow.obj
 0001:00158ae0       ??_GSSDAsteroid@@UAEPAXI@Z 00559ae0 f i GameSSDWindow.obj
 0001:00158ae0       ??_GSSDAstronaut@@UAEPAXI@Z 00559ae0 f i GameSSDWindow.obj
 0001:00158b50       ??_ESSDEntity@@UAEPAXI@Z   00559b50 f i GameSSDWindow.obj
 0001:00158b50       ??_GSSDEntity@@UAEPAXI@Z   00559b50 f i GameSSDWindow.obj
 0001:00158bc0       ??_ESSDExplosion@@UAEPAXI@Z 00559bc0 f i GameSSDWindow.obj
 0001:00158bc0       ??_GSSDExplosion@@UAEPAXI@Z 00559bc0 f i GameSSDWindow.obj
 0001:00158c30       ??_ESSDPoints@@UAEPAXI@Z   00559c30 f i GameSSDWindow.obj
 0001:00158c30       ??_GSSDPoints@@UAEPAXI@Z   00559c30 f i GameSSDWindow.obj
 0001:00158ca0       ??_ESSDPowerup@@UAEPAXI@Z  00559ca0 f i GameSSDWindow.obj
 0001:00158ca0       ??_GSSDPowerup@@UAEPAXI@Z  00559ca0 f i GameSSDWindow.obj
 0001:00158d10       ??_ESSDProjectile@@UAEPAXI@Z 00559d10 f i GameSSDWindow.obj
 0001:00158d10       ??_GSSDProjectile@@UAEPAXI@Z 00559d10 f i GameSSDWindow.obj
 0001:00158d80       ??_EidGameSSDWindow@@UAEPAXI@Z 00559d80 f i GameSSDWindow.obj
 0001:00158d80       ??_GidGameSSDWindow@@UAEPAXI@Z 00559d80 f i GameSSDWindow.obj
 0001:00158db0       ?AddDamage@idGameSSDWindow@@QAEXH@Z 00559db0 f   GameSSDWindow.obj
 0001:00158e30       ?AddScore@idGameSSDWindow@@QAEXPAVSSDEntity@@H@Z 00559e30 f   GameSSDWindow.obj
 0001:00158ec0       ?Append@?$idList@USSDAsteroidData_t@@@@QAEHABUSSDAsteroidData_t@@@Z 00559ec0 f i GameSSDWindow.obj
 0001:00158f40       ?Append@?$idList@USSDAstronautData_t@@@@QAEHABUSSDAstronautData_t@@@Z 00559f40 f i GameSSDWindow.obj
 0001:00158fc0       ?Append@?$idList@USSDPowerupData_t@@@@QAEHABUSSDPowerupData_t@@@Z 00559fc0 f i GameSSDWindow.obj
 0001:00159040       ?AstronautStruckPlayer@idGameSSDWindow@@AAEXPAVSSDAstronaut@@@Z 0055a040 f   GameSSDWindow.obj
 0001:00159260       ?CheckForHits@idGameSSDWindow@@AAEXXZ 0055a260 f   GameSSDWindow.obj
 0001:00159450       ?CommonInit@idGameSSDWindow@@AAEXXZ 0055a450 f   GameSSDWindow.obj
 0001:00159650       ?DestroyEntity@SSDEntity@@UAEXXZ 0055a650 f   GameSSDWindow.obj
 0001:00159660       ?Draw@SSDEntity@@UAEXPAVidDeviceContext@@@Z 0055a660 f   GameSSDWindow.obj
 0001:00159860       ?Draw@idGameSSDWindow@@UAEXHMM@Z 0055a860 f   GameSSDWindow.obj
 0001:001599c0       ?EntityInit@SSDEntity@@QAEXXZ 0055a9c0 f   GameSSDWindow.obj
 0001:00159aa0       ?EntityUpdate@SSDAsteroid@@UAEXXZ 0055aaa0 f   GameSSDWindow.obj
 0001:00159aa0       ?EntityUpdate@SSDMover@@UAEXXZ 0055aaa0 f   GameSSDWindow.obj
 0001:00159b50       ?EntityUpdate@SSDExplosion@@UAEXXZ 0055ab50 f   GameSSDWindow.obj
 0001:00159c00       ?EntityUpdate@SSDPoints@@UAEXXZ 0055ac00 f   GameSSDWindow.obj
 0001:00159c90       ?EntityUpdate@SSDProjectile@@UAEXXZ 0055ac90 f   GameSSDWindow.obj
 0001:00159d10       ?FireWeapon@idGameSSDWindow@@AAEXH@Z 0055ad10 f   GameSSDWindow.obj
 0001:0015a0d0       ?GetNewExplosion@SSDExplosion@@SAPAV1@PAVidGameSSDWindow@@ABVidVec3@@ABVidVec2@@HHPAVSSDEntity@@_N4@Z 0055b0d0 f   GameSSDWindow.obj
 0001:0015a1f0       ?GetNewPoints@SSDPoints@@SAPAV1@PAVidGameSSDWindow@@PAVSSDEntity@@HHHABVidVec4@@@Z 0055b1f0 f   GameSSDWindow.obj
 0001:0015a440       ?GetNewProjectile@SSDProjectile@@SAPAV1@PAVidGameSSDWindow@@ABVidVec3@@1MM@Z 0055b440 f   GameSSDWindow.obj
 0001:0015a560       ?GetSpecificEntity@idGameSSDWindow@@QAEPAVSSDEntity@@HH@Z 0055b560 f   GameSSDWindow.obj
 0001:0015a600       ?GetWinVarByName@idGameSSDWindow@@UAEPAVidWinVar@@PBD_NPAPAUdrawWin_t@@@Z 0055b600 f   GameSSDWindow.obj
 0001:0015a690       ?HandleEvent@idGameSSDWindow@@UAEPBDPBUsysEvent_s@@PA_N@Z 0055b690 f   GameSSDWindow.obj
 0001:0015a6e0       ?OnActivatePowerup@SSDPowerup@@QAEXXZ 0055b6e0 f   GameSSDWindow.obj
 0001:0015a950       ?OnHit@SSDPowerup@@UAEXH@Z 0055b950 f   GameSSDWindow.obj
 0001:0015aa80       ?OnRescueAll@idGameSSDWindow@@QAEXXZ 0055ba80 f   GameSSDWindow.obj
 0001:0015acd0       ?OnStrikePlayer@SSDPowerup@@UAEXXZ 0055bcd0 f   GameSSDWindow.obj
 0001:0015acf0       ?ParseInternalVar@idGameSSDWindow@@EAE_NPBDPAVidParser@@@Z 0055bcf0 f   GameSSDWindow.obj
 0001:0015b7e0       ?ReadFromSaveGame@SSDAsteroid@@UAEXPAVidFile@@PAVidGameSSDWindow@@@Z 0055c7e0 f   GameSSDWindow.obj
 0001:0015b7e0       ?ReadFromSaveGame@SSDAstronaut@@UAEXPAVidFile@@PAVidGameSSDWindow@@@Z 0055c7e0 f   GameSSDWindow.obj
 0001:0015b830       ?ReadFromSaveGame@SSDCrossHair@@UAEXPAVidFile@@@Z 0055c830 f   GameSSDWindow.obj
 0001:0015b8b0       ?ReadFromSaveGame@SSDEntity@@UAEXPAVidFile@@PAVidGameSSDWindow@@@Z 0055c8b0 f   GameSSDWindow.obj
 0001:0015ba10       ?ReadFromSaveGame@SSDExplosion@@UAEXPAVidFile@@PAVidGameSSDWindow@@@Z 0055ca10 f   GameSSDWindow.obj
 0001:0015bad0       ?ReadFromSaveGame@SSDPoints@@UAEXPAVidFile@@PAVidGameSSDWindow@@@Z 0055cad0 f   GameSSDWindow.obj
 0001:0015bb70       ?ReadFromSaveGame@SSDPowerup@@UAEXPAVidFile@@PAVidGameSSDWindow@@@Z 0055cb70 f   GameSSDWindow.obj
 0001:0015bbd0       ?ReadFromSaveGame@SSDProjectile@@UAEXPAVidFile@@PAVidGameSSDWindow@@@Z 0055cbd0 f   GameSSDWindow.obj
 0001:0015bc40       ?ReadFromSaveGame@idGameSSDWindow@@UAEXPAVidFile@@@Z 0055cc40 f   GameSSDWindow.obj
 0001:0015c210       ?RefreshGuiData@idGameSSDWindow@@AAEXXZ 0055d210 f   GameSSDWindow.obj
 0001:0015c480       ?ResetEntities@idGameSSDWindow@@AAEXXZ 0055d480 f   GameSSDWindow.obj
 0001:0015c4e0       ?Resize@?$idList@USSDAsteroidData_t@@@@QAEXH@Z 0055d4e0 f i GameSSDWindow.obj
 0001:0015c5a0       ?Resize@?$idList@USSDPowerupData_t@@@@QAEXH@Z 0055d5a0 f i GameSSDWindow.obj
 0001:0015c650       ?SpawnAsteroid@idGameSSDWindow@@AAEXXZ 0055d650 f   GameSSDWindow.obj
 0001:0015c9c0       ?SpawnAstronaut@idGameSSDWindow@@AAEXXZ 0055d9c0 f   GameSSDWindow.obj
 0001:0015ccb0       ?SpawnPowerup@idGameSSDWindow@@AAEXXZ 0055dcb0 f   GameSSDWindow.obj
 0001:0015cf80       ?UpdateGame@idGameSSDWindow@@AAEXXZ 0055df80 f   GameSSDWindow.obj
 0001:0015d2f0       ?WriteToSaveGame@SSDAsteroid@@UAEXPAVidFile@@@Z 0055e2f0 f   GameSSDWindow.obj
 0001:0015d2f0       ?WriteToSaveGame@SSDAstronaut@@UAEXPAVidFile@@@Z 0055e2f0 f   GameSSDWindow.obj
 0001:0015d340       ?WriteToSaveGame@SSDCrossHair@@UAEXPAVidFile@@@Z 0055e340 f   GameSSDWindow.obj
 0001:0015d380       ?WriteToSaveGame@SSDEntity@@UAEXPAVidFile@@@Z 0055e380 f   GameSSDWindow.obj
 0001:0015d4a0       ?WriteToSaveGame@SSDExplosion@@UAEXPAVidFile@@@Z 0055e4a0 f   GameSSDWindow.obj
 0001:0015d550       ?WriteToSaveGame@SSDPoints@@UAEXPAVidFile@@@Z 0055e550 f   GameSSDWindow.obj
 0001:0015d5f0       ?WriteToSaveGame@SSDPowerup@@UAEXPAVidFile@@@Z 0055e5f0 f   GameSSDWindow.obj
 0001:0015d650       ?WriteToSaveGame@SSDProjectile@@UAEXPAVidFile@@@Z 0055e650 f   GameSSDWindow.obj
 0001:0015d6c0       ?WriteToSaveGame@idGameSSDWindow@@UAEXPAVidFile@@@Z 0055e6c0 f   GameSSDWindow.obj
 0001:0015dde0       ?Script_Set@@YAXPAVidWindow@@PAV?$idList@UidGSWinVar@@@@@Z 0055ede0 f   GuiScript.obj
 0001:0015e030       ?Script_SetFocus@@YAXPAVidWindow@@PAV?$idList@UidGSWinVar@@@@@Z 0055f030 f   GuiScript.obj
 0001:0015e090       ?Script_ShowCursor@@YAXPAVidWindow@@PAV?$idList@UidGSWinVar@@@@@Z 0055f090 f   GuiScript.obj
 0001:0015e0f0       ?Script_RunScript@@YAXPAVidWindow@@PAV?$idList@UidGSWinVar@@@@@Z 0055f0f0 f   GuiScript.obj
 0001:0015e270       ?Script_LocalSound@@YAXPAVidWindow@@PAV?$idList@UidGSWinVar@@@@@Z 0055f270 f   GuiScript.obj
 0001:0015e2b0       ?Script_EvalRegs@@YAXPAVidWindow@@PAV?$idList@UidGSWinVar@@@@@Z 0055f2b0 f   GuiScript.obj
 0001:0015e2c0       ?Script_EndGame@@YAXPAVidWindow@@PAV?$idList@UidGSWinVar@@@@@Z 0055f2c0 f   GuiScript.obj
 0001:0015e2f0       ?Script_ResetTime@@YAXPAVidWindow@@PAV?$idList@UidGSWinVar@@@@@Z 0055f2f0 f   GuiScript.obj
 0001:0015e3b0       ?Script_ResetCinematics@@YAXPAVidWindow@@PAV?$idList@UidGSWinVar@@@@@Z 0055f3b0 f   GuiScript.obj
 0001:0015e3c0       ?Script_Transition@@YAXPAVidWindow@@PAV?$idList@UidGSWinVar@@@@@Z 0055f3c0 f   GuiScript.obj
 0001:0015e5e0       ??0idGuiScript@@QAE@XZ     0055f5e0 f   GuiScript.obj
 0001:0015e680       ??1idGuiScript@@QAE@XZ     0055f680 f   GuiScript.obj
 0001:0015e770       ??_EidWinVec4@@UAEPAXI@Z   0055f770 f i GuiScript.obj
 0001:0015e770       ??_GidWinVec4@@UAEPAXI@Z   0055f770 f i GuiScript.obj
 0001:0015e7a0       ?DeleteContents@?$idList@PAVidGuiScript@@@@QAEX_N@Z 0055f7a0 f i GuiScript.obj
 0001:0015e940       ?Execute@idGuiScriptList@@QAEXPAVidWindow@@@Z 0055f940 f   GuiScript.obj
 0001:0015e9d0       ?FixupParms@idGuiScript@@QAEXPAVidWindow@@@Z 0055f9d0 f   GuiScript.obj
 0001:0015f190       ?FixupParms@idGuiScriptList@@QAEXPAVidWindow@@@Z 00560190 f   GuiScript.obj
 0001:0015f1e0       ?Init@idWinRectangle@@UAEXPBDPAVidWindow@@@Z 005601e0 f i SimpleWindow.obj
 0001:0015f1e0       ?Init@idWinVec4@@UAEXPBDPAVidWindow@@@Z 005601e0 f i GuiScript.obj
 0001:0015f240       ?Parse@idGuiScript@@QAE_NPAVidParser@@@Z 00560240 f   GuiScript.obj
 0001:0015f4e0       ?ReadFromSaveGame@idGuiScript@@QAEXPAVidFile@@@Z 005604e0 f   GuiScript.obj
 0001:0015f560       ?ReadFromSaveGame@idGuiScriptList@@QAEXPAVidFile@@@Z 00560560 f   GuiScript.obj
 0001:0015f590       ?ReadFromSaveGame@idWinRectangle@@UAEXPAVidFile@@@Z 00560590 f i SimpleWindow.obj
 0001:0015f590       ?ReadFromSaveGame@idWinVec4@@UAEXPAVidFile@@@Z 00560590 f i GuiScript.obj
 0001:0015f5c0       ?Resize@?$idList@UidGSWinVar@@@@QAEXH@Z 005605c0 f i GuiScript.obj
 0001:0015f680       ?Set@idWinVec4@@UAEXPBD@Z  00560680 f i GuiScript.obj
 0001:0015f710       ?Update@idWinVec4@@UAEXXZ  00560710 f i GuiScript.obj
 0001:0015f780       ?WriteToSaveGame@idGuiScript@@QAEXPAVidFile@@@Z 00560780 f   GuiScript.obj
 0001:0015f800       ?WriteToSaveGame@idGuiScriptList@@QAEXPAVidFile@@@Z 00560800 f   GuiScript.obj
 0001:0015f830       ?WriteToSaveGame@idWinRectangle@@UAEXPAVidFile@@@Z 00560830 f i SimpleWindow.obj
 0001:0015f830       ?WriteToSaveGame@idWinVec4@@UAEXPAVidFile@@@Z 00560830 f i GuiScript.obj
 0001:0015f860       ?c_str@idWinRectangle@@UBEPBDXZ 00560860 f i SimpleWindow.obj
 0001:0015f860       ?c_str@idWinVec4@@UBEPBDXZ 00560860 f i GuiScript.obj
 0001:0015f870       ?x@idWinFloat@@UBEMXZ      00560870 f i SimpleWindow.obj
 0001:0015f870       ?x@idWinRectangle@@UBEMXZ  00560870 f i SimpleWindow.obj
 0001:0015f870       ?x@idWinVec2@@UBEMXZ       00560870 f i SimpleWindow.obj
 0001:0015f870       ?x@idWinVec4@@UBEMXZ       00560870 f i GuiScript.obj
 0001:0015f880       ?Add@idListGUILocal@@UAEXHABVidStr@@@Z 00560880 f   ListGUI.obj
 0001:0015f920       ?Clear@idListGUILocal@@UAEXXZ 00560920 f   ListGUI.obj
 0001:0015f9e0       ?Del@idListGUILocal@@UAE_NH@Z 005609e0 f   ListGUI.obj
 0001:0015fab0       ?GetNumSelections@idListGUILocal@@UAEHXZ 00560ab0 f   ListGUI.obj
 0001:0015fb00       ?GetSelection@idListGUILocal@@UBEHPADHH@Z 00560b00 f   ListGUI.obj
 0001:0015fbf0       ?IsConfigured@idListGUILocal@@UBE_NXZ 00560bf0 f   ListGUI.obj
 0001:0015fc00       ?Push@idListGUILocal@@UAEXABVidStr@@@Z 00560c00 f   ListGUI.obj
 0001:0015fc30       ?SetSelection@idListGUILocal@@UAEXH@Z 00560c30 f   ListGUI.obj
 0001:0015fc60       ?SetStateChanges@idListGUILocal@@UAEX_N@Z 00560c60 f   ListGUI.obj
 0001:0015fc70       ?Shutdown@idListGUILocal@@UAEXXZ 00560c70 f   ListGUI.obj
 0001:0015fcb0       ?StateChanged@idListGUILocal@@AAEXXZ 00560cb0 f   ListGUI.obj
 0001:0015fd70       ??0idListWindow@@QAE@PAVidDeviceContext@@PAVidUserInterfaceLocal@@@Z 00560d70 f   ListWindow.obj
 0001:0015ffc0       ??1?$idHashTable@PBVidMaterial@@@@QAE@XZ 00560fc0 f i ListWindow.obj
 0001:00160060       ??_EidListWindow@@UAEPAXI@Z 00561060 f i ListWindow.obj
 0001:00160060       ??_GidListWindow@@UAEPAXI@Z 00561060 f i ListWindow.obj
 0001:00160210       ?Activate@idListWindow@@UAEX_NAAVidStr@@@Z 00561210 f   ListWindow.obj
 0001:00160240       ?CommonInit@idListWindow@@AAEXXZ 00561240 f   ListWindow.obj
 0001:00160330       ?Draw@idListWindow@@UAEXHMM@Z 00561330 f   ListWindow.obj
 0001:001609e0       ?GetCurrentSel@idListWindow@@AAEHXZ 005619e0 f   ListWindow.obj
 0001:00160a00       ?GetWinVarByName@idListWindow@@UAEPAVidWinVar@@PBD_NPAPAUdrawWin_t@@@Z 00561a00 f   ListWindow.obj
 0001:00160a10       ?HandleBuddyUpdate@idListWindow@@UAEXPAVidWindow@@@Z 00561a10 f   ListWindow.obj
 0001:00160a30       ?HandleEvent@idListWindow@@UAEPBDPBUsysEvent_s@@PA_N@Z 00561a30 f   ListWindow.obj
 0001:00161070       ?IsSelected@idListWindow@@AAE_NH@Z 00562070 f   ListWindow.obj
 0001:001610a0       ?ParseInternalVar@idListWindow@@EAE_NPBDPAVidParser@@@Z 005620a0 f   ListWindow.obj
 0001:001614b0       ?PostParse@idListWindow@@UAEXXZ 005624b0 f   ListWindow.obj
 0001:00162460       ?Resize@?$idList@UidTabRect@@@@QAEXH@Z 00563460 f i ListWindow.obj
 0001:00162500       ?Resize@?$idList@VidVec2@@@@QAEXH@Z 00563500 f i ListWindow.obj
 0001:001625a0       ?SetCurrentSel@idListWindow@@AAEXH@Z 005635a0 f   ListWindow.obj
 0001:00162770       ?StateChanged@idListWindow@@UAEX_N@Z 00563770 f   ListWindow.obj
 0001:00162780       ?UpdateList@idListWindow@@QAEXXZ 00563780 f   ListWindow.obj
 0001:00162a70       ??0idMarkerWindow@@QAE@PAVidDeviceContext@@PAVidUserInterfaceLocal@@@Z 00563a70 f   MarkerWindow.obj
 0001:00162b40       ??_EidMarkerWindow@@UAEPAXI@Z 00563b40 f i MarkerWindow.obj
 0001:00162b40       ??_GidMarkerWindow@@UAEPAXI@Z 00563b40 f i MarkerWindow.obj
 0001:00162bf0       ?Activate@idMarkerWindow@@UAEX_NAAVidStr@@@Z 00563bf0 f   MarkerWindow.obj
 0001:00163190       ?Draw@idMarkerWindow@@UAEXHMM@Z 00564190 f   MarkerWindow.obj
 0001:00163560       ?GetWinVarByName@idMarkerWindow@@UAEPAVidWinVar@@PBD_N@Z 00564560 f   MarkerWindow.obj
 0001:00163580       ?HandleEvent@idMarkerWindow@@UAEPBDPBUsysEvent_s@@PA_N@Z 00564580 f   MarkerWindow.obj
 0001:00163950       ?Line@idMarkerWindow@@AAEXHHHHPAII@Z 00564950 f   MarkerWindow.obj
 0001:00163ae0       ?MouseEnter@idMarkerWindow@@UAEXXZ 00564ae0 f   MarkerWindow.obj
 0001:00163af0       ?MouseExit@idMarkerWindow@@UAEXXZ 00564af0 f   MarkerWindow.obj
 0001:00163b00       ?ParseInternalVar@idMarkerWindow@@EAE_NPBDPAVidParser@@@Z 00564b00 f   MarkerWindow.obj
 0001:00163c70       ?Resize@?$idList@UmarkerData_t@@@@QAEXH@Z 00564c70 f i MarkerWindow.obj
 0001:00163d50       ?RouteMouseCoords@idMarkerWindow@@UAEPBDMM@Z 00564d50 f   MarkerWindow.obj
 0001:00163fa0       ?AddReg@idRegisterList@@QAEXPBDHPAVidParser@@PAVidWindow@@PAVidWinVar@@@Z 00564fa0 f   RegExp.obj
 0001:00164280       ?DeleteContents@?$idList@PAVidRegister@@@@QAEX_N@Z 00565280 f i RegExp.obj
 0001:00164360       ?FindReg@idRegisterList@@QAEPAVidRegister@@PBD@Z 00565360 f   RegExp.obj
 0001:00164420       ?GetFromRegs@idRegisterList@@QAEXPAM@Z 00565420 f   RegExp.obj
 0001:00164780       ?ReadFromSaveGame@idRegisterList@@QAEXPAVidFile@@@Z 00565780 f   RegExp.obj
 0001:00164860       ?Reset@idRegisterList@@QAEXXZ 00565860 f   RegExp.obj
 0001:00164890       ?SetToRegs@idRegisterList@@QAEXPAM@Z 00565890 f   RegExp.obj
 0001:001649d0       ?WriteToSaveGame@idRegisterList@@QAEXPAVidFile@@@Z 005659d0 f   RegExp.obj
 0001:00164a70       ??0idRenderWindow@@QAE@PAVidDeviceContext@@PAVidUserInterfaceLocal@@@Z 00565a70 f   RenderWindow.obj
 0001:00164c10       ??1idWinVec4@@UAE@XZ       00565c10 f i RenderWindow.obj
 0001:00164c20       ??_EidRenderWindow@@UAEPAXI@Z 00565c20 f i RenderWindow.obj
 0001:00164c20       ??_GidRenderWindow@@UAEPAXI@Z 00565c20 f i RenderWindow.obj
 0001:00164d50       ?CommonInit@idRenderWindow@@AAEXXZ 00565d50 f   RenderWindow.obj
 0001:00164fb0       ?Draw@idRenderWindow@@UAEXHMM@Z 00565fb0 f   RenderWindow.obj
 0001:00165130       ?GetWinVarByName@idRenderWindow@@UAEPAVidWinVar@@PBD_NPAPAUdrawWin_t@@@Z 00566130 f   RenderWindow.obj
 0001:00165240       ?ParseInternalVar@idRenderWindow@@EAE_NPBDPAVidParser@@@Z 00566240 f   RenderWindow.obj
 0001:00165290       ?PreRender@idRenderWindow@@AAEXXZ 00566290 f   RenderWindow.obj
 0001:00165500       ?Render@idRenderWindow@@AAEXH@Z 00566500 f   RenderWindow.obj
 0001:00165760       ??0idSimpleWindow@@QAE@PAVidWindow@@@Z 00566760 f   SimpleWindow.obj
 0001:00166010       ??1idWinBackground@@UAE@XZ 00567010 f i SimpleWindow.obj
 0001:00166070       ??1idWinFloat@@UAE@XZ      00567070 f i SimpleWindow.obj
 0001:00166080       ??1idWinRectangle@@UAE@XZ  00567080 f i SimpleWindow.obj
 0001:00166090       ??1idWinVec2@@UAE@XZ       00567090 f i SimpleWindow.obj
 0001:001660a0       ??4idWinVar@@QAEAAV0@ABV0@@Z 005670a0 f i SimpleWindow.obj
 0001:00166100       ??_EidSimpleWindow@@UAEPAXI@Z 00567100 f i SimpleWindow.obj
 0001:00166100       ??_GidSimpleWindow@@UAEPAXI@Z 00567100 f i SimpleWindow.obj
 0001:001662b0       ??_EidWinBackground@@UAEPAXI@Z 005672b0 f i SimpleWindow.obj
 0001:001662b0       ??_GidWinBackground@@UAEPAXI@Z 005672b0 f i SimpleWindow.obj
 0001:00166330       ??_EidWinFloat@@UAEPAXI@Z  00567330 f i SimpleWindow.obj
 0001:00166330       ??_GidWinFloat@@UAEPAXI@Z  00567330 f i SimpleWindow.obj
 0001:00166360       ??_EidWinRectangle@@UAEPAXI@Z 00567360 f i SimpleWindow.obj
 0001:00166360       ??_GidWinRectangle@@UAEPAXI@Z 00567360 f i SimpleWindow.obj
 0001:00166390       ??_EidWinVec2@@UAEPAXI@Z   00567390 f i SimpleWindow.obj
 0001:00166390       ??_GidWinVec2@@UAEPAXI@Z   00567390 f i SimpleWindow.obj
 0001:001663c0       ?CalcClientRect@idSimpleWindow@@IAEXMM@Z 005673c0 f   SimpleWindow.obj
 0001:001665b0       ?GetWinVarByName@idSimpleWindow@@QAEPAVidWinVar@@PBD@Z 005675b0 f   SimpleWindow.obj
 0001:001666f0       ?GetWinVarOffset@idSimpleWindow@@QAEHPAVidWinVar@@PAUdrawWin_t@@@Z 005676f0 f   SimpleWindow.obj
 0001:001667a0       ?Init@idWinBackground@@UAEXPBDPAVidWindow@@@Z 005677a0 f i SimpleWindow.obj
 0001:00166880       ?Init@idWinFloat@@UAEXPBDPAVidWindow@@@Z 00567880 f i SimpleWindow.obj
 0001:00166900       ?Init@idWinVec2@@UAEXPBDPAVidWindow@@@Z 00567900 f i SimpleWindow.obj
 0001:00166970       ?ReadFromSaveGame@idSimpleWindow@@UAEXPAVidFile@@@Z 00567970 f   SimpleWindow.obj
 0001:00166be0       ?ReadFromSaveGame@idWinBackground@@UAEXPAVidFile@@@Z 00567be0 f i SimpleWindow.obj
 0001:00166c90       ?ReadFromSaveGame@idWinFloat@@UAEXPAVidFile@@@Z 00567c90 f i SimpleWindow.obj
 0001:00166c90       ?ReadFromSaveGame@idWinInt@@UAEXPAVidFile@@@Z 00567c90 f i Window.obj
 0001:00166cc0       ?ReadFromSaveGame@idWinVec2@@UAEXPAVidFile@@@Z 00567cc0 f i SimpleWindow.obj
 0001:00166cf0       ?Redraw@idSimpleWindow@@QAEXMM@Z 00567cf0 f   SimpleWindow.obj
 0001:00167160       ?Set@idWinBackground@@UAEXPBD@Z 00568160 f i SimpleWindow.obj
 0001:001671f0       ?Set@idWinFloat@@UAEXPBD@Z 005681f0 f i SimpleWindow.obj
 0001:00167260       ?Set@idWinRectangle@@UAEXPBD@Z 00568260 f i SimpleWindow.obj
 0001:00167300       ?Set@idWinVec2@@UAEXPBD@Z  00568300 f i SimpleWindow.obj
 0001:00167380       ?SetupTransforms@idSimpleWindow@@IAEXMM@Z 00568380 f   SimpleWindow.obj
 0001:00167a20       ?Size@idSimpleWindow@@QAEIXZ 00568a20 f   SimpleWindow.obj
 0001:00167a60       ?Size@idWinBackground@@UAEIXZ 00568a60 f i SimpleWindow.obj
 0001:00167aa0       ?StateChanged@idSimpleWindow@@QAEX_N@Z 00568aa0 f   SimpleWindow.obj
 0001:00167ae0       ?Update@idWinBackground@@UAEXXZ 00568ae0 f i SimpleWindow.obj
 0001:00167b90       ?Update@idWinFloat@@UAEXXZ 00568b90 f i SimpleWindow.obj
 0001:00167c10       ?Update@idWinRectangle@@UAEXXZ 00568c10 f i SimpleWindow.obj
 0001:00167c80       ?Update@idWinVec2@@UAEXXZ  00568c80 f i SimpleWindow.obj
 0001:00167cf0       ?WriteToSaveGame@idSimpleWindow@@UAEXPAVidFile@@@Z 00568cf0 f   SimpleWindow.obj
 0001:00167ee0       ?WriteToSaveGame@idWinBackground@@UAEXPAVidFile@@@Z 00568ee0 f i SimpleWindow.obj
 0001:00167f30       ?WriteToSaveGame@idWinFloat@@UAEXPAVidFile@@@Z 00568f30 f i SimpleWindow.obj
 0001:00167f30       ?WriteToSaveGame@idWinInt@@UAEXPAVidFile@@@Z 00568f30 f i Window.obj
 0001:00167f60       ?WriteToSaveGame@idWinVec2@@UAEXPAVidFile@@@Z 00568f60 f i SimpleWindow.obj
 0001:00167f90       ?c_str@idWinFloat@@UBEPBDXZ 00568f90 f i SimpleWindow.obj
 0001:00167fb0       ?c_str@idWinVec2@@UBEPBDXZ 00568fb0 f i SimpleWindow.obj
 0001:00167fc0       ??0idSliderWindow@@QAE@PAVidDeviceContext@@PAVidUserInterfaceLocal@@@Z 00568fc0 f   SliderWindow.obj
 0001:00168120       ??4idWinFloat@@QAEAAMABM@Z 00569120 f i SliderWindow.obj
 0001:00168190       ??_EidSliderWindow@@UAEPAXI@Z 00569190 f i SliderWindow.obj
 0001:00168190       ??_GidSliderWindow@@UAEPAXI@Z 00569190 f i SliderWindow.obj
 0001:00168270       ?Activate@idSliderWindow@@UAEX_NAAVidStr@@@Z 00569270 f   SliderWindow.obj
 0001:00168320       ?CommonInit@idSliderWindow@@AAEXXZ 00569320 f   SliderWindow.obj
 0001:00168410       ?Draw@idSliderWindow@@UAEXHMM@Z 00569410 f   SliderWindow.obj
 0001:001687b0       ?DrawBackground@idSliderWindow@@UAEXABVidRectangle@@@Z 005697b0 f   SliderWindow.obj
 0001:00168890       ?GetFloat@idDict@@QBEMPBD0@Z 00569890 f i SliderWindow.obj
 0001:001688d0       ?GetWinVarByName@idSliderWindow@@UAEPAVidWinVar@@PBD_NPAPAUdrawWin_t@@@Z 005698d0 f   SliderWindow.obj
 0001:00168970       ?HandleEvent@idSliderWindow@@UAEPBDPBUsysEvent_s@@PA_N@Z 00569970 f   SliderWindow.obj
 0001:00168b20       ?InitWithDefaults@idSliderWindow@@QAEXPBDABVidRectangle@@ABVidVec4@@200_N3@Z 00569b20 f   SliderWindow.obj
 0001:00168cf0       ?ParseInternalVar@idSliderWindow@@EAE_NPBDPAVidParser@@@Z 00569cf0 f   SliderWindow.obj
 0001:00168e50       ?PostParse@idSliderWindow@@UAEXXZ 00569e50 f   SliderWindow.obj
 0001:00168f80       ?RouteMouseCoords@idSliderWindow@@UAEPBDMM@Z 00569f80 f   SliderWindow.obj
 0001:00169240       ?RunNamedEvent@idSliderWindow@@UAEXPBD@Z 0056a240 f   SliderWindow.obj
 0001:00169410       ?SetBuddy@idSliderWindow@@UAEXPAVidWindow@@@Z 0056a410 f   SliderWindow.obj
 0001:00169420       ?SetRange@idSliderWindow@@QAEXMMM@Z 0056a420 f   SliderWindow.obj
 0001:00169450       ?SetValue@idSliderWindow@@QAEXM@Z 0056a450 f   SliderWindow.obj
 0001:00169470       ?UpdateCvar@idSliderWindow@@AAEX_N0@Z 0056a470 f   SliderWindow.obj
 0001:00169580       ?Init@idUserInterfaceManagerLocal@@UAEXXZ 0056a580 f   UserInterface.obj
 0001:001695b0       ?Shutdown@idUserInterfaceManagerLocal@@UAEXXZ 0056a5b0 f   UserInterface.obj
 0001:001695e0       ?Touch@idUserInterfaceManagerLocal@@UAEXPBD@Z 0056a5e0 f   UserInterface.obj
 0001:00169600       ?WritePrecacheCommands@idUserInterfaceManagerLocal@@UAEXPAVidFile@@@Z 0056a600 f   UserInterface.obj
 0001:00169680       ?SetSize@idUserInterfaceManagerLocal@@UAEXMM@Z 0056a680 f   UserInterface.obj
 0001:001696b0       ?BeginLevelLoad@idUserInterfaceManagerLocal@@UAEXXZ 0056a6b0 f   UserInterface.obj
 0001:001696f0       ?EndLevelLoad@idUserInterfaceManagerLocal@@UAEXXZ 0056a6f0 f   UserInterface.obj
 0001:001697d0       ?Reload@idUserInterfaceManagerLocal@@UAEX_N@Z 0056a7d0 f   UserInterface.obj
 0001:00169880       ?ListGuis@idUserInterfaceManagerLocal@@UBEXXZ 0056a880 f   UserInterface.obj
 0001:00169a30       ?CheckGui@idUserInterfaceManagerLocal@@UBE_NPBD@Z 0056aa30 f   UserInterface.obj
 0001:00169a60       ?Alloc@idUserInterfaceManagerLocal@@UBEPAVidUserInterface@@XZ 0056aa60 f   UserInterface.obj
 0001:00169c60       ?DeAlloc@idUserInterfaceManagerLocal@@UAEXPAVidUserInterface@@@Z 0056ac60 f   UserInterface.obj
 0001:00169ce0       ?FindGui@idUserInterfaceManagerLocal@@UAEPAVidUserInterface@@PBD_N11@Z 0056ace0 f   UserInterface.obj
 0001:00169dc0       ?FindDemoGui@idUserInterfaceManagerLocal@@UAEPAVidUserInterface@@PBD@Z 0056adc0 f   UserInterface.obj
 0001:00169e20       ?AllocListGUI@idUserInterfaceManagerLocal@@UBEPAVidListGUI@@XZ 0056ae20 f   UserInterface.obj
 0001:00169eb0       ??_EidUserInterfaceManagerLocal@@UAEPAXI@Z 0056aeb0 f i UserInterface.obj
 0001:00169eb0       ??_GidUserInterfaceManagerLocal@@UAEPAXI@Z 0056aeb0 f i UserInterface.obj
 0001:00169ee0       ??_EidUserInterfaceManager@@UAEPAXI@Z 0056aee0 f i UserInterface.obj
 0001:00169ee0       ??_GidUserInterfaceManager@@UAEPAXI@Z 0056aee0 f i UserInterface.obj
 0001:00169f10       ??1idUserInterface@@UAE@XZ 0056af10 f i UserInterface.obj
 0001:00169f50       ??1idUserInterfaceManager@@UAE@XZ 0056af50 f i UserInterface.obj
 0001:00169f60       ??1idUserInterfaceManagerLocal@@UAE@XZ 0056af60 f i UserInterface.obj
 0001:0016a050       ??4idWinVec4@@QAEAAVidVec4@@ABV1@@Z 0056b050 f i UserInterface.obj
 0001:0016a0b0       ??_EidListGUI@@UAEPAXI@Z   0056b0b0 f i UserInterface.obj
 0001:0016a0b0       ??_GidListGUI@@UAEPAXI@Z   0056b0b0 f i UserInterface.obj
 0001:0016a0e0       ??_EidListGUILocal@@UAEPAXI@Z 0056b0e0 f i UserInterface.obj
 0001:0016a0e0       ??_GidListGUILocal@@UAEPAXI@Z 0056b0e0 f i UserInterface.obj
 0001:0016a1b0       ??_EidUserInterface@@UAEPAXI@Z 0056b1b0 f i UserInterface.obj
 0001:0016a1b0       ??_GidUserInterface@@UAEPAXI@Z 0056b1b0 f i UserInterface.obj
 0001:0016a210       ??_EidUserInterfaceLocal@@UAEPAXI@Z 0056b210 f i UserInterface.obj
 0001:0016a210       ??_GidUserInterfaceLocal@@UAEPAXI@Z 0056b210 f i UserInterface.obj
 0001:0016a320       ?Activate@idUserInterfaceLocal@@UAEPBD_NH@Z 0056b320 f   UserInterface.obj
 0001:0016a380       ?Active@idUserInterfaceLocal@@UBE_NXZ 0056b380 f i UserInterface.obj
 0001:0016a390       ?BeginMultiselectBox@idUserInterfaceLocal@@UAEXXZ 0056b390 f   UserInterface.obj
 0001:0016a490       ?ClearFocusWindow@idUserInterfaceLocal@@UAEXXZ 0056b490 f   UserInterface.obj
 0001:0016a4b0       ?Comment@idUserInterfaceLocal@@UBEPBDXZ 0056b4b0 f   UserInterface.obj
 0001:0016a4d0       ?Config@idListGUILocal@@UAEXPAVidUserInterface@@PBD@Z 0056b4d0 f i UserInterface.obj
 0001:0016a4f0       ?CursorX@idUserInterfaceLocal@@UAEMXZ 0056b4f0 f i UserInterface.obj
 0001:0016a500       ?CursorY@idUserInterfaceLocal@@UAEMXZ 0056b500 f i UserInterface.obj
 0001:0016a510       ?DeleteStateVar@idUserInterfaceLocal@@UAEXPBD@Z 0056b510 f   UserInterface.obj
 0001:0016a520       ?DrawCursor@idUserInterfaceLocal@@UAEXXZ 0056b520 f   UserInterface.obj
 0001:0016a570       ?EndMultiselectBox@idUserInterfaceLocal@@UAEXXZ 0056b570 f   UserInterface.obj
 0001:0016a690       ?GetStateBool@idUserInterfaceLocal@@UBE_NPBD0@Z 0056b690 f   UserInterface.obj
 0001:0016a6d0       ?GetStateFloat@idUserInterfaceLocal@@UBEMPBD0@Z 0056b6d0 f   UserInterface.obj
 0001:0016a720       ?GetStateInt@idUserInterfaceLocal@@UBEHPBD0@Z 0056b720 f   UserInterface.obj
 0001:0016a760       ?GetStateString@idUserInterfaceLocal@@UBEPBDPBD0@Z 0056b760 f   UserInterface.obj
 0001:0016a780       ?GetTime@idUserInterfaceLocal@@UBEHXZ 0056b780 f i UserInterface.obj
 0001:0016a790       ?GetTooltipText@idUserInterfaceLocal@@UAEXPAVidWindow@@@Z 0056b790 f   UserInterface.obj
 0001:0016a880       ?HandleEvent@idUserInterfaceLocal@@UAEPBDPBUsysEvent_s@@HPA_N@Z 0056b880 f   UserInterface.obj
 0001:0016a9f0       ?HandleNamedEvent@idUserInterfaceLocal@@UAEXPBD@Z 0056b9f0 f   UserInterface.obj
 0001:0016aa00       ?HasEditWindowAsFocus@idUserInterfaceLocal@@UAE_NXZ 0056ba00 f   UserInterface.obj
 0001:0016aa40       ?InitFromFile@idUserInterfaceLocal@@UAE_NPBD_N1@Z 0056ba40 f   UserInterface.obj
 0001:0016aee0       ?IsInteractive@idUserInterfaceLocal@@UBE_NXZ 0056bee0 f   UserInterface.obj
 0001:0016aef0       ?IsUniqued@idUserInterfaceLocal@@UBE_NXZ 0056bef0 f i UserInterface.obj
 0001:0016af00       ?LoopThroughChildrenAndRunScript@idUserInterfaceLocal@@UAEXPAVidWindow@@@Z 0056bf00 f   UserInterface.obj
 0001:0016b0e0       ?Name@idUserInterfaceLocal@@UBEPBDXZ 0056c0e0 f   UserInterface.obj
 0001:0016b0f0       ?ReadFromDemoFile@idUserInterfaceLocal@@UAEXPAVidDemoFile@@@Z 0056c0f0 f   UserInterface.obj
 0001:0016b250       ?ReadFromSaveGame@idUserInterfaceLocal@@UAE_NPAVidFile@@@Z 0056c250 f   UserInterface.obj
 0001:0016b580       ?RecurseSetKeyBindingNames@idUserInterfaceLocal@@QAEXPAVidWindow@@@Z 0056c580 f   UserInterface.obj
 0001:0016b660       ?Redraw@idUserInterfaceLocal@@UAEXH@Z 0056c660 f   UserInterface.obj
 0001:0016b6d0       ?ScrollListGUIToBottom@idUserInterfaceLocal@@UAEXVidStr@@@Z 0056c6d0 f   UserInterface.obj
 0001:0016b790       ?ScrollListGUIToTop@idUserInterfaceLocal@@UAEXVidStr@@@Z 0056c790 f   UserInterface.obj
 0001:0016b850       ?SetCursor@idUserInterfaceLocal@@UAEXMM@Z 0056c850 f   UserInterface.obj
 0001:0016b870       ?SetCursorImage@idUserInterfaceLocal@@UAEXH@Z 0056c870 f   UserInterface.obj
 0001:0016b880       ?SetKeyBindingNames@idUserInterfaceLocal@@UAEXXZ 0056c880 f   UserInterface.obj
 0001:0016b8a0       ?SetStateBool@idUserInterfaceLocal@@UAEXPBD_N@Z 0056c8a0 f   UserInterface.obj
 0001:0016b8d0       ?SetStateFloat@idUserInterfaceLocal@@UAEXPBDM@Z 0056c8d0 f   UserInterface.obj
 0001:0016b910       ?SetStateInt@idUserInterfaceLocal@@UAEXPBDH@Z 0056c910 f   UserInterface.obj
 0001:0016b940       ?SetStateString@idUserInterfaceLocal@@UAEXPBD0@Z 0056c940 f   UserInterface.obj
 0001:0016b950       ?SetUniqued@idUserInterfaceLocal@@UAEX_N@Z 0056c950 f i UserInterface.obj
 0001:0016b960       ?State@idUserInterfaceLocal@@UBEABVidDict@@XZ 0056c960 f   UserInterface.obj
 0001:0016b970       ?StateChanged@idUserInterfaceLocal@@UAEXH_N@Z 0056c970 f   UserInterface.obj
 0001:0016b9e0       ?Trigger@idUserInterfaceLocal@@UAEXH@Z 0056c9e0 f   UserInterface.obj
 0001:0016ba00       ?UpdateTooltip@idUserInterfaceLocal@@UAEXXZ 0056ca00 f   UserInterface.obj
 0001:0016bc00       ?WriteToDemoFile@idUserInterfaceLocal@@UAEXPAVidDemoFile@@@Z 0056cc00 f   UserInterface.obj
 0001:0016bcb0       ?WriteToSaveGame@idUserInterfaceLocal@@UBE_NPAVidFile@@@Z 0056ccb0 f   UserInterface.obj
 0001:0016be90       ??0idRegisterList@@QAE@XZ  0056ce90 f i Window.obj
 0001:0016bfb0       ??0idTransitionData@@QAE@XZ 0056cfb0 f i Window.obj
 0001:0016c020       ??0idWinStr@@QAE@XZ        0056d020 f i Window.obj
 0001:0016c050       ??0idWindow@@QAE@PAVidDeviceContext@@PAVidUserInterfaceLocal@@@Z 0056d050 f   Window.obj
 0001:0016c520       ??0idWindow@@QAE@PAVidUserInterfaceLocal@@@Z 0056d520 f   Window.obj
 0001:0016c9f0       ??0rvNamedEvent@@QAE@PBD@Z 0056d9f0 f i Window.obj
 0001:0016caa0       ??1idWindow@@UAE@XZ        0056daa0 f   Window.obj
 0001:0016ce80       ??4idWinBackground@@QAEAAVidStr@@ABV1@@Z 0056de80 f i Window.obj
 0001:0016cf40       ??4idWinRectangle@@QAEAAVidRectangle@@ABVidVec4@@@Z 0056df40 f i Window.obj
 0001:0016cfd0       ??_GidGuiScriptList@@QAEPAXI@Z 0056dfd0 f i Window.obj
 0001:0016d070       ??_EidWinInt@@UAEPAXI@Z    0056e070 f i Window.obj
 0001:0016d070       ??_GidWinInt@@UAEPAXI@Z    0056e070 f i Window.obj
 0001:0016d0a0       ??_EidWindow@@UAEPAXI@Z    0056e0a0 f i Window.obj
 0001:0016d0a0       ??_GidWindow@@UAEPAXI@Z    0056e0a0 f i Window.obj
 0001:0016d0d0       ?Activate@idWindow@@UAEX_NAAVidStr@@@Z 0056e0d0 f   Window.obj
 0001:0016d190       ?AddCommand@idWindow@@QAEXPBD@Z 0056e190 f   Window.obj
 0001:0016d2d0       ?AddTransition@idWindow@@QAEXPAVidWinVar@@VidVec4@@1HMM@Z 0056e2d0 f   Window.obj
 0001:0016d360       ?AddUpdateVar@idWindow@@QAEXPAVidWinVar@@@Z 0056e360 f   Window.obj
 0001:0016d3c0       ?Allocated@idWindow@@UAEIXZ 0056e3c0 f   Window.obj
 0001:0016d560       ?Append@?$idList@UidTransitionData@@@@QAEHABUidTransitionData@@@Z 0056e560 f i Window.obj
 0001:0016d5d0       ?ArchiveToDictionary@idWindow@@UAEXPAVidDict@@_N@Z 0056e5d0 f   Window.obj
 0001:0016d610       ?CalcClientRect@idWindow@@QAEXMM@Z 0056e610 f   Window.obj
 0001:0016d860       ?CalcRects@idWindow@@QAEXMM@Z 0056e860 f   Window.obj
 0001:0016d960       ?CleanUp@idWindow@@QAEXXZ  0056e960 f   Window.obj
 0001:0016dbe0       ?ClientToScreen@idWindow@@QAEXPAVidRectangle@@@Z 0056ebe0 f   Window.obj
 0001:0016dc70       ?CommonInit@idWindow@@QAEXXZ 0056ec70 f   Window.obj
 0001:0016e040       ?Contains@idWindow@@QAE_NABVidRectangle@@MM@Z 0056f040 f   Window.obj
 0001:0016e0d0       ?Contains@idWindow@@QAE_NMM@Z 0056f0d0 f   Window.obj
 0001:0016e140       ?DebugDraw@idWindow@@QAEXHMM@Z 0056f140 f   Window.obj
 0001:0016e490       ?DeleteContents@?$idList@PAVrvNamedEvent@@@@QAEX_N@Z 0056f490 f i Window.obj
 0001:0016e570       ?Draw@idWindow@@UAEXHMM@Z  0056f570 f   Window.obj
 0001:0016e890       ?DrawBackground@idWindow@@UAEXABVidRectangle@@@Z 0056f890 f   Window.obj
 0001:0016e9c0       ?EmitOp@idWindow@@IAEHHHW4wexpOpType_t@@PAPAUwexpOp_t@@@Z 0056f9c0 f   Window.obj
 0001:0016eae0       ?EvalRegs@idWindow@@QAEMH_N@Z 0056fae0 f   Window.obj
 0001:0016eb60       ?EvaluateRegisters@idWindow@@IAEXPAM@Z 0056fb60 f   Window.obj
 0001:0016f0d0       ?ExpressionConstant@idWindow@@QAEHM@Z 005700d0 f   Window.obj
 0001:0016f1d0       ?FindChildByName@idWindow@@QAEPAUdrawWin_t@@PBD@Z 005701d0 f   Window.obj
 0001:0016f290       ?FixupParms@idWindow@@QAEXXZ 00570290 f   Window.obj
 0001:0016f3b0       ?FixupTransitions@idWindow@@QAEXXZ 005703b0 f   Window.obj
 0001:0016f650       ?GetCaptureChild@idWindow@@QAEPAV1@XZ 00570650 f   Window.obj
 0001:0016f670       ?GetChild@idWindow@@QAEPAV1@H@Z 00570670 f   Window.obj
 0001:0016f680       ?GetChildCount@idWindow@@QAEHXZ 00570680 f   Window.obj
 0001:0016f690       ?GetCurrentValue@?$idExtrapolate@VidVec4@@@@QBE?AVidVec4@@H@Z 00570690 f i Window.obj
 0001:0016fa90       ?GetFocusedChild@idWindow@@QAEPAV1@XZ 00570a90 f   Window.obj
 0001:0016fab0       ?GetMaxCharHeight@idWindow@@QAEMXZ 00570ab0 f   Window.obj
 0001:0016fb00       ?GetMaxCharWidth@idWindow@@QAEMXZ 00570b00 f   Window.obj
 0001:0016fb50       ?GetWinVarByName@idWindow@@UAEPAVidWinVar@@PBD_NPAPAUdrawWin_t@@@Z 00570b50 f   Window.obj
 0001:001700b0       ?GetWinVarOffset@idWindow@@QAEHPAVidWinVar@@PAUdrawWin_t@@@Z 005710b0 f   Window.obj
 0001:001701c0       ?HandleEvent@idWindow@@UAEPBDPBUsysEvent_s@@PA_N@Z 005711c0 f   Window.obj
 0001:00170f00       ?Init@?$idInterpolateAccelDecelLinear@VidVec4@@@@QAEXHHHHABVidVec4@@0@Z 00571f00 f i Window.obj
 0001:00171080       ?Init@idWinInt@@UAEXPBDPAVidWindow@@@Z 00572080 f i Window.obj
 0001:00171100       ?InitFromDictionary@idWindow@@UAEXPAVidDict@@_N@Z 00572100 f   Window.obj
 0001:00171140       ?InsertChild@idWindow@@QAE_NPAV1@0@Z 00572140 f   Window.obj
 0001:00171290       ?Interactive@idWindow@@QAE_NXZ 00572290 f   Window.obj
 0001:001712e0       ?LoseCapture@idWindow@@UAEXXZ 005722e0 f   Window.obj
 0001:001712f0       ?MouseEnter@idWindow@@UAEXXZ 005722f0 f   Window.obj
 0001:00171310       ?MouseExit@idWindow@@UAEXXZ 00572310 f   Window.obj
 0001:00171330       ?NumTransitions@idWindow@@QAEHXZ 00572330 f   Window.obj
 0001:00171370       ?Parse@idWindow@@UAE_NPAVidParser@@_N@Z 00572370 f   Window.obj
 0001:00172850       ?ParseExpression@idWindow@@QAEHPAVidParser@@PAVidWinVar@@H@Z 00573850 f   Window.obj
 0001:00172870       ?ParseExpressionPriority@idWindow@@IAEHPAVidParser@@HPAVidWinVar@@H@Z 00573870 f   Window.obj
 0001:00172c60       ?ParseInternalVar@idWindow@@MAE_NPBDPAVidParser@@@Z 00573c60 f   Window.obj
 0001:00173310       ?ParseRegEntry@idWindow@@IAE_NPBDPAVidParser@@@Z 00574310 f   Window.obj
 0001:001736c0       ?ParseScript@idWindow@@QAE_NPAVidParser@@AAVidGuiScriptList@@PAH_N@Z 005746c0 f   Window.obj
 0001:00173a50       ?ParseString@idWindow@@IAEXPAVidParser@@AAVidStr@@@Z 00574a50 f   Window.obj
 0001:00173af0       ?ParseTerm@idWindow@@IAEHPAVidParser@@PAVidWinVar@@H@Z 00574af0 f   Window.obj
 0001:00173e90       ?ParseVec4@idWindow@@IAEXPAVidParser@@AAVidVec4@@@Z 00574e90 f   Window.obj
 0001:00173f80       ?ReadFromSaveGame@idWindow@@UAEXPAVidFile@@@Z 00574f80 f   Window.obj
 0001:001747b0       ?ReadSaveGameString@idWindow@@QAEXAAVidStr@@PAVidFile@@@Z 005757b0 f   Window.obj
 0001:00174830       ?Redraw@idWindow@@UAEXMM@Z 00575830 f   Window.obj
 0001:00174ea0       ?ResetCinematics@idWindow@@QAEXXZ 00575ea0 f   Window.obj
 0001:00174ed0       ?ResetTime@idWindow@@QAEXH@Z 00575ed0 f   Window.obj
 0001:00175010       ?Resize@?$idList@UidTransitionData@@@@QAEXH@Z 00576010 f i Window.obj
 0001:00175150       ?RouteMouseCoords@idWindow@@UAEPBDMM@Z 00576150 f   Window.obj
 0001:00175460       ?RunNamedEvent@idWindow@@UAEXPBD@Z 00576460 f   Window.obj
 0001:00175550       ?RunScript@idWindow@@QAE_NH@Z 00576550 f   Window.obj
 0001:00175580       ?RunScriptList@idWindow@@QAE_NPAVidGuiScriptList@@@Z 00576580 f   Window.obj
 0001:001755a0       ?RunTimeEvents@idWindow@@IAE_NH@Z 005765a0 f   Window.obj
 0001:00175660       ?ScreenToClient@idWindow@@QAEXPAVidRectangle@@@Z 00576660 f   Window.obj
 0001:001756f0       ?Set@idWinInt@@UAEXPBD@Z   005766f0 f i Window.obj
 0001:00175760       ?SetCapture@idWindow@@QAEPAV1@PAV1@@Z 00576760 f   Window.obj
 0001:001757d0       ?SetChildWinVarVal@idWindow@@QAEXPBD00@Z 005767d0 f   Window.obj
 0001:00175820       ?SetDC@idWindow@@QAEXPAVidDeviceContext@@@Z 00576820 f   Window.obj
 0001:00175880       ?SetFocus@idWindow@@QAEPAV1@PAV1@_N@Z 00576880 f   Window.obj
 0001:001758e0       ?SetFont@idWindow@@QAEXXZ  005768e0 f   Window.obj
 0001:00175900       ?SetInitialState@idWindow@@QAEXPBD@Z 00576900 f   Window.obj
 0001:00175970       ?SetName@idWinVar@@QAEXPBD@Z 00576970 f i Window.obj
 0001:001759d0       ?SetPhase@?$idInterpolateAccelDecelLinear@VidVec4@@@@ABEXH@Z 005769d0 f i Window.obj
 0001:00175bb0       ?SetupFromState@idWindow@@QAEXXZ 00576bb0 f   Window.obj
 0001:00175d70       ?SetupTransforms@idWindow@@QAEXMM@Z 00576d70 f   Window.obj
 0001:00176370       ?Size@idGuiScriptList@@QAEIXZ 00577370 f i Window.obj
 0001:001763e0       ?Size@idWindow@@QAEIXZ     005773e0 f   Window.obj
 0001:00176430       ?StartTransition@idWindow@@QAEXXZ 00577430 f   Window.obj
 0001:00176440       ?StateChanged@idWindow@@UAEX_N@Z 00577440 f   Window.obj
 0001:00176540       ?Time@idWindow@@IAEXXZ     00577540 f   Window.obj
 0001:00176650       ?Transition@idWindow@@IAEXXZ 00577650 f   Window.obj
 0001:001768e0       ?Trigger@idWindow@@UAEXXZ  005778e0 f   Window.obj
 0001:00176930       ?Update@idWinInt@@UAEXXZ   00577930 f i Window.obj
 0001:001769b0       ?WriteSaveGameString@idWindow@@QAEXPBDPAVidFile@@@Z 005779b0 f   Window.obj
 0001:001769f0       ?WriteToSaveGame@idWindow@@UAEXPAVidFile@@@Z 005779f0 f   Window.obj
 0001:00177070       ?Zero@idWinVec4@@QAEXXZ    00578070 f i Window.obj
 0001:001770e0       ?c_str@idWinInt@@UBEPBDXZ  005780e0 f i Window.obj
 0001:00177100       ??0idWinVar@@QAE@XZ        00578100 f   Winvar.obj
 0001:00177120       ??1idWinVar@@UAE@XZ        00578120 f   Winvar.obj
 0001:00177140       ??_EidWinVar@@UAEPAXI@Z    00578140 f i Winvar.obj
 0001:00177140       ??_GidWinVar@@UAEPAXI@Z    00578140 f i Winvar.obj
 0001:00177180       ?Init@idWinVar@@UAEXPBDPAVidWindow@@@Z 00578180 f   Winvar.obj
 0001:00177300       ?SetGuiInfo@idMultiWinVar@@QAEXPAVidDict@@@Z 00578300 f   Winvar.obj
 0001:00177380       ?SetGuiInfo@idWinVar@@QAEXPAVidDict@@PBD@Z 00578380 f   Winvar.obj
 0001:001773e0       ?Update@idMultiWinVar@@QAEXXZ 005783e0 f   Winvar.obj
 0001:00177403       ??_M@YGXPAXIIP6EX0@Z@Z     00578403 f   libcmt:ehvecdtr.obj
 0001:00177488       ?__ArrayUnwind@@YGXPAXIIP6EX0@Z@Z 00578488 f   libcmt:ehvecdtr.obj
 0001:00177518       ??3@YAXPAXI@Z              00578518 f   libcmt:delete_scalar_size.obj
 0001:00177526       ??_V@YAXPAXI@Z             00578526 f   libcmt:delete_array_size.obj
 0001:00177540       __alloca_probe             00578540 f   libcmt:chkstk.obj
 0001:00177540       __chkstk                   00578540 f   libcmt:chkstk.obj
 0001:0017756b       ??_Etype_info@@UAEPAXI@Z   0057856b f i libcmt:std_type_info_static.obj
 0001:0017756b       ??_Gtype_info@@UAEPAXI@Z   0057856b f i libcmt:std_type_info_static.obj
 0001:0017758e       ??_V@YAXPAX@Z              0057858e f   libcmt:delete_array.obj
 0001:001775d7       ___scrt_acquire_startup_lock 005785d7 f   libcmt:utility.obj
 0001:00177609       ___scrt_initialize_crt     00578609 f   libcmt:utility.obj
 0001:00177642       ___scrt_initialize_onexit_tables 00578642 f   libcmt:utility.obj
 0001:001776c9       ___scrt_is_nonwritable_in_current_image 005786c9 f   libcmt:utility.obj
 0001:0017775d       ___scrt_release_startup_lock 0057875d f   libcmt:utility.obj
 0001:0017777a       ___scrt_uninitialize_crt   0057877a f   libcmt:utility.obj
 0001:001777a2       __onexit                   005787a2 f   libcmt:utility.obj
 0001:001777cf       _atexit                    005787cf f   libcmt:utility.obj
 0001:001777e4       ??2@YAPAXI@Z               005787e4 f   libcmt:new_scalar.obj
 0001:00177814       ??_L@YGXPAXIIP6EX0@Z1@Z    00578814 f   libcmt:ehvecctr.obj
 0001:00177888       ??_U@YAPAXI@Z              00578888 f   libcmt:new_array.obj
 0001:001778a0       __alloca_probe_16          005788a0 f   libcmt:alloca16.obj
 0001:001778b6       __alloca_probe_8           005788b6     libcmt:alloca16.obj
 0001:001778d0       __ftol2_sse                005788d0 f   libcmt:ftol2.obj
 0001:001778e0       __ftoi2                    005788e0 f   libcmt:ftol2.obj
 0001:0017795c       __Init_thread_footer       0057895c f   libcmt:thread_safe_statics.obj
 0001:001779ad       __Init_thread_header       005789ad f   libcmt:thread_safe_statics.obj
 0001:001779fc       __Init_thread_wait_v2      005789fc f   libcmt:thread_safe_statics.obj
 0001:00177a11       ___isa_available_init      00578a11 f   libcmt:cpu_disp.obj
 0001:00177bf0       __ftol3                    00578bf0 f   libcmt:ftol3.obj
 0001:00177c60       __dtol3                    00578c60 f   libcmt:ftol3.obj
 0001:00177d10       __ultod3                   00578d10 f   libcmt:ftol3.obj
 0001:00177d60       __ltod3                    00578d60 f   libcmt:ftol3.obj
 0001:00177db0       __allshr                   00578db0 f   libcmt:llshr.obj
 0001:00177de0       ___vdecl_floor2            00578de0 f   libcmt:svml_dfloor2_dispatch.obj
 0001:00177e00       __alldiv                   00578e00 f   libcmt:lldiv.obj
 0001:00177eb0       __allmul                   00578eb0 f   libcmt:llmul.obj
 0001:00177ef0       __aulldiv                  00578ef0 f   libcmt:ulldiv.obj
 0001:00177f58       ??3@YAXPAX@Z               00578f58 f   libcmt:delete_scalar.obj
 0001:0017819e       _WinMainCRTStartup         0057919e f   libcmt:exe_winmain.obj
 0001:001781b0       __SEH_prolog4              005791b0 f   libcmt:sehprolg4.obj
 0001:001781f5       __get_startup_argv_mode    005791f5 f   libcmt:argv_mode.obj
 0001:001781f9       ___scrt_is_ucrt_dll_in_use 005791f9 f   libcmt:ucrt_detection.obj
 0001:00178205       ___scrt_fastfail           00579205 f   libcmt:utility_desktop.obj
 0001:0017831a       ___scrt_get_show_window_mode 0057931a f   libcmt:utility_desktop.obj
 0001:0017834b       ___scrt_initialize_mta     0057934b f   libcmt:utility_desktop.obj
 0001:00178350       ___scrt_is_managed_app     00579350 f   libcmt:utility_desktop.obj
 0001:00178392       ___scrt_set_unhandled_exception_filter 00579392 f   libcmt:utility_desktop.obj
 0001:0017839e       ___scrt_unhandled_exception_filter@4 0057939e f   libcmt:utility_desktop.obj
 0001:001783f4       __crt_debugger_hook        005793f4 f   libcmt:utility_desktop.obj
 0001:001783fc       ??0bad_alloc@std@@QAE@XZ   005793fc f i libcmt:throw_bad_alloc.obj
 0001:00178414       ?__scrt_throw_std_bad_alloc@@YAXXZ 00579414 f   libcmt:throw_bad_alloc.obj
 0001:00178431       ?__scrt_throw_std_bad_array_new_length@@YAXXZ 00579431 f   libcmt:throw_bad_alloc.obj
 0001:00178450       ___sse2_floor2@@16         00579450 f   libcmt:svml_dfloor2_sse2.obj
 0001:001784a0       ___sse4_floor2@@16         005794a0 f   libcmt:svml_dfloor2_sse4.obj
 0001:001784f4       ___security_init_cookie    005794f4 f   libcmt:gs_support.obj
 0001:0017853f       __get_startup_file_mode    0057953f f   libcmt:file_mode.obj
 0001:00178545       ?__scrt_initialize_type_info@@YAXXZ 00579545 f   libcmt:tncleanup.obj
 0001:00178551       __initialize_default_precision 00579551 f   libcmt:default_precision.obj
 0001:00178572       ___scrt_initialize_default_local_stdio_options 00579572 f   libcmt:default_local_stdio_options.obj
 0001:0017858f       ___scrt_is_user_matherr_present 0057958f f   libcmt:matherr_detection.obj
 0001:0017859b       ___scrt_get_dyn_tls_init_callback 0057959b f   libcmt:dyn_tls_init.obj
 0001:001785a1       ___scrt_get_dyn_tls_dtor_callback 005795a1 f   libcmt:dyn_tls_dtor.obj
 0001:001785a7       __RTC_Initialize           005795a7 f   libcmt:initsect.obj
 0001:001785d3       __RTC_Terminate            005795d3 f   libcmt:initsect.obj
 0001:001785ff       @__security_check_cookie@4 005795ff f   libcmt:secchk.obj
 0001:0017860d       ___raise_securityfailure   0057960d f   libcmt:gs_report.obj
 0001:00178635       ___report_gsfailure        00579635 f   libcmt:gs_report.obj
 0001:0017872f       ___report_rangecheckfailure 0057972f f   libcmt:gs_report.obj
 0001:0017873b       ___report_securityfailure  0057973b f   libcmt:gs_report.obj
 0001:0017880a       _DirectInput8Create@20     0057980a f   dinput8:DINPUT8.dll
 0001:00178810       _DirectSoundCreate@12      00579810 f   dsound:DSOUND.dll
 0001:00178820       _curl_easy_init            00579820 f   CurlLib:easy.obj
 0001:001788a0       _curl_easy_perform         005798a0 f   CurlLib:easy.obj
 0001:00178910       _curl_easy_setopt          00579910 f   CurlLib:easy.obj
 0001:00178960       _Curl_cookie_add           00579960 f   CurlLib:cookie.obj
 0001:00179220       _Curl_cookie_cleanup       0057a220 f   CurlLib:cookie.obj
 0001:001792f0       _Curl_cookie_freelist      0057a2f0 f   CurlLib:cookie.obj
 0001:00179320       _Curl_cookie_getlist       0057a320 f   CurlLib:cookie.obj
 0001:00179460       _Curl_cookie_init          0057a460 f   CurlLib:cookie.obj
 0001:00179650       _Curl_hash_add             0057a650 f   CurlLib:hash.obj
 0001:001797b0       _Curl_hash_alloc           0057a7b0 f   CurlLib:hash.obj
 0001:00179860       _Curl_hash_clean_with_criterium 0057a860 f   CurlLib:hash.obj
 0001:001798c0       _Curl_hash_destroy         0057a8c0 f   CurlLib:hash.obj
 0001:00179900       _Curl_hash_init            0057a900 f   CurlLib:hash.obj
 0001:001799a0       _Curl_hash_pick            0057a9a0 f   CurlLib:hash.obj
 0001:00179aa0       _Curl_freednsinfo          0057aaa0 f   CurlLib:hostip.obj
 0001:00179ac0       _Curl_global_host_cache_get 0057aac0 f   CurlLib:hostip.obj
 0001:00179ad0       _Curl_global_host_cache_init 0057aad0 f   CurlLib:hostip.obj
 0001:00179b00       _Curl_hostcache_prune      0057ab00 f   CurlLib:hostip.obj
 0001:00179b70       _Curl_resolv               0057ab70 f   CurlLib:hostip.obj
 0001:00179d00       _Curl_resolv_unlock        0057ad00 f   CurlLib:hostip.obj
 0001:00179d40       _Curl_wait_for_resolv      0057ad40 f   CurlLib:hostip.obj
 0001:0017a520       _Curl_Transfer             0057b520 f   CurlLib:transfer.obj
 0001:0017a5b0       _Curl_follow               0057b5b0 f   CurlLib:transfer.obj
 0001:0017a8f0       _Curl_perform              0057b8f0 f   CurlLib:transfer.obj
 0001:0017aba0       _Curl_readwrite            0057bba0 f   CurlLib:transfer.obj
 0001:0017c280       _Curl_readwrite_init       0057d280 f   CurlLib:transfer.obj
 0001:0017e190       _Curl_async_resolved       0057f190 f   CurlLib:url.obj
 0001:0017e1c0       _Curl_connect              0057f1c0 f   CurlLib:url.obj
 0001:0017e220       _Curl_disconnect           0057f220 f   CurlLib:url.obj
 0001:0017e460       _Curl_do                   0057f460 f   CurlLib:url.obj
 0001:0017e630       _Curl_done                 0057f630 f   CurlLib:url.obj
 0001:0017e6f0       _Curl_free_ssl_config      0057f6f0 f   CurlLib:url.obj
 0001:0017e750       _Curl_open                 0057f750 f   CurlLib:url.obj
 0001:0017e8c0       _Curl_safefree             0057f8c0 f   CurlLib:url.obj
 0001:0017e8e0       _Curl_setopt               0057f8e0 f   CurlLib:url.obj
 0001:0017fd70       _Curl_initinfo             00580d70 f   CurlLib:getinfo.obj
 0001:0017fdf0       _curl_strequal             00580df0 f   CurlLib:strequal.obj
 0001:0017fe10       _curl_strnequal            00580e10 f   CurlLib:strequal.obj
 0001:0017ffa0       _Curl_gd_parse             00580fa0 f   CurlLib:getdate.obj
 0001:00180d80       _curl_getdate              00581d80 f   CurlLib:getdate.obj
 0001:001811e0       _Curl_strtok_r             005821e0 f   CurlLib:strtok.obj
 0001:00181260       _Curl_client_write         00582260 f   CurlLib:sendf.obj
 0001:00181300       _Curl_debug                00582300 f   CurlLib:sendf.obj
 0001:00181370       _Curl_failf                00582370 f   CurlLib:sendf.obj
 0001:00181400       _Curl_infof                00582400 f   CurlLib:sendf.obj
 0001:001814b0       _Curl_read                 005824b0 f   CurlLib:sendf.obj
 0001:00181510       _Curl_sendf                00582510 f   CurlLib:sendf.obj
 0001:001815d0       _Curl_write                005825d0 f   CurlLib:sendf.obj
 0001:00181610       _curl_slist_append         00582610 f   CurlLib:sendf.obj
 0001:00181670       _curl_slist_free_all       00582670 f   CurlLib:sendf.obj
 0001:001816b0       _Curl_llist_alloc          005826b0 f   CurlLib:llist.obj
 0001:001816e0       _Curl_llist_destroy        005826e0 f   CurlLib:llist.obj
 0001:00181770       _Curl_llist_insert_next    00582770 f   CurlLib:llist.obj
 0001:001817e0       _Curl_llist_remove         005827e0 f   CurlLib:llist.obj
 0001:00181850       _Curl_share_lock           00582850 f   CurlLib:share.obj
 0001:00181890       _Curl_share_unlock         00582890 f   CurlLib:share.obj
 0001:00181970       _curl_maprintf             00582970 f   CurlLib:mprintf.obj
 0001:001819f0       _curl_mfprintf             005829f0 f   CurlLib:mprintf.obj
 0001:00181a10       _curl_msnprintf            00582a10 f   CurlLib:mprintf.obj
 0001:00181a70       _curl_msprintf             00582a70 f   CurlLib:mprintf.obj
 0001:00181aa0       _curl_mvaprintf            00582aa0 f   CurlLib:mprintf.obj
 0001:00181b20       _curl_mvsnprintf           00582b20 f   CurlLib:mprintf.obj
 0001:00182c80       _Curl_tvdiff               00583c80 f   CurlLib:timeval.obj
 0001:00182cb0       ?LongNoSwap@@YAHH@Z        00583cb0 f   idLib:Lib.obj
 0001:00182cb0       _Curl_tvlong               00583cb0 f   CurlLib:timeval.obj
 0001:00182cc0       _Curl_tvnow                00583cc0 f   CurlLib:timeval.obj
 0001:00182cf0       _Curl_speedcheck           00583cf0 f   CurlLib:speedcheck.obj
 0001:00182dc0       _Curl_speedinit            00583dc0 f   CurlLib:speedcheck.obj
 0001:00182dd0       _Curl_pgrsDone             00583dd0 f   CurlLib:progress.obj
 0001:00182e10       _Curl_pgrsResetTimes       00583e10 f   CurlLib:progress.obj
 0001:00182e30       _Curl_pgrsSetDownloadCounter 00583e30 f   CurlLib:progress.obj
 0001:00182e50       _Curl_pgrsSetDownloadSize  00583e50 f   CurlLib:progress.obj
 0001:00182e90       _Curl_pgrsSetUploadCounter 00583e90 f   CurlLib:progress.obj
 0001:00182eb0       _Curl_pgrsSetUploadSize    00583eb0 f   CurlLib:progress.obj
 0001:00182ef0       _Curl_pgrsStartNow         00583ef0 f   CurlLib:progress.obj
 0001:00182f20       _Curl_pgrsTime             00583f20 f   CurlLib:progress.obj
 0001:00183090       _Curl_pgrsUpdate           00584090 f   CurlLib:progress.obj
 0001:00183870       _Curl_ConnectHTTPProxyTunnel 00584870 f   CurlLib:http.obj
 0001:00183d60       _Curl_compareheader        00584d60 f   CurlLib:http.obj
 0001:00183e20       _Curl_http                 00584e20 f   CurlLib:http.obj
 0001:00184d70       _Curl_http_auth            00585d70 f   CurlLib:http.obj
 0001:00184ef0       _Curl_http_auth_act        00585ef0 f   CurlLib:http.obj
 0001:00184f80       _Curl_http_connect         00585f80 f   CurlLib:http.obj
 0001:00185010       _Curl_http_done            00586010 f   CurlLib:http.obj
 0001:00185720       _Curl_httpchunk_init       00586720 f   CurlLib:http_chunks.obj
 0001:00185740       _Curl_httpchunk_read       00586740 f   CurlLib:http_chunks.obj
 0001:00185900       _curl_getenv               00586900 f   CurlLib:getenv.obj
 0001:00185960       _curl_unescape             00586960 f   CurlLib:escape.obj
 0001:00185a50       _Curl_parsenetrc           00586a50 f   CurlLib:netrc.obj
 0001:00185cf0       _Curl_input_digest         00586cf0 f   CurlLib:http_digest.obj
 0001:00185f10       _Curl_output_digest        00586f10 f   CurlLib:http_digest.obj
 0001:00186230       _Curl_GetFTPResponse       00587230 f   CurlLib:ftp.obj
 0001:001866b0       _Curl_ftp                  005876b0 f   CurlLib:ftp.obj
 0001:001868d0       _Curl_ftp_connect          005878d0 f   CurlLib:ftp.obj
 0001:00186d00       _Curl_ftp_disconnect       00587d00 f   CurlLib:ftp.obj
 0001:00186dd0       _Curl_ftp_done             00587dd0 f   CurlLib:ftp.obj
 0001:00187020       _Curl_ftp_nextconnect      00588020 f   CurlLib:ftp.obj
 0001:00187930       _Curl_ftpsendf             00588930 f   CurlLib:ftp.obj
 0001:00188760       _Curl_dict                 00589760 f   CurlLib:dict.obj
 0001:001889d0       _Curl_telnet               005899d0 f   CurlLib:telnet.obj
 0001:00189080       _Curl_telnet_done          0058a080 f   CurlLib:telnet.obj
 0001:00189f20       _Curl_file                 0058af20 f   CurlLib:file.obj
 0001:0018a160       _Curl_file_connect         0058b160 f   CurlLib:file.obj
 0001:0018a220       _Curl_ldap                 0058b220 f   CurlLib:ldap.obj
 0001:0018a260       _Curl_connecthost          0058b260 f   CurlLib:connect.obj
 0001:0018a510       _Curl_nonblock             0058b510 f   CurlLib:connect.obj
 0001:0018a530       _Curl_ourerrno             0058b530 f   CurlLib:connect.obj
 0001:0018a8f0       _Curl_FormBoundary         0058b8f0 f   CurlLib:formdata.obj
 0001:0018a990       _Curl_FormInit             0058b990 f   CurlLib:formdata.obj
 0001:0018a9b0       _Curl_FormReadOneLine      0058b9b0 f   CurlLib:formdata.obj
 0001:0018aa50       _Curl_FormReader           0058ba50 f   CurlLib:formdata.obj
 0001:0018ab40       _Curl_formclean            0058bb40 f   CurlLib:formdata.obj
 0001:0018ab70       _Curl_getFormData          0058bb70 f   CurlLib:formdata.obj
 0001:0018b070       _Curl_base64_encode        0058c070 f   CurlLib:base64.obj
 0001:0018b1f0       _Curl_md5it                0058c1f0 f   CurlLib:md5.obj
 0001:0018bae0       ??4idStr@@QAEXPBD@Z        0058cae0 f   idLib:Str.obj
 0001:0018bb80       ?AllocInternal@?$idDynamicBlockAlloc@D$0EAAAA@$0IA@@@AAEPAV?$idDynamicBlock@D@@H@Z 0058cb80 f i idLib:Str.obj
 0001:0018bc80       ?Append@idStr@@QAEXPBDH@Z  0058cc80 f i idLib:Str.obj
 0001:0018bce0       ?Append@idStr@@SAXPADHPBD@Z 0058cce0 f   idLib:Str.obj
 0001:0018bd70       ?AppendPath@idStr@@QAEXPBD@Z 0058cd70 f   idLib:Str.obj
 0001:0018be00       ?BackSlashesToSlashes@idStr@@QAEAAV1@XZ 0058ce00 f   idLib:Str.obj
 0001:0018be30       ?BestUnit@idStr@@QAEHPBDMW4Measure_t@@@Z 0058ce30 f   idLib:Str.obj
 0001:0018bf30       ?Cmp@idStr@@SAHPBD0@Z      0058cf30 f   idLib:Str.obj
 0001:0018bf70       ?Cmpn@idStr@@QBEHPBDH@Z    0058cf70 f i idLib:Str.obj
 0001:0018bfc0       ?Cmpn@idStr@@SAHPBD0H@Z    0058cfc0 f   idLib:Str.obj
 0001:0018c000       ?ColorForIndex@idStr@@SAAAVidVec4@@H@Z 0058d000 f   idLib:Str.obj
 0001:0018c010       ?Copynz@idStr@@SAXPADPBDH@Z 0058d010 f   idLib:Str.obj
 0001:0018c070       ?DefaultFileExtension@idStr@@QAEAAV1@PBD@Z 0058d070 f   idLib:Str.obj
 0001:0018c110       ?EnsureAlloced@idStr@@IAEXH_N@Z 0058d110 f i idLib:Str.obj
 0001:0018c1f0       ?ExtractFileBase@idStr@@QBEXAAV1@@Z 0058d1f0 f   idLib:Str.obj
 0001:0018c290       ?ExtractFileExtension@idStr@@QBEXAAV1@@Z 0058d290 f   idLib:Str.obj
 0001:0018c320       ?ExtractFileName@idStr@@QBEXAAV1@@Z 0058d320 f   idLib:Str.obj
 0001:0018c390       ?ExtractFilePath@idStr@@QBEXAAV1@@Z 0058d390 f   idLib:Str.obj
 0001:0018c400       ?FileNameHash@idStr@@QBEHXZ 0058d400 f   idLib:Str.obj
 0001:0018c460       ?Filter@idStr@@SA_NPBD0_N@Z 0058d460 f   idLib:Str.obj
 0001:0018c890       ?FindChar@idStr@@SAHPBDDHH@Z 0058d890 f   idLib:Str.obj
 0001:0018c8d0       ?FindText@idStr@@SAHPBD0_NHH@Z 0058d8d0 f   idLib:Str.obj
 0001:0018c9a0       ?FloatArrayToString@idStr@@SAPBDPBMHH@Z 0058d9a0 f   idLib:Str.obj
 0001:0018cad0       ?FormatNumber@idStr@@SA?AV1@H@Z 0058dad0 f   idLib:Str.obj
 0001:0018cec0       ?FreeData@idStr@@QAEXXZ    0058dec0 f   idLib:Str.obj
 0001:0018cf00       ?HasUpper@idStr@@SA_NPBD@Z 0058df00 f   idLib:Str.obj
 0001:0018cf30       ?Icmp@idStr@@SAHPBD0@Z     0058df30 f   idLib:Str.obj
 0001:0018cf90       ?IcmpNoColor@idStr@@SAHPBD0@Z 0058df90 f   idLib:Str.obj
 0001:0018d020       ?IcmpPath@idStr@@SAHPBD0@Z 0058e020 f   idLib:Str.obj
 0001:0018d0e0       ?Icmpn@idStr@@SAHPBD0H@Z   0058e0e0 f   idLib:Str.obj
 0001:0018d140       ?IcmpnPath@idStr@@SAHPBD0H@Z 0058e140 f   idLib:Str.obj
 0001:0018d200       ?InitMemory@idStr@@SAXXZ   0058e200 f   idLib:Str.obj
 0001:0018d210       ?IsNumeric@idStr@@SA_NPBD@Z 0058e210 f   idLib:Str.obj
 0001:0018d270       ?LengthWithoutColors@idStr@@SAHPBD@Z 0058e270 f   idLib:Str.obj
 0001:0018d2c0       ?Mid@idStr@@QBE?AV1@HH@Z   0058e2c0 f   idLib:Str.obj
 0001:0018d350       ?Mid@idStr@@QBEPBDHHAAV1@@Z 0058e350 f   idLib:Str.obj
 0001:0018d3b0       ?ReAllocate@idStr@@QAEXH_N@Z 0058e3b0 f   idLib:Str.obj
 0001:0018d490       ?RemoveColors@idStr@@SAPADPAD@Z 0058e490 f   idLib:Str.obj
 0001:0018d4f0       ?Replace@idStr@@QAEXPBD0@Z 0058e4f0 f   idLib:Str.obj
 0001:0018d720       ?ResizeInternal@?$idDynamicBlockAlloc@D$0EAAAA@$0IA@@@AAEPAV?$idDynamicBlock@D@@PAV2@H@Z 0058e720 f i idLib:Str.obj
 0001:0018d850       ?SetFileExtension@idStr@@QAEAAV1@PBD@Z 0058e850 f   idLib:Str.obj
 0001:0018d8f0       ?ShowMemoryUsage_f@idStr@@SAXABVidCmdArgs@@@Z 0058e8f0 f   idLib:Str.obj
 0001:0018d950       ?ShutdownMemory@idStr@@SAXXZ 0058e950 f   idLib:Str.obj
 0001:0018d960       ?StripFileExtension@idStr@@QAEAAV1@XZ 0058e960 f   idLib:Str.obj
 0001:0018d990       ?StripFilename@idStr@@QAEAAV1@XZ 0058e990 f   idLib:Str.obj
 0001:0018d9d0       ?StripLeading@idStr@@QAEXD@Z 0058e9d0 f   idLib:Str.obj
 0001:0018da00       ?StripLeading@idStr@@QAEXPBD@Z 0058ea00 f   idLib:Str.obj
 0001:0018da60       ?StripPath@idStr@@QAEAAV1@XZ 0058ea60 f   idLib:Str.obj
 0001:0018db80       ?StripQuotes@idStr@@QAEAAV1@XZ 0058eb80 f   idLib:Str.obj
 0001:0018dbc0       ?StripTrailing@idStr@@QAEXD@Z 0058ebc0 f   idLib:Str.obj
 0001:0018dbf0       ?StripTrailing@idStr@@QAEXPBD@Z 0058ebf0 f   idLib:Str.obj
 0001:0018dc80       ?StripTrailingWhitespace@idStr@@QAEXXZ 0058ec80 f   idLib:Str.obj
 0001:0018dcb0       ?snPrintf@idStr@@SAHPADHPBDZZ 0058ecb0 f   idLib:Str.obj
 0001:0018dd80       ?sprintf@@YAHAAVidStr@@PBDZZ 0058ed80 f   idLib:Str.obj
 0001:0018de70       ?va@@YAPADPBDZZ            0058ee70 f   idLib:Str.obj
 0001:0018dec0       ?vsnPrintf@idStr@@SAHPADHPBD0@Z 0058eec0 f   idLib:Str.obj
 0001:0018df10       ?FromTransformedBounds@idBounds@@QAEXABV1@ABVidVec3@@ABVidMat3@@@Z 0058ef10 f   idLib:Bounds.obj
 0001:0018e140       ?LineIntersection@idBounds@@QBE_NABVidVec3@@0@Z 0058f140 f   idLib:Bounds.obj
 0001:0018e3c0       ?PlaneDistance@idBounds@@QBEMABVidPlane@@@Z 0058f3c0 f   idLib:Bounds.obj
 0001:0018e4e0       ?PlaneSide@idBounds@@QBEHABVidPlane@@M@Z 0058f4e0 f   idLib:Bounds.obj
 0001:0018e5f0       ?Init@idMath@@SAXXZ        0058f5f0 f   idLib:Math.obj
 0001:0018e680       ??0idMat6@@QAE@ABVidVec6@@00000@Z 0058f680 f i idLib:Matrix.obj
 0001:0018e710       ??1idMatX@@QAE@XZ          0058f710 f i idLib:Matrix.obj
 0001:0018e770       ??1idVecX@@QAE@XZ          0058f770 f i idLib:Matrix.obj
 0001:0018e7d0       ?InverseSelf@idMat3@@QAE_NXZ 0058f7d0 f   idLib:Matrix.obj
 0001:0018e9c0       ?Random@idMatX@@QAEXHHHMM@Z 0058f9c0 f i idLib:Matrix.obj
 0001:0018eb00       ?SetSize@idMatX@@QAEXHH@Z  0058fb00 f i idLib:Matrix.obj
 0001:0018eb80       ?SetSize@idVecX@@QAEXH@Z   0058fb80 f i idLib:Matrix.obj
 0001:0018ebf0       ?ToQuat@idMat3@@QBE?AVidQuat@@XZ 0058fbf0 f   idLib:Matrix.obj
 0001:0018ee80       ??1idHeap@@QAE@XZ          0058fe80 f   idLib:Heap.obj
 0001:0018eff0       ?AllocDefragBlock@idHeap@@QAEXXZ 0058fff0 f   idLib:Heap.obj
 0001:0018f050       ?AllocatePage@idHeap@@AAEPAUpage_s@1@I@Z 00590050 f   idLib:Heap.obj
 0001:0018f120       ?MediumAllocate@idHeap@@AAEPAXI@Z 00590120 f   idLib:Heap.obj
 0001:0018f310       ?MediumFree@idHeap@@AAEXPAX@Z 00590310 f   idLib:Heap.obj
 0001:0018f470       ?Mem_Alloc16@@YAPAXH@Z     00590470 f   idLib:Heap.obj
 0001:0018f520       ?Mem_Alloc@@YAPAXH@Z       00590520 f   idLib:Heap.obj
 0001:0018f6b0       ?Mem_ClearFrameStats@@YAXXZ 005906b0 f   idLib:Heap.obj
 0001:0018f710       ?Mem_ClearedAlloc@@YAPAXH@Z 00590710 f   idLib:Heap.obj
 0001:0018f740       ?Mem_CopyString@@YAPADPBD@Z 00590740 f   idLib:Heap.obj
 0001:0018f780       ?Mem_Free16@@YAXPAX@Z      00590780 f   idLib:Heap.obj
 0001:0018f7b0       ?Mem_Free@@YAXPAX@Z        005907b0 f   idLib:Heap.obj
 0001:0018f910       ?Mem_GetFrameStats@@YAXAAUmemoryStats_t@@0@Z 00590910 f   idLib:Heap.obj
 0001:0018f930       ?Mem_GetStats@@YAXAAUmemoryStats_t@@@Z 00590930 f   idLib:Heap.obj
 0001:0018f940       ?Mem_Init@@YAXXZ           00590940 f   idLib:Heap.obj
 0001:0018fa90       ?Mem_Shutdown@@YAXXZ       00590a90 f   idLib:Heap.obj
 0001:0018fac0       ?Msize@idHeap@@QAEIPAX@Z   00590ac0 f   idLib:Heap.obj
 0001:0018fb40       ?ToMat3@idAngles@@QBE?AVidMat3@@XZ 00590b40 f   idLib:Angles.obj
 0001:0018fcc0       ?ToQuat@idAngles@@QBE?AVidQuat@@XZ 00590cc0 f   idLib:Angles.obj
 0001:0018fe10       ?AddToConvexHull@idWinding@@QAEXPBV1@ABVidVec3@@M@Z 00590e10 f   idLib:Winding.obj
 0001:001901f0       ?BaseForPlane@idWinding@@QAEXABVidVec3@@M@Z 005911f0 f   idLib:Winding.obj
 0001:00190500       ?Clip@idWinding@@QAEPAV1@ABVidPlane@@M_N@Z 00591500 f   idLib:Winding.obj
 0001:001908e0       ?ClipInPlace@idWinding@@QAE_NABVidPlane@@M_N@Z 005918e0 f   idLib:Winding.obj
 0001:00190cc0       ?Copy@idWinding@@QBEPAV1@XZ 00591cc0 f   idLib:Winding.obj
 0001:00190d60       ?GetArea@idWinding@@QBEMXZ 00591d60 f   idLib:Winding.obj
 0001:00190ef0       ?GetBounds@idWinding@@QBEXAAVidBounds@@@Z 00591ef0 f   idLib:Winding.obj
 0001:00191000       ?GetCenter@idWinding@@QBE?AVidVec3@@XZ 00592000 f   idLib:Winding.obj
 0001:00191070       ?GetPlane@idWinding@@QBEXAAVidPlane@@@Z 00592070 f   idLib:Winding.obj
 0001:00191240       ?InsertPointIfOnEdge@idWinding@@QAE_NABVidVec3@@ABVidPlane@@M@Z 00592240 f   idLib:Winding.obj
 0001:00191640       ?IsHuge@idWinding@@QBE_NXZ 00592640 f   idLib:Winding.obj
 0001:001916a0       ?IsTiny@idWinding@@QBE_NXZ 005926a0 f   idLib:Winding.obj
 0001:001917d0       ?PlaneSide@idWinding@@QBEHABVidPlane@@M@Z 005927d0 f   idLib:Winding.obj
 0001:00191890       ?RayIntersection@idWinding@@QBE_NABVidPlane@@ABVidVec3@@1AAM_N@Z 00592890 f   idLib:Winding.obj
 0001:00191ae0       ?ReAllocate@idFixedWinding@@MAE_NH_N@Z 00592ae0 f   idLib:Winding.obj
 0001:00191b10       ?ReAllocate@idWinding@@MAE_NH_N@Z 00592b10 f   idLib:Winding.obj
 0001:00191b80       ?RemoveColinearPoints@idWinding@@QAEXABVidVec3@@M@Z 00592b80 f   idLib:Winding.obj
 0001:00191dc0       ?Reverse@idWinding@@QBEPAV1@XZ 00592dc0 f   idLib:Winding.obj
 0001:00191e90       ?ReverseSelf@idWinding@@QAEXXZ 00592e90 f   idLib:Winding.obj
 0001:00191ef0       ?Split@idFixedWinding@@QAEHPAV1@ABVidPlane@@M@Z 00592ef0 f   idLib:Winding.obj
 0001:00192430       ?Split@idWinding@@QBEHABVidPlane@@MPAPAV1@1@Z 00593430 f   idLib:Winding.obj
 0001:00192a90       ?TriangleArea@idWinding@@SAMABVidVec3@@00@Z 00593a90 f   idLib:Winding.obj
 0001:00192bb0       ?TryMerge@idWinding@@QBEPAV1@ABV1@ABVidVec3@@H@Z 00593bb0 f   idLib:Winding.obj
 0001:001930b0       ?GenerateEdgeNormals@idTraceModel@@QAEHXZ 005940b0 f   idLib:TraceModel.obj
 0001:00193480       ?InitBox@idTraceModel@@AAEXXZ 00594480 f   idLib:TraceModel.obj
 0001:00193780       ?SetupBox@idTraceModel@@QAEXABVidBounds@@@Z 00594780 f   idLib:TraceModel.obj
 0001:00193d60       ??0idLexer@@QAE@H@Z        00594d60 f   idLib:Lexer.obj
 0001:00193e40       ??0idLexer@@QAE@PBDH0H@Z   00594e40 f   idLib:Lexer.obj
 0001:00193f60       ??0idLexer@@QAE@PBDH_N@Z   00594f60 f   idLib:Lexer.obj
 0001:00194170       ??0idLexer@@QAE@XZ         00595170 f   idLib:Lexer.obj
 0001:00194250       ??1idLexer@@QAE@XZ         00595250 f   idLib:Lexer.obj
 0001:00194320       ??4idToken@@QAEAAV0@ABV0@@Z 00595320 f i idLib:Lexer.obj
 0001:001943a0       ?AppendDirty@idToken@@AAEXD@Z 005953a0 f i idLib:Lexer.obj
 0001:001943d0       ?CheckTokenString@idLexer@@QAEHPBD@Z 005953d0 f   idLib:Lexer.obj
 0001:00194470       ?CheckTokenType@idLexer@@QAEHHHPAVidToken@@@Z 00595470 f   idLib:Lexer.obj
 0001:00194510       ?CreatePunctuationTable@idLexer@@AAEXPBUpunctuation_s@@@Z 00595510 f   idLib:Lexer.obj
 0001:00194690       ?EndOfFile@idLexer@@QAEHXZ 00595690 f   idLib:Lexer.obj
 0001:001946a0       ?Error@idLexer@@QAAXPBDZZ  005956a0 f   idLib:Lexer.obj
 0001:00194730       ?ExpectAnyToken@idLexer@@QAEHPAVidToken@@@Z 00595730 f   idLib:Lexer.obj
 0001:00194760       ?ExpectTokenString@idLexer@@QAEHPBD@Z 00595760 f   idLib:Lexer.obj
 0001:00194810       ?ExpectTokenType@idLexer@@QAEHHHPAVidToken@@@Z 00595810 f   idLib:Lexer.obj
 0001:00194b40       ?FreeSource@idLexer@@QAEXXZ 00595b40 f   idLib:Lexer.obj
 0001:00194bc0       ?GetLastWhiteSpace@idLexer@@QBEHAAVidStr@@@Z 00595bc0 f   idLib:Lexer.obj
 0001:00194c30       ?GetPunctuationFromId@idLexer@@QAEPBDH@Z 00595c30 f   idLib:Lexer.obj
 0001:00194c60       ?HadError@idLexer@@QBE_NXZ 00595c60 f   idLib:Lexer.obj
 0001:00194c70       ?LoadFile@idLexer@@QAEHPBD_N@Z 00595c70 f   idLib:Lexer.obj
 0001:00194e00       ?LoadMemory@idLexer@@QAEHPBDH0H@Z 00595e00 f   idLib:Lexer.obj
 0001:00194e80       ?Parse1DMatrix@idLexer@@QAEHHPAM@Z 00595e80 f   idLib:Lexer.obj
 0001:00195010       ?Parse2DMatrix@idLexer@@QAEHHHPAM@Z 00596010 f   idLib:Lexer.obj
 0001:00195200       ?ParseBool@idLexer@@QAE_NXZ 00596200 f   idLib:Lexer.obj
 0001:001952b0       ?ParseFloat@idLexer@@QAEMPA_N@Z 005962b0 f   idLib:Lexer.obj
 0001:001953f0       ?ParseInt@idLexer@@QAEHXZ  005963f0 f   idLib:Lexer.obj
 0001:00195500       ?ParseRestOfLine@idLexer@@QAEPBDAAVidStr@@@Z 00596500 f   idLib:Lexer.obj
 0001:00195650       ?ReadEscapeCharacter@idLexer@@AAEHPAD@Z 00596650 f   idLib:Lexer.obj
 0001:001958e0       ?ReadName@idLexer@@AAEHPAVidToken@@@Z 005968e0 f   idLib:Lexer.obj
 0001:00195980       ?ReadNumber@idLexer@@AAEHPAVidToken@@@Z 00596980 f   idLib:Lexer.obj
 0001:00195f10       ?ReadString@idLexer@@AAEHPAVidToken@@H@Z 00596f10 f   idLib:Lexer.obj
 0001:001960f0       ?ReadToken@idLexer@@QAEHPAVidToken@@@Z 005970f0 f   idLib:Lexer.obj
 0001:00196350       ?ReadTokenOnLine@idLexer@@QAEHPAVidToken@@@Z 00597350 f   idLib:Lexer.obj
 0001:00196420       ?ReadWhiteSpace@idLexer@@AAEHXZ 00597420 f   idLib:Lexer.obj
 0001:001964d0       ?SetPunctuations@idLexer@@QAEXPBUpunctuation_s@@@Z 005974d0 f   idLib:Lexer.obj
 0001:001964f0       ?SkipBracedSection@idLexer@@QAEH_N@Z 005974f0 f   idLib:Lexer.obj
 0001:001965b0       ?SkipRestOfLine@idLexer@@QAEHXZ 005975b0 f   idLib:Lexer.obj
 0001:00196650       ?SkipUntilString@idLexer@@QAEHPBD@Z 00597650 f   idLib:Lexer.obj
 0001:001966f0       ?UnreadToken@idLexer@@QAEXPBVidToken@@@Z 005976f0 f   idLib:Lexer.obj
 0001:00196730       ?Warning@idLexer@@QAAXPBDZZ 00597730 f   idLib:Lexer.obj
 0001:001967a0       ?InitBaseClockTicks@idTimer@@ABEXXZ 005977a0 f   idLib:Timer.obj
 0001:00196880       ?BigFloat@@YAMM@Z          00597880 f   idLib:Lib.obj
 0001:001968a0       ?BigRevBytes@@YAXPAXHH@Z   005978a0 f   idLib:Lib.obj
 0001:001968b0       ?FloatNoSwap@@YAMM@Z       005978b0 f   idLib:Lib.obj
 0001:001968c0       ?FloatSwap@@YAMM@Z         005978c0 f   idLib:Lib.obj
 0001:00196900       ?Init@idLib@@SAXXZ         00597900 f   idLib:Lib.obj
 0001:00196990       ?IntForSixtetsLittle@@YAHPAE@Z 00597990 f   idLib:Lib.obj
 0001:001969e0       ?LittleFloat@@YAMM@Z       005979e0 f   idLib:Lib.obj
 0001:00196a00       ?LittleLong@@YAHH@Z        00597a00 f   idLib:Lib.obj
 0001:00196a10       ?LittleRevBytes@@YAXPAXHH@Z 00597a10 f   idLib:Lib.obj
 0001:00196a20       ?LittleShort@@YAFF@Z       00597a20 f   idLib:Lib.obj
 0001:00196a30       ?LongSwap@@YAHH@Z          00597a30 f   idLib:Lib.obj
 0001:00196a60       ?Printf@idLib@@SAXPBDZZ    00597a60 f   idLib:Lib.obj
 0001:00196a80       ?RevBytesSwap@@YAXPAXHH@Z  00597a80 f   idLib:Lib.obj
 0001:00196ae0       ?ShortNoSwap@@YAFF@Z       00597ae0 f   idLib:Lib.obj
 0001:00196af0       ?ShortSwap@@YAFF@Z         00597af0 f   idLib:Lib.obj
 0001:00196b20       ?ShutDown@idLib@@SAXXZ     00597b20 f   idLib:Lib.obj
 0001:00196b40       ?SixtetsForIntLittle@@YAXPAEH@Z 00597b40 f   idLib:Lib.obj
 0001:00196b90       ?Warning@idLib@@SAXPBDZZ   00597b90 f   idLib:Lib.obj
 0001:00196bd0       ?Lerp@idVec3@@QAEXABV1@0M@Z 00597bd0 f   idLib:Vector.obj
 0001:00196c70       ?Lerp@idVec4@@QAEXABV1@0M@Z 00597c70 f   idLib:Vector.obj
 0001:00196d10       ?ProjectSelfOntoSphere@idVec3@@QAEXM@Z 00597d10 f   idLib:Vector.obj
 0001:00196e50       ?ToMat3@idVec3@@QBE?AVidMat3@@XZ 00597e50 f   idLib:Vector.obj
 0001:00196fa0       ?ToString@idVec2@@QBEPBDH@Z 00597fa0 f   idLib:Vector.obj
 0001:00196fc0       ?ToString@idVec3@@QBEPBDH@Z 00597fc0 f   idLib:Vector.obj
 0001:00196fe0       ?ToString@idVec4@@QBEPBDH@Z 00597fe0 f   idLib:Vector.obj
 0001:00197000       ?ClearTokenWhiteSpace@idToken@@QAEXXZ 00598000 f   idLib:Token.obj
 0001:00197020       ?NumberValue@idToken@@QAEXXZ 00598020 f   idLib:Token.obj
 0001:00197380       ?Collapse@idSurface_Patch@@AAEXXZ 00598380 f   idLib:Surface_Patch.obj
 0001:001974c0       ?Expand@idSurface_Patch@@AAEXXZ 005984c0 f   idLib:Surface_Patch.obj
 0001:00197600       ?GenerateIndexes@idSurface_Patch@@AAEXXZ 00598600 f   idLib:Surface_Patch.obj
 0001:00197730       ?GenerateNormals@idSurface_Patch@@AAEXXZ 00598730 f   idLib:Surface_Patch.obj
 0001:001989e0       ?PutOnCurve@idSurface_Patch@@AAEXXZ 005999e0 f   idLib:Surface_Patch.obj
 0001:00198f20       ?RemoveLinearColumnsRows@idSurface_Patch@@AAEXXZ 00599f20 f   idLib:Surface_Patch.obj
 0001:001994b0       ?ResizeExpanded@idSurface_Patch@@AAEXHH@Z 0059a4b0 f   idLib:Surface_Patch.obj
 0001:00199630       ?SampleSinglePatch@idSurface_Patch@@ABEXQAY02$$CBVidDrawVert@@HHHHHPAV2@@Z 0059a630 f   idLib:Surface_Patch.obj
 0001:00199be0       ?SetNum@?$idList@VidDrawVert@@@@QAEXH_N@Z 0059abe0 f i idLib:Surface_Patch.obj
 0001:00199d30       ?SetSize@idSurface_Patch@@QAEXHH@Z 0059ad30 f   idLib:Surface_Patch.obj
 0001:00199d90       ?Subdivide@idSurface_Patch@@QAEXMMM_N@Z 0059ad90 f   idLib:Surface_Patch.obj
 0001:0019aec0       ?SubdivideExplicit@idSurface_Patch@@QAEXHH_N0@Z 0059bec0 f   idLib:Surface_Patch.obj
 0001:0019b320       ?Allocate@idHashIndex@@AAEXHH@Z 0059c320 f   idLib:HashIndex.obj
 0001:0019b3e0       ?Free@idHashIndex@@QAEXXZ  0059c3e0 f   idLib:HashIndex.obj
 0001:0019b420       ?Init@idHashIndex@@AAEXHH@Z 0059c420 f   idLib:HashIndex.obj
 0001:0019b460       ?ResizeIndex@idHashIndex@@QAEXH@Z 0059c460 f   idLib:HashIndex.obj
 0001:0019b4e0       ??4?$idList@VidKeyValue@@@@QAEAAV0@ABV0@@Z 0059c4e0 f i idLib:Dict.obj
 0001:0019b570       ??4idDict@@QAEAAV0@ABV0@@Z 0059c570 f   idLib:Dict.obj
 0001:0019b600       ??4idHashIndex@@QAEAAV0@ABV0@@Z 0059c600 f i idLib:Dict.obj
 0001:0019b700       ?AllocString@idStrPool@@QAEPBVidPoolStr@@PBD@Z 0059c700 f i idLib:Dict.obj
 0001:0019b8a0       ?Allocated@idDict@@QBEIXZ  0059c8a0 f   idLib:Dict.obj
 0001:0019b900       ?Clear@idDict@@QAEXXZ      0059c900 f   idLib:Dict.obj
 0001:0019bc10       ?Clear@idStrPool@@QAEXXZ   0059cc10 f i idLib:Dict.obj
 0001:0019bce0       ?Delete@idDict@@QAEXPBD@Z  0059cce0 f   idLib:Dict.obj
 0001:0019be00       ?FindKey@idDict@@QBEPBVidKeyValue@@PBD@Z 0059ce00 f   idLib:Dict.obj
 0001:0019be90       ?FindKeyIndex@idDict@@QBEHPBD@Z 0059ce90 f   idLib:Dict.obj
 0001:0019bf20       ?FreeString@idStrPool@@QAEXPBVidPoolStr@@@Z 0059cf20 f i idLib:Dict.obj
 0001:0019c050       ?GetBool@idDict@@QBE_NPBD0AA_N@Z 0059d050 f   idLib:Dict.obj
 0001:0019c090       ?GetFloat@idDict@@QBE_NPBD0AAM@Z 0059d090 f   idLib:Dict.obj
 0001:0019c0e0       ?GetInt@idDict@@QBE_NPBD0AAH@Z 0059d0e0 f   idLib:Dict.obj
 0001:0019c130       ?GetMatrix@idDict@@QBE_NPBD0AAVidMat3@@@Z 0059d130 f   idLib:Dict.obj
 0001:0019c210       ?GetVec2@idDict@@QBE_NPBD0AAVidVec2@@@Z 0059d210 f   idLib:Dict.obj
 0001:0019c270       ?GetVec4@idDict@@QBE_NPBD0AAVidVec4@@@Z 0059d270 f   idLib:Dict.obj
 0001:0019c2f0       ?GetVector@idDict@@QBE_NPBD0AAVidVec3@@@Z 0059d2f0 f   idLib:Dict.obj
 0001:0019c350       ?Init@idDict@@SAXXZ        0059d350 f   idLib:Dict.obj
 0001:0019c360       ?ListKeys_f@idDict@@SAXABVidCmdArgs@@@Z 0059d360 f   idLib:Dict.obj
 0001:0019c540       ?ListValues_f@idDict@@SAXABVidCmdArgs@@@Z 0059d540 f   idLib:Dict.obj
 0001:0019c720       ?MatchPrefix@idDict@@QBEPBVidKeyValue@@PBDPBV2@@Z 0059d720 f   idLib:Dict.obj
 0001:0019c7c0       ?Print@idDict@@QBEXXZ      0059d7c0 f   idLib:Dict.obj
 0001:0019c800       ?ReadFromFileHandle@idDict@@QAEXPAVidFile@@@Z 0059d800 f   idLib:Dict.obj
 0001:0019cab0       ?Set@idDict@@QAEXPBD0@Z    0059dab0 f   idLib:Dict.obj
 0001:0019cb60       ?SetDefaults@idDict@@QAEXPBV1@@Z 0059db60 f   idLib:Dict.obj
 0001:0019cd00       ?ShowMemoryUsage_f@idDict@@SAXABVidCmdArgs@@@Z 0059dd00 f   idLib:Dict.obj
 0001:0019cdd0       ?Shutdown@idDict@@SAXXZ    0059ddd0 f   idLib:Dict.obj
 0001:0019cdf0       ?WriteToFileHandle@idDict@@QBEXPAVidFile@@@Z 0059ddf0 f   idLib:Dict.obj
 0001:0019cee0       ?ToMat3@idRotation@@QBEABVidMat3@@XZ 0059dee0 f   idLib:Rotation.obj
 0001:0019d060       ??4idCmdArgs@@QAEXABV0@@Z  0059e060 f   idLib:CmdArgs.obj
 0001:0019d0b0       ?AppendArg@idCmdArgs@@QAEXPBD@Z 0059e0b0 f   idLib:CmdArgs.obj
 0001:0019d130       ?Args@idCmdArgs@@QBEPBDHH_N@Z 0059e130 f   idLib:CmdArgs.obj
 0001:0019d2e0       ?GetArgs@idCmdArgs@@QAEPAPBDPAH@Z 0059e2e0 f   idLib:CmdArgs.obj
 0001:0019d2f0       ?TokenizeString@idCmdArgs@@QAEXPBD_N@Z 0059e2f0 f   idLib:CmdArgs.obj
 0001:0019d5c0       ??0idVecX@@QAE@H@Z         0059e5c0 f i idLib:Simd.obj
 0001:0019d620       ?Exp16@idMath@@SAMM@Z      0059e620 f i idLib:Simd.obj
 0001:0019d6e0       ?GetBaseClocks@@YAXXZ      0059e6e0 f   idLib:Simd.obj
 0001:0019d750       ?Init@idSIMD@@SAXXZ        0059e750 f   idLib:Simd.obj
 0001:0019d7a0       ?InitProcessor@idSIMD@@SAXPBD_N@Z 0059e7a0 f   idLib:Simd.obj
 0001:0019d980       ?Log16@idMath@@SAMM@Z      0059e980 f i idLib:Simd.obj
 0001:0019da30       ?PrintClocks@@YAXPADHHH@Z  0059ea30 f   idLib:Simd.obj
 0001:0019daf0       ?Shutdown@idSIMD@@SAXXZ    0059eaf0 f   idLib:Simd.obj
 0001:0019db40       ?TestAdd@@YAXXZ            0059eb40 f   idLib:Simd.obj
 0001:0019e0b0       ?TestBlendJoints@@YAXXZ    0059f0b0 f   idLib:Simd.obj
 0001:0019e760       ?TestClamp@@YAXXZ          0059f760 f   idLib:Simd.obj
 0001:0019edf0       ?TestCompare@@YAXXZ        0059fdf0 f   idLib:Simd.obj
 0001:0019fe10       ?TestConvertJointMatsToJointQuats@@YAXXZ 005a0e10 f   idLib:Simd.obj
 0001:001a02b0       ?TestConvertJointQuatsToJointMats@@YAXXZ 005a12b0 f   idLib:Simd.obj
 0001:001a0620       ?TestCreateShadowCache@@YAXXZ 005a1620 f   idLib:Simd.obj
 0001:001a0e60       ?TestDecalPointCull@@YAXXZ 005a1e60 f   idLib:Simd.obj
 0001:001a11e0       ?TestDeriveTangents@@YAXXZ 005a21e0 f   idLib:Simd.obj
 0001:001a1e00       ?TestDeriveTriPlanes@@YAXXZ 005a2e00 f   idLib:Simd.obj
 0001:001a22a0       ?TestDeriveUnsmoothedTangents@@YAXXZ 005a32a0 f   idLib:Simd.obj
 0001:001a2d50       ?TestDiv@@YAXXZ            005a3d50 f   idLib:Simd.obj
 0001:001a32f0       ?TestDot@@YAXXZ            005a42f0 f   idLib:Simd.obj
 0001:001a4780       ?TestGetSpecularTextureCoords@@YAXXZ 005a5780 f   idLib:Simd.obj
 0001:001a4d80       ?TestGetTextureSpaceLightVectors@@YAXXZ 005a5d80 f   idLib:Simd.obj
 0001:001a52b0       ?TestMatXLDLTFactor@@YAXXZ 005a62b0 f   idLib:Simd.obj
 0001:001a57f0       ?TestMatXLowerTriangularSolve@@YAXXZ 005a67f0 f   idLib:Simd.obj
 0001:001a5c30       ?TestMatXLowerTriangularSolveTranspose@@YAXXZ 005a6c30 f   idLib:Simd.obj
 0001:001a6050       ?TestMatXMultiplyAddVecX@@YAXXZ 005a7050 f   idLib:Simd.obj
 0001:001a69b0       ?TestMatXMultiplyMatX@@YAXXZ 005a79b0 f   idLib:Simd.obj
 0001:001a7870       ?TestMatXMultiplyVecX@@YAXXZ 005a8870 f   idLib:Simd.obj
 0001:001a81c0       ?TestMatXTransposeMultiplyAddVecX@@YAXXZ 005a91c0 f   idLib:Simd.obj
 0001:001a8870       ?TestMatXTransposeMultiplyMatX@@YAXXZ 005a9870 f   idLib:Simd.obj
 0001:001a9090       ?TestMatXTransposeMultiplyVecX@@YAXXZ 005aa090 f   idLib:Simd.obj
 0001:001a9740       ?TestMath@@YAXXZ           005aa740 f   idLib:Simd.obj
 0001:001acb40       ?TestMemcpy@@YAXXZ         005adb40 f   idLib:Simd.obj
 0001:001acc20       ?TestMinMax@@YAXXZ         005adc20 f   idLib:Simd.obj
 0001:001ad730       ?TestMul@@YAXXZ            005ae730 f   idLib:Simd.obj
 0001:001adca0       ?TestMulAdd@@YAXXZ         005aeca0 f   idLib:Simd.obj
 0001:001ae170       ?TestMulSub@@YAXXZ         005af170 f   idLib:Simd.obj
 0001:001ae640       ?TestNegate@@YAXXZ         005af640 f   idLib:Simd.obj
 0001:001ae8f0       ?TestNormalizeTangents@@YAXXZ 005af8f0 f   idLib:Simd.obj
 0001:001aef40       ?TestOverlayPointCull@@YAXXZ 005aff40 f   idLib:Simd.obj
 0001:001af270       ?TestSoundMixing@@YAXXZ    005b0270 f   idLib:Simd.obj
 0001:001b0230       ?TestSoundUpSampling@@YAXXZ 005b1230 f   idLib:Simd.obj
 0001:001b0950       ?TestSub@@YAXXZ            005b1950 f   idLib:Simd.obj
 0001:001b0ec0       ?TestTracePointCull@@YAXXZ 005b1ec0 f   idLib:Simd.obj
 0001:001b1210       ?TestTransformJoints@@YAXXZ 005b2210 f   idLib:Simd.obj
 0001:001b1600       ?TestTransformVerts@@YAXXZ 005b2600 f   idLib:Simd.obj
 0001:001b1af0       ?TestUntransformJoints@@YAXXZ 005b2af0 f   idLib:Simd.obj
 0001:001b1ee0       ?Test_f@idSIMD@@SAXABVidCmdArgs@@@Z 005b2ee0 f   idLib:Simd.obj
 0001:001b2400       ??0idLangDict@@QAE@XZ      005b3400 f   idLib:LangDict.obj
 0001:001b24d0       ??1?$idList@VidLangKeyValue@@@@QAE@XZ 005b34d0 f i idLib:LangDict.obj
 0001:001b2550       ??1idLangDict@@QAE@XZ      005b3550 f   idLib:LangDict.obj
 0001:001b25f0       ??4idLangKeyValue@@QAEAAV0@ABV0@@Z 005b35f0 f i idLib:LangDict.obj
 0001:001b2660       ?AddString@idLangDict@@QAEPBDPBD@Z 005b3660 f   idLib:LangDict.obj
 0001:001b2950       ?Append@?$idList@VidLangKeyValue@@@@QAEHABVidLangKeyValue@@@Z 005b3950 f i idLib:LangDict.obj
 0001:001b29c0       ?Clear@idLangDict@@QAEXXZ  005b39c0 f   idLib:LangDict.obj
 0001:001b2a60       ?GetHashKey@idLangDict@@ABEHPBD@Z 005b3a60 f   idLib:LangDict.obj
 0001:001b2a90       ?GetString@idLangDict@@QBEPBDPBD@Z 005b3a90 f   idLib:LangDict.obj
 0001:001b2b40       ?Load@idLangDict@@QAE_NPBD_N@Z 005b3b40 f   idLib:LangDict.obj
 0001:001b2eb0       ?Resize@?$idList@VidLangKeyValue@@@@QAEXH@Z 005b3eb0 f i idLib:LangDict.obj
 0001:001b30a0       ?Save@idLangDict@@QAEXPBD@Z 005b40a0 f   idLib:LangDict.obj
 0001:001b31c0       ??0idMapBrush@@QAE@XZ      005b41c0 f i idLib:MapFile.obj
 0001:001b3280       ??0idMapPatch@@QAE@HH@Z    005b4280 f i idLib:MapFile.obj
 0001:001b3520       ??1idMapPrimitive@@UAE@XZ  005b4520 f i idLib:MapFile.obj
 0001:001b35a0       ??_EidMapBrush@@UAEPAXI@Z  005b45a0 f i idLib:MapFile.obj
 0001:001b35a0       ??_GidMapBrush@@UAEPAXI@Z  005b45a0 f i idLib:MapFile.obj
 0001:001b3670       ??_EidMapPatch@@UAEPAXI@Z  005b4670 f i idLib:MapFile.obj
 0001:001b3670       ??_GidMapPatch@@UAEPAXI@Z  005b4670 f i idLib:MapFile.obj
 0001:001b3720       ??_EidMapPrimitive@@UAEPAXI@Z 005b4720 f i idLib:MapFile.obj
 0001:001b3720       ??_GidMapPrimitive@@UAEPAXI@Z 005b4720 f i idLib:MapFile.obj
 0001:001b39e0       ?DeleteContents@?$idList@PAVidMapBrushSide@@@@QAEX_N@Z 005b49e0 f i idLib:MapFile.obj
 0001:001b3ab0       ?FromPoints@idPlane@@QAE_NABVidVec3@@00_N@Z 005b4ab0 f i idLib:MapFile.obj
 0001:001b3c70       ?GetTextureVectors@idMapBrushSide@@QBEXQAVidVec4@@@Z 005b4c70 f   idLib:MapFile.obj
 0001:001b3d90       ?Parse@idMapBrush@@SAPAV1@AAVidLexer@@ABVidVec3@@_NM@Z 005b4d90 f   idLib:MapFile.obj
 0001:001b44b0       ?Parse@idMapEntity@@SAPAV1@AAVidLexer@@_NM@Z 005b54b0 f   idLib:MapFile.obj
 0001:001b4930       ?Parse@idMapFile@@QAE_NPBD_N1@Z 005b5930 f   idLib:MapFile.obj
 0001:001b5030       ?Parse@idMapPatch@@SAPAV1@AAVidLexer@@ABVidVec3@@_NM@Z 005b6030 f   idLib:MapFile.obj
 0001:001b5400       ?ParseQ3@idMapBrush@@SAPAV1@AAVidLexer@@ABVidVec3@@@Z 005b6400 f   idLib:MapFile.obj
 0001:001b5a80       ?SetGeometryCRC@idMapFile@@AAEXXZ 005b6a80 f   idLib:MapFile.obj
 0001:001b5ca0       ?Write@idMapBrush@@QBE_NPAVidFile@@HABVidVec3@@@Z 005b6ca0 f   idLib:MapFile.obj
 0001:001b5e30       ?Write@idMapEntity@@QBE_NPAVidFile@@H@Z 005b6e30 f   idLib:MapFile.obj
 0001:001b60a0       ?Write@idMapFile@@QAE_NPBD0_N@Z 005b70a0 f   idLib:MapFile.obj
 0001:001b61c0       ??_EidParallelJobManager@@UAEPAXI@Z 005b71c0 f i idLib:ParallelJobList.obj
 0001:001b61c0       ??_GidParallelJobManager@@UAEPAXI@Z 005b71c0 f i idLib:ParallelJobList.obj
 0001:001b61f0       ?Init@idParallelJobManagerLocal@@UAEXXZ 005b71f0 f   idLib:ParallelJobList.obj
 0001:001b62a0       ?Shutdown@idParallelJobManagerLocal@@UAEXXZ 005b72a0 f   idLib:ParallelJobList.obj
 0001:001b62d0       ?AllocJobList@idParallelJobManagerLocal@@UAEPAVidParallelJobList@@W4jobListId_t@@W4jobListPriority_t@@IIPBVidColor@@@Z 005b72d0 f   idLib:ParallelJobList.obj
 0001:001b6380       ?FreeJobList@idParallelJobManagerLocal@@UAEXPAVidParallelJobList@@@Z 005b7380 f   idLib:ParallelJobList.obj
 0001:001b64d0       ?GetNumJobLists@idParallelJobManagerLocal@@UBEHXZ 005b74d0 f   idLib:ParallelJobList.obj
 0001:001b64e0       ?GetNumFreeJobLists@idParallelJobManagerLocal@@UBEHXZ 005b74e0 f   idLib:ParallelJobList.obj
 0001:001b64f0       ?GetJobList@idParallelJobManagerLocal@@UAEPAVidParallelJobList@@H@Z 005b74f0 f   idLib:ParallelJobList.obj
 0001:001b6500       ?GetNumProcessingUnits@idParallelJobManagerLocal@@UAEHXZ 005b7500 f   idLib:ParallelJobList.obj
 0001:001b6510       ?WaitForAllJobLists@idParallelJobManagerLocal@@UAEXXZ 005b7510 f   idLib:ParallelJobList.obj
 0001:001b6550       ??_EidParallelJobManagerLocal@@UAEPAXI@Z 005b7550 f i idLib:ParallelJobList.obj
 0001:001b6550       ??_GidParallelJobManagerLocal@@UAEPAXI@Z 005b7550 f i idLib:ParallelJobList.obj
 0001:001b65c0       ??0idJobThread@@QAE@XZ     005b75c0 f   idLib:ParallelJobList.obj
 0001:001b6630       ??0idParallelJobList_Threads@@QAE@W4jobListId_t@@W4jobListPriority_t@@II@Z 005b7630 f   idLib:ParallelJobList.obj
 0001:001b6810       ??1idJobThread@@UAE@XZ     005b7810 f   idLib:ParallelJobList.obj
 0001:001b6870       ??1idParallelJobManager@@UAE@XZ 005b7870 f i idLib:ParallelJobList.obj
 0001:001b6880       ??_EidJobThread@@UAEPAXI@Z 005b7880 f i idLib:ParallelJobList.obj
 0001:001b6880       ??_GidJobThread@@UAEPAXI@Z 005b7880 f i idLib:ParallelJobList.obj
 0001:001b68f0       ?AddJobA@idParallelJobList@@QAEXP6AXPAX@Z0@Z 005b78f0 f   idLib:ParallelJobList.obj
 0001:001b6950       ?Resize@?$idList@VidSysInterlockedInteger@@@@QAEXH@Z 005b7950 f i idLib:ParallelJobList.obj
 0001:001b6a00       ?Run@idJobThread@@EAEHXZ   005b7a00 f   idLib:ParallelJobList.obj
 0001:001b6c60       ?RunJobs@idParallelJobList_Threads@@QAEHIAAUthreadJobListState_t@@_N@Z 005b7c60 f   idLib:ParallelJobList.obj
 0001:001b6cd0       ?RunJobsInternal@idParallelJobList_Threads@@AAEHIAAUthreadJobListState_t@@_N@Z 005b7cd0 f   idLib:ParallelJobList.obj
 0001:001b6f80       ?Submit@idParallelJobList@@QAEXPAV1@H@Z 005b7f80 f   idLib:ParallelJobList.obj
 0001:001b6fb0       ?Submit@idParallelJobList_Threads@@QAEXPAV1@H@Z 005b7fb0 f   idLib:ParallelJobList.obj
 0001:001b7140       ?SubmitJobList@@YAXPAVidParallelJobList_Threads@@H@Z 005b8140 f   idLib:ParallelJobList.obj
 0001:001b7270       ?Wait@idParallelJobList@@QAEXXZ 005b8270 f   idLib:ParallelJobList.obj
 0001:001b7280       ?Wait@idParallelJobList_Threads@@QAEXXZ 005b8280 f   idLib:ParallelJobList.obj
 0001:001b73b0       ?MD5_BlockChecksum@@YAKPBXH@Z 005b83b0 f   idLib:MD5.obj
 0001:001b74f0       ?MD5_Transform@@YAXQAI0@Z  005b84f0 f   idLib:MD5.obj
 0001:001b7b70       ??0idBitMsg@@QAE@XZ        005b8b70 f   idLib:BitMsg.obj
 0001:001b7bb0       ?CheckOverflow@idBitMsg@@AAE_NH@Z 005b8bb0 f   idLib:BitMsg.obj
 0001:001b7c40       ?ReadBits@idBitMsg@@QBEHH@Z 005b8c40 f   idLib:BitMsg.obj
 0001:001b7d80       ?ReadData@idBitMsg@@QBEHPAXH@Z 005b8d80 f   idLib:BitMsg.obj
 0001:001b7df0       ?ReadDelta@idBitMsg@@ABEHHH@Z 005b8df0 f   idLib:BitMsg.obj
 0001:001b7e20       ?ReadDeltaDict@idBitMsg@@QBE_NAAVidDict@@PBV2@@Z 005b8e20 f   idLib:BitMsg.obj
 0001:001b7f70       ?ReadDeltaLongCounter@idBitMsg@@QBEHH@Z 005b8f70 f   idLib:BitMsg.obj
 0001:001b7fb0       ?ReadNetadr@idBitMsg@@QBEXPAUnetadr_t@@@Z 005b8fb0 f   idLib:BitMsg.obj
 0001:001b7ff0       ?ReadString@idBitMsg@@QBEHPADH@Z 005b8ff0 f   idLib:BitMsg.obj
 0001:001b8070       ?WriteBits@idBitMsg@@QAEXHH@Z 005b9070 f   idLib:BitMsg.obj
 0001:001b8180       ?WriteData@idBitMsg@@QAEXPBXH@Z 005b9180 f   idLib:BitMsg.obj
 0001:001b81e0       ?WriteDelta@idBitMsg@@AAEXHHH@Z 005b91e0 f   idLib:BitMsg.obj
 0001:001b8320       ?WriteDeltaDict@idBitMsg@@QAE_NABVidDict@@PBV2@@Z 005b9320 f   idLib:BitMsg.obj
 0001:001b84a0       ?WriteDeltaLongCounter@idBitMsg@@QAEXHH@Z 005b94a0 f   idLib:BitMsg.obj
 0001:001b85a0       ?WriteNetadr@idBitMsg@@QAEXUnetadr_t@@@Z 005b95a0 f   idLib:BitMsg.obj
 0001:001b8690       ?WriteString@idBitMsg@@QAEXPBDH_N@Z 005b9690 f   idLib:BitMsg.obj
 0001:001b8840       ??0idParser@@QAE@H@Z       005b9840 f   idLib:Parser.obj
 0001:001b88c0       ??0idParser@@QAE@PBDH0H@Z  005b98c0 f   idLib:Parser.obj
 0001:001b8980       ??0idParser@@QAE@PBDH_N@Z  005b9980 f   idLib:Parser.obj
 0001:001b8af0       ??0idParser@@QAE@XZ        005b9af0 f   idLib:Parser.obj
 0001:001b8b70       ??1idParser@@QAE@XZ        005b9b70 f   idLib:Parser.obj
 0001:001b8bd0       ??8@YA_NABVidStr@@PBD@Z    005b9bd0 f i idLib:Parser.obj
 0001:001b8bf0       ??H@YA?AVidStr@@ABV0@0@Z   005b9bf0 f i idLib:Parser.obj
 0001:001b8c90       ?AddDefineToHash@idParser@@AAEXPAUdefine_s@@PAPAU2@@Z 005b9c90 f   idLib:Parser.obj
 0001:001b8cf0       ?AddGlobalDefinesToSource@idParser@@AAEXXZ 005b9cf0 f   idLib:Parser.obj
 0001:001b8d80       ?Append@idStr@@QAEXPBD@Z   005b9d80 f i idLib:Parser.obj
 0001:001b8df0       ?CopyDefine@idParser@@AAEPAUdefine_s@@PAU2@@Z 005b9df0 f   idLib:Parser.obj
 0001:001b8f80       ?Directive_define@idParser@@AAEHXZ 005b9f80 f   idLib:Parser.obj
 0001:001b9470       ?Directive_if_def@idParser@@AAEHH@Z 005ba470 f   idLib:Parser.obj
 0001:001b9570       ?Directive_include@idParser@@AAEHXZ 005ba570 f   idLib:Parser.obj
 0001:001b99c0       ?Directive_undef@idParser@@AAEHXZ 005ba9c0 f   idLib:Parser.obj
 0001:001b9af0       ?DollarEvaluate@idParser@@AAEHPAJPANH@Z 005baaf0 f   idLib:Parser.obj
 0001:001b9f30       ?Error@idParser@@QBAXPBDZZ 005baf30 f   idLib:Parser.obj
 0001:001b9f90       ?Evaluate@idParser@@AAEHPAJPANH@Z 005baf90 f   idLib:Parser.obj
 0001:001ba2b0       ?EvaluateTokens@idParser@@AAEHPAVidToken@@PAJPANH@Z 005bb2b0 f   idLib:Parser.obj
 0001:001baf40       ?ExpandBuiltinDefine@idParser@@AAEHPAVidToken@@PAUdefine_s@@PAPAV2@2@Z 005bbf40 f   idLib:Parser.obj
 0001:001bb1d0       ?ExpandDefine@idParser@@AAEHPAVidToken@@PAUdefine_s@@PAPAV2@2@Z 005bc1d0 f   idLib:Parser.obj
 0001:001bb700       ?ExpandDefineIntoSource@idParser@@AAEHPAVidToken@@PAUdefine_s@@@Z 005bc700 f   idLib:Parser.obj
 0001:001bb760       ?ExpectAnyToken@idParser@@QAEHPAVidToken@@@Z 005bc760 f   idLib:Parser.obj
 0001:001bb790       ?ExpectTokenString@idParser@@QAEHPBD@Z 005bc790 f   idLib:Parser.obj
 0001:001bb840       ?ExpectTokenType@idParser@@QAEHHHPAVidToken@@@Z 005bc840 f   idLib:Parser.obj
 0001:001bbb50       ?FindHashedDefine@idParser@@AAEPAUdefine_s@@PAPAU2@PBD@Z 005bcb50 f   idLib:Parser.obj
 0001:001bbbd0       ?FreeDefine@idParser@@CAXPAUdefine_s@@@Z 005bcbd0 f   idLib:Parser.obj
 0001:001bbc80       ?FreeSource@idParser@@QAEX_N@Z 005bcc80 f   idLib:Parser.obj
 0001:001bbda0       ?LoadFile@idParser@@QAEHPBD_N@Z 005bcda0 f   idLib:Parser.obj
 0001:001bbed0       ?LoadMemory@idParser@@QAEHPBDH0@Z 005bced0 f   idLib:Parser.obj
 0001:001bc000       ?PC_NameHash@@YAHPBD@Z     005bd000 f i idLib:Parser.obj
 0001:001bc040       ?ParseBool@idParser@@QAE_NXZ 005bd040 f   idLib:Parser.obj
 0001:001bc0f0       ?ParseFloat@idParser@@QAEMXZ 005bd0f0 f   idLib:Parser.obj
 0001:001bc200       ?ParseInt@idParser@@QAEHXZ 005bd200 f   idLib:Parser.obj
 0001:001bc310       ?ReadDefineParms@idParser@@AAEHPAUdefine_s@@PAPAVidToken@@H@Z 005bd310 f   idLib:Parser.obj
 0001:001bc680       ?ReadDirective@idParser@@AAEHXZ 005bd680 f   idLib:Parser.obj
 0001:001bd0a0       ?ReadDollarDirective@idParser@@AAEHXZ 005be0a0 f   idLib:Parser.obj
 0001:001bd4e0       ?ReadLine@idParser@@AAEHPAVidToken@@@Z 005be4e0 f   idLib:Parser.obj
 0001:001bd540       ?ReadSourceToken@idParser@@AAEHPAVidToken@@@Z 005be540 f   idLib:Parser.obj
 0001:001bd700       ?ReadToken@idParser@@QAEHPAVidToken@@@Z 005be700 f   idLib:Parser.obj
 0001:001bd860       ?ReadTokenOnLine@idParser@@QAEHPAVidToken@@@Z 005be860 f   idLib:Parser.obj
 0001:001bd8f0       ?SetFlags@idParser@@QAEXH@Z 005be8f0 f   idLib:Parser.obj
 0001:001bd910       ?SetMarker@idParser@@QAEXXZ 005be910 f   idLib:Parser.obj
 0001:001bd920       ?SkipRestOfLine@idParser@@QAEHXZ 005be920 f   idLib:Parser.obj
 0001:001bda70       ?SkipUntilString@idParser@@QAEHPBD@Z 005bea70 f   idLib:Parser.obj
 0001:001bdb10       ?UnreadSignToken@idParser@@AAEXXZ 005beb10 f   idLib:Parser.obj
 0001:001bdc60       ?UnreadSourceToken@idParser@@AAEHPAVidToken@@@Z 005bec60 f   idLib:Parser.obj
 0001:001bdce0       ?UnreadToken@idParser@@QAEXPAVidToken@@@Z 005bece0 f   idLib:Parser.obj
 0001:001bdd60       ?Warning@idParser@@QBAXPBDZZ 005bed60 f   idLib:Parser.obj
 0001:001bddc0       ?MD4_BlockChecksum@@YAKPBXH@Z 005bedc0 f   idLib:MD4.obj
 0001:001be4f0       ?MD4_Update@@YAXPAUMD4_CTX@@PBEI@Z 005bf4f0 f   idLib:MD4.obj
 0001:001be5a0       ??4idFrustum@@QAEAAV0@ABV0@@Z 005bf5a0 f i idLib:Frustum.obj
 0001:001be610       ?AddLocalLineToProjectionBoundsSetCull@idFrustum@@ABEXABVidVec3@@0AAH1AAVidBounds@@@Z 005bf610 f   idLib:Frustum.obj
 0001:001beb90       ?AddLocalLineToProjectionBoundsUseCull@idFrustum@@ABEXABVidVec3@@0HHAAVidBounds@@@Z 005bfb90 f   idLib:Frustum.obj
 0001:001bf000       ?AddPoint@idBounds@@QAE_NABVidVec3@@@Z 005c0000 f i idLib:Frustum.obj
 0001:001bf080       ?AxisProjection@idFrustum@@ABEXQBVidVec3@@0ABV2@AAM2@Z 005c0080 f   idLib:Frustum.obj
 0001:001bf1e0       ?BoundsRayIntersection@idFrustum@@ABE_NABVidBounds@@ABVidVec3@@1AAM2@Z 005c01e0 f   idLib:Frustum.obj
 0001:001bf430       ?BoxToPoints@@YAXABVidVec3@@0ABVidMat3@@QAV1@@Z 005c0430 f   idLib:Frustum.obj
 0001:001bf720       ?ClipFrustumToBox@idFrustum@@ABEXABVidBox@@QAMQAH@Z 005c0720 f   idLib:Frustum.obj
 0001:001bfdc0       ?ClipLine@idFrustum@@ABE_NQBVidVec3@@0HHAAV2@1AAH2@Z 005c0dc0 f   idLib:Frustum.obj
 0001:001c0340       ?ClippedProjectionBounds@idFrustum@@QBE_NABV1@ABVidBox@@AAVidBounds@@@Z 005c1340 f   idLib:Frustum.obj
 0001:001c2a50       ?ConstrainToBounds@idFrustum@@QAE_NABVidBounds@@@Z 005c3a50 f   idLib:Frustum.obj
 0001:001c2bd0       ?ConstrainToBox@idFrustum@@QAE_NABVidBox@@@Z 005c3bd0 f   idLib:Frustum.obj
 0001:001c2d60       ?CullLocalFrustum@idFrustum@@ABE_NABV1@QBVidVec3@@1@Z 005c3d60 f   idLib:Frustum.obj
 0001:001c30b0       ?FromProjection@idFrustum@@QAE_NABVidBox@@ABVidVec3@@M@Z 005c40b0 f   idLib:Frustum.obj
 0001:001c4290       ?IntersectsFrustum@idFrustum@@QBE_NABV1@@Z 005c5290 f   idLib:Frustum.obj
 0001:001c4a50       ?LocalFrustumIntersectsFrustum@idFrustum@@ABE_NQBVidVec3@@_N@Z 005c5a50 f   idLib:Frustum.obj
 0001:001c4f90       ?LocalLineIntersection@idFrustum@@ABE_NABVidVec3@@0@Z 005c5f90 f   idLib:Frustum.obj
 0001:001c5430       ?LocalRayIntersection@idFrustum@@ABE_NABVidVec3@@0AAM1@Z 005c6430 f   idLib:Frustum.obj
 0001:001c58f0       ?PlaneSide@idFrustum@@QBEHABVidPlane@@M@Z 005c68f0 f   idLib:Frustum.obj
 0001:001c5970       ?ProjectionBounds@idFrustum@@QBE_NABVidBox@@AAVidBounds@@@Z 005c6970 f   idLib:Frustum.obj
 0001:001c68b0       ?ProjectionBounds@idFrustum@@QBE_NABVidWinding@@AAVidBounds@@@Z 005c78b0 f   idLib:Frustum.obj
 0001:001c6fb0       ?ToClippedPoints@idFrustum@@ABEXQBMQAVidVec3@@@Z 005c7fb0 f   idLib:Frustum.obj
 0001:001c73c0       ?ToIndexPointsAndCornerVecs@idFrustum@@ABEXQAVidVec3@@0@Z 005c83c0 f   idLib:Frustum.obj
 0001:001c7730       ?ToPoints@idFrustum@@QBEXQAVidVec3@@@Z 005c8730 f   idLib:Frustum.obj
 0001:001c79f0       ?InvSqrt@idMath@@SAMM@Z    005c89f0 f i idLib:Quat.obj
 0001:001c7a80       ?Sin16@idMath@@SAMM@Z      005c8a80 f i idLib:Quat.obj
 0001:001c7b80       ?Slerp@idQuat@@QAEAAV1@ABV1@0M@Z 005c8b80 f   idLib:Quat.obj
 0001:001c7f30       ?ToCQuat@idQuat@@QBE?AVidCQuat@@XZ 005c8f30 f   idLib:Quat.obj
 0001:001c7f70       ?ToMat3@idQuat@@QBE?AVidMat3@@XZ 005c8f70 f   idLib:Quat.obj
 0001:001c8080       ?ToPoints@idBox@@QBEXQAVidVec3@@@Z 005c9080 f   idLib:Box.obj
 0001:001c8370       ?Type@idPlane@@QBEHXZ      005c9370 f   idLib:Plane.obj
 0001:001c8400       ??4idPolynomial@@QAEAAV0@ABV0@@Z 005c9400 f i idLib:Polynomial.obj
 0001:001c8480       ?Abs@idComplex@@QBEMXZ     005c9480 f i idLib:Polynomial.obj
 0001:001c8530       ?GetRoots3@idPolynomial@@SAHMMMMPAM@Z 005c9530 f i idLib:Polynomial.obj
 0001:001c8970       ?GetRoots4@idPolynomial@@SAHMMMMMPAM@Z 005c9970 f i idLib:Polynomial.obj
 0001:001c8d30       ?GetRoots@idPolynomial@@QBEHPAM@Z 005c9d30 f   idLib:Polynomial.obj
 0001:001c8f80       ?GetRoots@idPolynomial@@QBEHPAVidComplex@@@Z 005c9f80 f   idLib:Polynomial.obj
 0001:001c9200       ?Laguer@idPolynomial@@ABEHPBVidComplex@@HAAV2@@Z 005ca200 f   idLib:Polynomial.obj
 0001:001c9cd0       ?Test@idPolynomial@@SAXXZ  005cacd0 f   idLib:Polynomial.obj
 0001:001c9f40       ?GenerateEdgeIndexes@idSurface@@IAEXXZ 005caf40 f   idLib:Surface.obj
 0001:001ca210       ?Add16@idSIMD_Generic@@UAIXPAMPBM1H@Z 005cb210 f   idLib:Simd_Generic.obj
 0001:001ca430       ?Add@idSIMD_Generic@@UAIXPAMMPBMH@Z 005cb430 f   idLib:Simd_Generic.obj
 0001:001ca610       ?Add@idSIMD_Generic@@UAIXPAMPBM1H@Z 005cb610 f   idLib:Simd_Generic.obj
 0001:001ca930       ?AddAssign16@idSIMD_Generic@@UAIXPAMPBMH@Z 005cb930 f   idLib:Simd_Generic.obj
 0001:001caac0       ?BlendJoints@idSIMD_Generic@@UAIXPAVidJointQuat@@PBV2@MPBHH@Z 005cbac0 f   idLib:Simd_Generic.obj
 0001:001cab40       ?Clamp@idSIMD_Generic@@UAIXPAMPBMMMH@Z 005cbb40 f   idLib:Simd_Generic.obj
 0001:001cacf0       ?ClampMax@idSIMD_Generic@@UAIXPAMPBMMH@Z 005cbcf0 f   idLib:Simd_Generic.obj
 0001:001cae30       ?ClampMin@idSIMD_Generic@@UAIXPAMPBMMH@Z 005cbe30 f   idLib:Simd_Generic.obj
 0001:001caf70       ?CmpGE@idSIMD_Generic@@UAIXPAEEPBMMH@Z 005cbf70 f   idLib:Simd_Generic.obj
 0001:001cb0b0       ?CmpGE@idSIMD_Generic@@UAIXPAEPBMMH@Z 005cc0b0 f   idLib:Simd_Generic.obj
 0001:001cb1c0       ?CmpGT@idSIMD_Generic@@UAIXPAEEPBMMH@Z 005cc1c0 f   idLib:Simd_Generic.obj
 0001:001cb300       ?CmpGT@idSIMD_Generic@@UAIXPAEPBMMH@Z 005cc300 f   idLib:Simd_Generic.obj
 0001:001cb410       ?CmpLE@idSIMD_Generic@@UAIXPAEEPBMMH@Z 005cc410 f   idLib:Simd_Generic.obj
 0001:001cb520       ?CmpLE@idSIMD_Generic@@UAIXPAEPBMMH@Z 005cc520 f   idLib:Simd_Generic.obj
 0001:001cb610       ?CmpLT@idSIMD_Generic@@UAIXPAEEPBMMH@Z 005cc610 f   idLib:Simd_Generic.obj
 0001:001cb720       ?CmpLT@idSIMD_Generic@@UAIXPAEPBMMH@Z 005cc720 f   idLib:Simd_Generic.obj
 0001:001cb810       ?ConvertJointMatsToJointQuats@idSIMD_Generic@@UAIXPAVidJointQuat@@PBVidJointMat@@H@Z 005cc810 f   idLib:Simd_Generic.obj
 0001:001cb870       ?ConvertJointQuatsToJointMats@idSIMD_Generic@@UAIXPAVidJointMat@@PBVidJointQuat@@H@Z 005cc870 f   idLib:Simd_Generic.obj
 0001:001cb900       ?Copy16@idSIMD_Generic@@UAIXPAMPBMH@Z 005cc900 f   idLib:Simd_Generic.obj
 0001:001cb980       ?CreateShadowCache@idSIMD_Generic@@UAIHPAVidVec4@@PAHABVidVec3@@PBVidDrawVert@@H@Z 005cc980 f   idLib:Simd_Generic.obj
 0001:001cba10       ?CreateSpecularTextureCoords@idSIMD_Generic@@UAIXPAVidVec4@@ABVidVec3@@1PBVidDrawVert@@HPBHH@Z 005cca10 f   idLib:Simd_Generic.obj
 0001:001cbc50       ?CreateTextureSpaceLightVectors@idSIMD_Generic@@UAIXPAVidVec3@@ABV2@PBVidDrawVert@@HPBHH@Z 005ccc50 f   idLib:Simd_Generic.obj
 0001:001cbd60       ?CreateVertexProgramShadowCache@idSIMD_Generic@@UAIHPAVidVec4@@PBVidDrawVert@@H@Z 005ccd60 f   idLib:Simd_Generic.obj
 0001:001cbdc0       ?DecalPointCull@idSIMD_Generic@@UAIXPAEPBVidPlane@@PBVidDrawVert@@H@Z 005ccdc0 f   idLib:Simd_Generic.obj
 0001:001cbf50       ?DeriveTangents@idSIMD_Generic@@UAIXPAVidPlane@@PAVidDrawVert@@HPBHH@Z 005ccf50 f   idLib:Simd_Generic.obj
 0001:001cc5f0       ?DeriveTriPlanes@idSIMD_Generic@@UAIXPAVidPlane@@PBVidDrawVert@@HPBHH@Z 005cd5f0 f   idLib:Simd_Generic.obj
 0001:001cc7a0       ?DeriveUnsmoothedTangents@idSIMD_Generic@@UAIXPAVidDrawVert@@PBUdominantTri_s@@H@Z 005cd7a0 f   idLib:Simd_Generic.obj
 0001:001cc9d0       ?Div@idSIMD_Generic@@UAIXPAMMPBMH@Z 005cd9d0 f   idLib:Simd_Generic.obj
 0001:001ccc60       ?Div@idSIMD_Generic@@UAIXPAMPBM1H@Z 005cdc60 f   idLib:Simd_Generic.obj
 0001:001ccf90       ?Dot@idSIMD_Generic@@UAIXAAMPBM1H@Z 005cdf90 f   idLib:Simd_Generic.obj
 0001:001cd220       ?Dot@idSIMD_Generic@@UAIXPAMABVidPlane@@PBV2@H@Z 005ce220 f   idLib:Simd_Generic.obj
 0001:001cd290       ?Dot@idSIMD_Generic@@UAIXPAMABVidPlane@@PBVidDrawVert@@H@Z 005ce290 f   idLib:Simd_Generic.obj
 0001:001cd2f0       ?Dot@idSIMD_Generic@@UAIXPAMABVidPlane@@PBVidVec3@@H@Z 005ce2f0 f   idLib:Simd_Generic.obj
 0001:001cd350       ?Dot@idSIMD_Generic@@UAIXPAMABVidVec3@@PBV2@H@Z 005ce350 f   idLib:Simd_Generic.obj
 0001:001cd3b0       ?Dot@idSIMD_Generic@@UAIXPAMABVidVec3@@PBVidDrawVert@@H@Z 005ce3b0 f   idLib:Simd_Generic.obj
 0001:001cd410       ?Dot@idSIMD_Generic@@UAIXPAMABVidVec3@@PBVidPlane@@H@Z 005ce410 f   idLib:Simd_Generic.obj
 0001:001cd470       ?Dot@idSIMD_Generic@@UAIXPAMPBVidVec3@@1H@Z 005ce470 f   idLib:Simd_Generic.obj
 0001:001cd4d0       ?GetName@idSIMD_Generic@@UBIPBDXZ 005ce4d0 f   idLib:Simd_Generic.obj
 0001:001cd4e0       ?MatX_LDLTFactor@idSIMD_Generic@@UAI_NAAVidMatX@@AAVidVecX@@H@Z 005ce4e0 f   idLib:Simd_Generic.obj
 0001:001cdda0       ?MatX_LowerTriangularSolve@idSIMD_Generic@@UAIXABVidMatX@@PAMPBMHH@Z 005ceda0 f   idLib:Simd_Generic.obj
 0001:001ce630       ?MatX_LowerTriangularSolveTranspose@idSIMD_Generic@@UAIXABVidMatX@@PAMPBMH@Z 005cf630 f   idLib:Simd_Generic.obj
 0001:001ceef0       ?MatX_MultiplyAddVecX@idSIMD_Generic@@UAIXAAVidVecX@@ABVidMatX@@ABV2@@Z 005cfef0 f   idLib:Simd_Generic.obj
 0001:001cf2e0       ?MatX_MultiplyMatX@idSIMD_Generic@@UAIXAAVidMatX@@ABV2@1@Z 005d02e0 f   idLib:Simd_Generic.obj
 0001:001d0ec0       ?MatX_MultiplySubVecX@idSIMD_Generic@@UAIXAAVidVecX@@ABVidMatX@@ABV2@@Z 005d1ec0 f   idLib:Simd_Generic.obj
 0001:001d12d0       ?MatX_MultiplyVecX@idSIMD_Generic@@UAIXAAVidVecX@@ABVidMatX@@ABV2@@Z 005d22d0 f   idLib:Simd_Generic.obj
 0001:001d1720       ?MatX_TransposeMultiplyAddVecX@idSIMD_Generic@@UAIXAAVidVecX@@ABVidMatX@@ABV2@@Z 005d2720 f   idLib:Simd_Generic.obj
 0001:001d1b00       ?MatX_TransposeMultiplyMatX@idSIMD_Generic@@UAIXAAVidMatX@@ABV2@1@Z 005d2b00 f   idLib:Simd_Generic.obj
 0001:001d3b70       ?MatX_TransposeMultiplySubVecX@idSIMD_Generic@@UAIXAAVidVecX@@ABVidMatX@@ABV2@@Z 005d4b70 f   idLib:Simd_Generic.obj
 0001:001d3f70       ?MatX_TransposeMultiplyVecX@idSIMD_Generic@@UAIXAAVidVecX@@ABVidMatX@@ABV2@@Z 005d4f70 f   idLib:Simd_Generic.obj
 0001:001d43d0       ?Memcpy@idSIMD_Generic@@UAIXPAXPBXH@Z 005d53d0 f   idLib:Simd_Generic.obj
 0001:001d43f0       ?Memset@idSIMD_Generic@@UAIXPAXHH@Z 005d53f0 f   idLib:Simd_Generic.obj
 0001:001d4410       ?MinMax@idSIMD_Generic@@UAIXAAM0PBMH@Z 005d5410 f   idLib:Simd_Generic.obj
 0001:001d4470       ?MinMax@idSIMD_Generic@@UAIXAAVidVec2@@0PBV2@H@Z 005d5470 f   idLib:Simd_Generic.obj
 0001:001d4510       ?MinMax@idSIMD_Generic@@UAIXAAVidVec3@@0PBV2@H@Z 005d5510 f   idLib:Simd_Generic.obj
 0001:001d45f0       ?MinMax@idSIMD_Generic@@UAIXAAVidVec3@@0PBVidDrawVert@@H@Z 005d55f0 f   idLib:Simd_Generic.obj
 0001:001d46d0       ?MinMax@idSIMD_Generic@@UAIXAAVidVec3@@0PBVidDrawVert@@PBHH@Z 005d56d0 f   idLib:Simd_Generic.obj
 0001:001d47d0       ?MixSoundSixSpeakerMono@idSIMD_Generic@@UAIXPAMPBMHQBM2@Z 005d57d0 f   idLib:Simd_Generic.obj
 0001:001d4930       ?MixSoundSixSpeakerStereo@idSIMD_Generic@@UAIXPAMPBMHQBM2@Z 005d5930 f   idLib:Simd_Generic.obj
 0001:001d4a90       ?MixSoundTwoSpeakerMono@idSIMD_Generic@@UAIXPAMPBMHQBM2@Z 005d5a90 f   idLib:Simd_Generic.obj
 0001:001d4b10       ?MixSoundTwoSpeakerStereo@idSIMD_Generic@@UAIXPAMPBMHQBM2@Z 005d5b10 f   idLib:Simd_Generic.obj
 0001:001d4ba0       ?MixedSoundToSamples@idSIMD_Generic@@UAIXPAFPBMH@Z 005d5ba0 f   idLib:Simd_Generic.obj
 0001:001d4c00       ?Mul16@idSIMD_Generic@@UAIXPAMPBMMH@Z 005d5c00 f   idLib:Simd_Generic.obj
 0001:001d4d40       ?Mul@idSIMD_Generic@@UAIXPAMMPBMH@Z 005d5d40 f   idLib:Simd_Generic.obj
 0001:001d4f80       ?Mul@idSIMD_Generic@@UAIXPAMPBM1H@Z 005d5f80 f   idLib:Simd_Generic.obj
 0001:001d52b0       ?MulAdd@idSIMD_Generic@@UAIXPAMMPBMH@Z 005d62b0 f   idLib:Simd_Generic.obj
 0001:001d5580       ?MulAdd@idSIMD_Generic@@UAIXPAMPBM1H@Z 005d6580 f   idLib:Simd_Generic.obj
 0001:001d58b0       ?MulAssign16@idSIMD_Generic@@UAIXPAMMH@Z 005d68b0 f   idLib:Simd_Generic.obj
 0001:001d5980       ?MulSub@idSIMD_Generic@@UAIXPAMMPBMH@Z 005d6980 f   idLib:Simd_Generic.obj
 0001:001d5c50       ?MulSub@idSIMD_Generic@@UAIXPAMPBM1H@Z 005d6c50 f   idLib:Simd_Generic.obj
 0001:001d5fa0       ?Negate16@idSIMD_Generic@@UAIXPAMH@Z 005d6fa0 f   idLib:Simd_Generic.obj
 0001:001d6010       ?NormalizeTangents@idSIMD_Generic@@UAIXPAVidDrawVert@@H@Z 005d7010 f   idLib:Simd_Generic.obj
 0001:001d6290       ?OverlayPointCull@idSIMD_Generic@@UAIXPAEPAVidVec2@@PBVidPlane@@PBVidDrawVert@@H@Z 005d7290 f   idLib:Simd_Generic.obj
 0001:001d6390       ?Sub16@idSIMD_Generic@@UAIXPAMPBM1H@Z 005d7390 f   idLib:Simd_Generic.obj
 0001:001d65b0       ?Sub@idSIMD_Generic@@UAIXPAMMPBMH@Z 005d75b0 f   idLib:Simd_Generic.obj
 0001:001d6840       ?Sub@idSIMD_Generic@@UAIXPAMPBM1H@Z 005d7840 f   idLib:Simd_Generic.obj
 0001:001d6b60       ?SubAssign16@idSIMD_Generic@@UAIXPAMPBMH@Z 005d7b60 f   idLib:Simd_Generic.obj
 0001:001d6cf0       ?TracePointCull@idSIMD_Generic@@UAIXPAEAAEMPBVidPlane@@PBVidDrawVert@@H@Z 005d7cf0 f   idLib:Simd_Generic.obj
 0001:001d6e90       ?TransformJoints@idSIMD_Generic@@UAIXPAVidJointMat@@PBHHH@Z 005d7e90 f   idLib:Simd_Generic.obj
 0001:001d70c0       ?TransformVerts@idSIMD_Generic@@UAIXPAVidDrawVert@@HPBVidJointMat@@PBVidVec4@@PBHH@Z 005d80c0 f   idLib:Simd_Generic.obj
 0001:001d7270       ?UntransformJoints@idSIMD_Generic@@UAIXPAVidJointMat@@PBHHH@Z 005d8270 f   idLib:Simd_Generic.obj
 0001:001d74b0       ?UpSampleOGGTo44kHz@idSIMD_Generic@@UAIXPAMPBQBMHHH@Z 005d84b0 f   idLib:Simd_Generic.obj
 0001:001d78b0       ?UpSamplePCMTo44kHz@idSIMD_Generic@@UAIXPAMPBFHHH@Z 005d88b0 f   idLib:Simd_Generic.obj
 0001:001d7bf0       ?Zero16@idSIMD_Generic@@UAIXPAMH@Z 005d8bf0 f   idLib:Simd_Generic.obj
 0001:001d7c10       ?GetName@idSIMD_MMX@@UBIPBDXZ 005d8c10 f   idLib:Simd_MMX.obj
 0001:001d7c20       ?MMX_Memcpy2kB@@YAXPAXPBXH@Z 005d8c20 f   idLib:Simd_MMX.obj
 0001:001d7d10       ?Memcpy@idSIMD_MMX@@UAIXPAXPBXH@Z 005d8d10 f   idLib:Simd_MMX.obj
 0001:001d7e60       ?Memset@idSIMD_MMX@@UAIXPAXHH@Z 005d8e60 f   idLib:Simd_MMX.obj
 0001:001d7f50       ?GetName@idSIMD_3DNow@@UBIPBDXZ 005d8f50 f   idLib:Simd_3DNow.obj
 0001:001d7f60       ?Memcpy@idSIMD_3DNow@@UAIXPAXPBXH@Z 005d8f60 f   idLib:Simd_3DNow.obj
 0001:001d8150       ?Add16@idSIMD_SSE@@UAIXPAMPBM1H@Z 005d9150 f   idLib:Simd_SSE.obj
 0001:001d8190       ?Add@idSIMD_SSE@@UAIXPAMMPBMH@Z 005d9190 f   idLib:Simd_SSE.obj
 0001:001d82c0       ?Add@idSIMD_SSE@@UAIXPAMPBM1H@Z 005d92c0 f   idLib:Simd_SSE.obj
 0001:001d8400       ?AddAssign16@idSIMD_SSE@@UAIXPAMPBMH@Z 005d9400 f   idLib:Simd_SSE.obj
 0001:001d8440       ?BlendJoints@idSIMD_SSE@@UAIXPAVidJointQuat@@PBV2@MPBHH@Z 005d9440 f   idLib:Simd_SSE.obj
 0001:001d9270       ?Clamp@idSIMD_SSE@@UAIXPAMPBMMMH@Z 005da270 f   idLib:Simd_SSE.obj
 0001:001d9510       ?ClampMax@idSIMD_SSE@@UAIXPAMPBMMH@Z 005da510 f   idLib:Simd_SSE.obj
 0001:001d9840       ?ClampMin@idSIMD_SSE@@UAIXPAMPBMMH@Z 005da840 f   idLib:Simd_SSE.obj
 0001:001d9b70       ?CmpGE@idSIMD_SSE@@UAIXPAEEPBMMH@Z 005dab70 f   idLib:Simd_SSE.obj
 0001:001d9d60       ?CmpGE@idSIMD_SSE@@UAIXPAEPBMMH@Z 005dad60 f   idLib:Simd_SSE.obj
 0001:001d9f10       ?CmpGT@idSIMD_SSE@@UAIXPAEEPBMMH@Z 005daf10 f   idLib:Simd_SSE.obj
 0001:001da100       ?CmpGT@idSIMD_SSE@@UAIXPAEPBMMH@Z 005db100 f   idLib:Simd_SSE.obj
 0001:001da2b0       ?CmpLE@idSIMD_SSE@@UAIXPAEEPBMMH@Z 005db2b0 f   idLib:Simd_SSE.obj
 0001:001da4a0       ?CmpLE@idSIMD_SSE@@UAIXPAEPBMMH@Z 005db4a0 f   idLib:Simd_SSE.obj
 0001:001da660       ?CmpLT@idSIMD_SSE@@UAIXPAEEPBMMH@Z 005db660 f   idLib:Simd_SSE.obj
 0001:001da850       ?CmpLT@idSIMD_SSE@@UAIXPAEPBMMH@Z 005db850 f   idLib:Simd_SSE.obj
 0001:001daa10       ?ConvertJointMatsToJointQuats@idSIMD_SSE@@UAIXPAVidJointQuat@@PBVidJointMat@@H@Z 005dba10 f   idLib:Simd_SSE.obj
 0001:001daf90       ?ConvertJointQuatsToJointMats@idSIMD_SSE@@UAIXPAVidJointMat@@PBVidJointQuat@@H@Z 005dbf90 f   idLib:Simd_SSE.obj
 0001:001db0a0       ?Copy16@idSIMD_SSE@@UAIXPAMPBMH@Z 005dc0a0 f   idLib:Simd_SSE.obj
 0001:001db0e0       ?CreateShadowCache@idSIMD_SSE@@UAIHPAVidVec4@@PAHABVidVec3@@PBVidDrawVert@@H@Z 005dc0e0 f   idLib:Simd_SSE.obj
 0001:001db250       ?CreateSpecularTextureCoords@idSIMD_SSE@@UAIXPAVidVec4@@ABVidVec3@@1PBVidDrawVert@@HPBHH@Z 005dc250 f   idLib:Simd_SSE.obj
 0001:001db6f0       ?CreateTextureSpaceLightVectors@idSIMD_SSE@@UAIXPAVidVec3@@ABV2@PBVidDrawVert@@HPBHH@Z 005dc6f0 f   idLib:Simd_SSE.obj
 0001:001db800       ?CreateVertexProgramShadowCache@idSIMD_SSE@@UAIHPAVidVec4@@PBVidDrawVert@@H@Z 005dc800 f   idLib:Simd_SSE.obj
 0001:001db900       ?DecalPointCull@idSIMD_SSE@@UAIXPAEPBVidPlane@@PBVidDrawVert@@H@Z 005dc900 f   idLib:Simd_SSE.obj
 0001:001dbb30       ?DeriveTangents@idSIMD_SSE@@UAIXPAVidPlane@@PAVidDrawVert@@HPBHH@Z 005dcb30 f   idLib:Simd_SSE.obj
 0001:001dccf0       ?DeriveTriPlanes@idSIMD_SSE@@UAIXPAVidPlane@@PBVidDrawVert@@HPBHH@Z 005ddcf0 f   idLib:Simd_SSE.obj
 0001:001dd180       ?DeriveUnsmoothedTangents@idSIMD_SSE@@UAIXPAVidDrawVert@@PBUdominantTri_s@@H@Z 005de180 f   idLib:Simd_SSE.obj
 0001:001ddc00       ?Div@idSIMD_SSE@@UAIXPAMMPBMH@Z 005dec00 f   idLib:Simd_SSE.obj
 0001:001dddb0       ?Div@idSIMD_SSE@@UAIXPAMPBM1H@Z 005dedb0 f   idLib:Simd_SSE.obj
 0001:001ddf60       ?Dot@idSIMD_SSE@@UAIXAAMPBM1H@Z 005def60 f   idLib:Simd_SSE.obj
 0001:001de0f0       ?Dot@idSIMD_SSE@@UAIXPAMABVidPlane@@PBV2@H@Z 005df0f0 f   idLib:Simd_SSE.obj
 0001:001de250       ?Dot@idSIMD_SSE@@UAIXPAMABVidPlane@@PBVidDrawVert@@H@Z 005df250 f   idLib:Simd_SSE.obj
 0001:001de350       ?Dot@idSIMD_SSE@@UAIXPAMABVidPlane@@PBVidVec3@@H@Z 005df350 f   idLib:Simd_SSE.obj
 0001:001de430       ?Dot@idSIMD_SSE@@UAIXPAMABVidVec3@@PBV2@H@Z 005df430 f   idLib:Simd_SSE.obj
 0001:001de500       ?Dot@idSIMD_SSE@@UAIXPAMABVidVec3@@PBVidDrawVert@@H@Z 005df500 f   idLib:Simd_SSE.obj
 0001:001de5f0       ?Dot@idSIMD_SSE@@UAIXPAMABVidVec3@@PBVidPlane@@H@Z 005df5f0 f   idLib:Simd_SSE.obj
 0001:001de6e0       ?Dot@idSIMD_SSE@@UAIXPAMPBVidVec3@@1H@Z 005df6e0 f   idLib:Simd_SSE.obj
 0001:001de7d0       ?GetName@idSIMD_SSE@@UBIPBDXZ 005df7d0 f   idLib:Simd_SSE.obj
 0001:001de7e0       ?MatX_LDLTFactor@idSIMD_SSE@@UAI_NAAVidMatX@@AAVidVecX@@H@Z 005df7e0 f   idLib:Simd_SSE.obj
 0001:001dee40       ?MatX_LowerTriangularSolve@idSIMD_SSE@@UAIXABVidMatX@@PAMPBMHH@Z 005dfe40 f   idLib:Simd_SSE.obj
 0001:001df650       ?MatX_LowerTriangularSolveTranspose@idSIMD_SSE@@UAIXABVidMatX@@PAMPBMH@Z 005e0650 f   idLib:Simd_SSE.obj
 0001:001dff10       ?MatX_MultiplyAddVecX@idSIMD_SSE@@UAIXAAVidVecX@@ABVidMatX@@ABV2@@Z 005e0f10 f   idLib:Simd_SSE.obj
 0001:001e0cc0       ?MatX_MultiplyMatX@idSIMD_SSE@@UAIXAAVidMatX@@ABV2@1@Z 005e1cc0 f   idLib:Simd_SSE.obj
 0001:001e3a40       ?MatX_MultiplySubVecX@idSIMD_SSE@@UAIXAAVidVecX@@ABVidMatX@@ABV2@@Z 005e4a40 f   idLib:Simd_SSE.obj
 0001:001e4830       ?MatX_MultiplyVecX@idSIMD_SSE@@UAIXAAVidVecX@@ABVidMatX@@ABV2@@Z 005e5830 f   idLib:Simd_SSE.obj
 0001:001e5560       ?MatX_TransposeMultiplyAddVecX@idSIMD_SSE@@UAIXAAVidVecX@@ABVidMatX@@ABV2@@Z 005e6560 f   idLib:Simd_SSE.obj
 0001:001e6030       ?MatX_TransposeMultiplyMatX@idSIMD_SSE@@UAIXAAVidMatX@@ABV2@1@Z 005e7030 f   idLib:Simd_SSE.obj
 0001:001e7d50       ?MatX_TransposeMultiplySubVecX@idSIMD_SSE@@UAIXAAVidVecX@@ABVidMatX@@ABV2@@Z 005e8d50 f   idLib:Simd_SSE.obj
 0001:001e8850       ?MatX_TransposeMultiplyVecX@idSIMD_SSE@@UAIXAAVidVecX@@ABVidMatX@@ABV2@@Z 005e9850 f   idLib:Simd_SSE.obj
 0001:001e9300       ?MinMax@idSIMD_SSE@@UAIXAAM0PBMH@Z 005ea300 f   idLib:Simd_SSE.obj
 0001:001e9550       ?MinMax@idSIMD_SSE@@UAIXAAVidVec2@@0PBV2@H@Z 005ea550 f   idLib:Simd_SSE.obj
 0001:001e95d0       ?MinMax@idSIMD_SSE@@UAIXAAVidVec3@@0PBV2@H@Z 005ea5d0 f   idLib:Simd_SSE.obj
 0001:001e96a0       ?MinMax@idSIMD_SSE@@UAIXAAVidVec3@@0PBVidDrawVert@@H@Z 005ea6a0 f   idLib:Simd_SSE.obj
 0001:001e9780       ?MinMax@idSIMD_SSE@@UAIXAAVidVec3@@0PBVidDrawVert@@PBHH@Z 005ea780 f   idLib:Simd_SSE.obj
 0001:001e9870       ?MixSoundSixSpeakerMono@idSIMD_SSE@@UAIXPAMPBMHQBM2@Z 005ea870 f   idLib:Simd_SSE.obj
 0001:001e9a00       ?MixSoundSixSpeakerStereo@idSIMD_SSE@@UAIXPAMPBMHQBM2@Z 005eaa00 f   idLib:Simd_SSE.obj
 0001:001e9b50       ?MixSoundTwoSpeakerMono@idSIMD_SSE@@UAIXPAMPBMHQBM2@Z 005eab50 f   idLib:Simd_SSE.obj
 0001:001e9c40       ?MixSoundTwoSpeakerStereo@idSIMD_SSE@@UAIXPAMPBMHQBM2@Z 005eac40 f   idLib:Simd_SSE.obj
 0001:001e9d20       ?MixedSoundToSamples@idSIMD_SSE@@UAIXPAFPBMH@Z 005ead20 f   idLib:Simd_SSE.obj
 0001:001e9db0       ?Mul16@idSIMD_SSE@@UAIXPAMPBMMH@Z 005eadb0 f   idLib:Simd_SSE.obj
 0001:001e9df0       ?Mul@idSIMD_SSE@@UAIXPAMMPBMH@Z 005eadf0 f   idLib:Simd_SSE.obj
 0001:001e9f20       ?Mul@idSIMD_SSE@@UAIXPAMPBM1H@Z 005eaf20 f   idLib:Simd_SSE.obj
 0001:001ea060       ?MulAdd@idSIMD_SSE@@UAIXPAMMPBMH@Z 005eb060 f   idLib:Simd_SSE.obj
 0001:001ea6c0       ?MulAdd@idSIMD_SSE@@UAIXPAMPBM1H@Z 005eb6c0 f   idLib:Simd_SSE.obj
 0001:001ea920       ?MulAssign16@idSIMD_SSE@@UAIXPAMMH@Z 005eb920 f   idLib:Simd_SSE.obj
 0001:001ea960       ?MulSub@idSIMD_SSE@@UAIXPAMMPBMH@Z 005eb960 f   idLib:Simd_SSE.obj
 0001:001eb0d0       ?MulSub@idSIMD_SSE@@UAIXPAMPBM1H@Z 005ec0d0 f   idLib:Simd_SSE.obj
 0001:001eb320       ?Negate16@idSIMD_SSE@@UAIXPAMH@Z 005ec320 f   idLib:Simd_SSE.obj
 0001:001eb360       ?NormalizeTangents@idSIMD_SSE@@UAIXPAVidDrawVert@@H@Z 005ec360 f   idLib:Simd_SSE.obj
 0001:001eb8c0       ?OverlayPointCull@idSIMD_SSE@@UAIXPAEPAVidVec2@@PBVidPlane@@PBVidDrawVert@@H@Z 005ec8c0 f   idLib:Simd_SSE.obj
 0001:001ebb30       ?Sub16@idSIMD_SSE@@UAIXPAMPBM1H@Z 005ecb30 f   idLib:Simd_SSE.obj
 0001:001ebb70       ?Sub@idSIMD_SSE@@UAIXPAMMPBMH@Z 005ecb70 f   idLib:Simd_SSE.obj
 0001:001ebca0       ?Sub@idSIMD_SSE@@UAIXPAMPBM1H@Z 005ecca0 f   idLib:Simd_SSE.obj
 0001:001ebde0       ?SubAssign16@idSIMD_SSE@@UAIXPAMPBMH@Z 005ecde0 f   idLib:Simd_SSE.obj
 0001:001ebe20       ?TracePointCull@idSIMD_SSE@@UAIXPAEAAEMPBVidPlane@@PBVidDrawVert@@H@Z 005ece20 f   idLib:Simd_SSE.obj
 0001:001ebef0       ?TransformJoints@idSIMD_SSE@@UAIXPAVidJointMat@@PBHHH@Z 005ecef0 f   idLib:Simd_SSE.obj
 0001:001ec000       ?TransformVerts@idSIMD_SSE@@UAIXPAVidDrawVert@@HPBVidJointMat@@PBVidVec4@@PBHH@Z 005ed000 f   idLib:Simd_SSE.obj
 0001:001ec0c0       ?UntransformJoints@idSIMD_SSE@@UAIXPAVidJointMat@@PBHHH@Z 005ed0c0 f   idLib:Simd_SSE.obj
 0001:001ec1d0       ?UpSampleOGGTo44kHz@idSIMD_SSE@@UAIXPAMPBQBMHHH@Z 005ed1d0 f   idLib:Simd_SSE.obj
 0001:001ec4a0       ?UpSamplePCMTo44kHz@idSIMD_SSE@@UAIXPAMPBFHHH@Z 005ed4a0 f   idLib:Simd_SSE.obj
 0001:001ec6a0       ?Zero16@idSIMD_SSE@@UAIXPAMH@Z 005ed6a0 f   idLib:Simd_SSE.obj
 0001:001ec6d0       ?GetName@idSIMD_SSE2@@UBIPBDXZ 005ed6d0 f   idLib:Simd_SSE2.obj
 0001:001ec6e0       ?MixedSoundToSamples@idSIMD_SSE2@@UAIXPAFPBMH@Z 005ed6e0 f   idLib:Simd_SSE2.obj
 0001:001ec750       ?GetName@idSIMD_SSE3@@UBIPBDXZ 005ed750 f   idLib:Simd_SSE3.obj
 0001:001ec760       ?TransformVerts@idSIMD_SSE3@@UAIXPAVidDrawVert@@HPBVidJointMat@@PBVidVec4@@PBHH@Z 005ed760 f   idLib:Simd_SSE3.obj
 0001:001ec800       ?Sys_CreateThread@@YAIP6AIPAX@Z0W4xthreadPriority@@PBDW4core_t@@H_N@Z 005ed800 f   idLib:win_thread.obj
 0001:001ec8c0       ?Sys_DestroyThread@@YAXI@Z 005ed8c0 f   idLib:win_thread.obj
 0001:001ec8e0       ?Sys_InterlockedDecrement@@YAJAAJ@Z 005ed8e0 f   idLib:win_thread.obj
 0001:001ec8f0       ?Sys_InterlockedIncrement@@YAJAAJ@Z 005ed8f0 f   idLib:win_thread.obj
 0001:001ec900       ?Sys_MutexCreate@@YAXAAU_RTL_CRITICAL_SECTION@@@Z 005ed900 f   idLib:win_thread.obj
 0001:001ec910       ?Sys_MutexDestroy@@YAXAAU_RTL_CRITICAL_SECTION@@@Z 005ed910 f   idLib:win_thread.obj
 0001:001ec920       ?Sys_MutexLock@@YA_NAAU_RTL_CRITICAL_SECTION@@_N@Z 005ed920 f   idLib:win_thread.obj
 0001:001ec950       ?Sys_MutexUnlock@@YAXAAU_RTL_CRITICAL_SECTION@@@Z 005ed950 f   idLib:win_thread.obj
 0001:001ec960       ?Sys_SetThreadName@@YAXKPBD@Z 005ed960 f   idLib:win_thread.obj
 0001:001ec9f0       ?Sys_SignalClear@@YAXAAPAX@Z 005ed9f0 f   idLib:win_thread.obj
 0001:001eca00       ?Sys_SignalCreate@@YAXAAPAX_N@Z 005eda00 f   idLib:win_thread.obj
 0001:001eca20       ?Sys_SignalDestroy@@YAXAAPAX@Z 005eda20 f   idLib:win_thread.obj
 0001:001eca30       ?Sys_SignalRaise@@YAXAAPAX@Z 005eda30 f   idLib:win_thread.obj
 0001:001eca40       ?Sys_SignalWait@@YA_NAAPAXH@Z 005eda40 f   idLib:win_thread.obj
 0001:001eca60       ?Sys_Yield@@YAXXZ          005eda60 f   idLib:win_thread.obj
 0001:001eca70       ??0idSysThread@@QAE@XZ     005eda70 f   idLib:Thread.obj
 0001:001ecb10       ??1idSysSignal@@QAE@XZ     005edb10 f i idLib:Thread.obj
 0001:001ecb50       ??1idSysThread@@UAE@XZ     005edb50 f   idLib:Thread.obj
 0001:001ecc50       ??_EidSysThread@@UAEPAXI@Z 005edc50 f i idLib:Thread.obj
 0001:001ecc50       ??_GidSysThread@@UAEPAXI@Z 005edc50 f i idLib:Thread.obj
 0001:001ecc70       ?GetError@idException@@QAEPBDXZ 005edc70 f i idLib:Thread.obj
 0001:001ecc80       ?SignalWork@idSysThread@@QAEXXZ 005edc80 f   idLib:Thread.obj
 0001:001eccc0       ?StartThread@idSysThread@@QAE_NPBDW4core_t@@W4xthreadPriority@@H@Z 005edcc0 f   idLib:Thread.obj
 0001:001ecd20       ?StartWorkerThread@idSysThread@@QAE_NPBDW4core_t@@W4xthreadPriority@@H@Z 005edd20 f   idLib:Thread.obj
 0001:001ecd60       ?StopThread@idSysThread@@QAEX_N@Z 005edd60 f   idLib:Thread.obj
 0001:001ecde0       ?ThreadProc@idSysThread@@CAHPAV1@@Z 005edde0 f   idLib:Thread.obj
 0001:001eced0       ?WaitForThread@idSysThread@@QAEXXZ 005eded0 f   idLib:Thread.obj
 0001:001ecf10       ?ToJointQuat@idJointMat@@QBE?AVidJointQuat@@XZ 005edf10 f   idLib:JointTransform.obj
 0001:001ed176       ??0exception@std@@QAE@QBD@Z 005ee176 f i libcpmt:xthrow.obj
 0001:001ed1ab       ??0length_error@std@@QAE@ABV01@@Z 005ee1ab f i libcpmt:xthrow.obj
 0001:001ed1c6       ??0length_error@std@@QAE@PBD@Z 005ee1c6 f i libcpmt:xthrow.obj
 0001:001ed1e5       ??0logic_error@std@@QAE@ABV01@@Z 005ee1e5 f i libcpmt:xthrow.obj
 0001:001ed200       ??_E__non_rtti_object@std@@UAEPAXI@Z 005ee200 f i libvcruntime:rtti.obj
 0001:001ed200       ??_Ebad_cast@std@@UAEPAXI@Z 005ee200 f i libvcruntime:rtti.obj
 0001:001ed200       ??_Ebad_exception@std@@UAEPAXI@Z 005ee200 f i libvcruntime:frame.obj
 0001:001ed200       ??_Ebad_typeid@std@@UAEPAXI@Z 005ee200 f i libvcruntime:rtti.obj
 0001:001ed200       ??_Elength_error@std@@UAEPAXI@Z 005ee200 f i libcpmt:xthrow.obj
 0001:001ed200       ??_Elogic_error@std@@UAEPAXI@Z 005ee200 f i libcpmt:xthrow.obj
 0001:001ed200       ??_G__non_rtti_object@std@@UAEPAXI@Z 005ee200 f i libvcruntime:rtti.obj
 0001:001ed200       ??_Gbad_cast@std@@UAEPAXI@Z 005ee200 f i libvcruntime:rtti.obj
 0001:001ed200       ??_Gbad_exception@std@@UAEPAXI@Z 005ee200 f i libvcruntime:frame.obj
 0001:001ed200       ??_Gbad_typeid@std@@UAEPAXI@Z 005ee200 f i libvcruntime:rtti.obj
 0001:001ed200       ??_Glength_error@std@@UAEPAXI@Z 005ee200 f i libcpmt:xthrow.obj
 0001:001ed200       ??_Glogic_error@std@@UAEPAXI@Z 005ee200 f i libcpmt:xthrow.obj
 0001:001ed22d       ?_Xlength_error@std@@YAXPBD@Z 005ee22d f   libcpmt:xthrow.obj
 0001:001ed24d       ??0CAtlBaseModule@ATL@@QAE@XZ 005ee24d f   atls:atlbase.obj
 0001:001ed2a0       ??0_ATL_BASE_MODULE70@ATL@@QAE@XZ 005ee2a0 f i atls:atlbase.obj
 0001:001ed2c3       ??1CAtlBaseModule@ATL@@QAE@XZ 005ee2c3 f   atls:atlbase.obj
 0001:001ed2d9       ?Init@CComCriticalSection@ATL@@QAEJXZ 005ee2d9 f i atls:atlbase.obj
 0001:001ed304       ?RemoveAll@?$CSimpleArray@PAUHINSTANCE__@@V?$CSimpleArrayEqualHelper@PAUHINSTANCE__@@@ATL@@@ATL@@QAEXXZ 005ee304 f i atls:atlbase.obj
 0001:001ed321       ___DestructExceptionObject 005ee321 f   libvcruntime:ehhelpers.obj
 0001:001ed3c2       ?_CallMemberFunction0@@YGXQAX0@Z 005ee3c2 f i libvcruntime:ehhelpers.obj
 0001:001ed427       __IsExceptionObjectToBeDestroyed 005ee427 f   libvcruntime:ehhelpers.obj
 0001:001ed44d       ___AdjustPointer           005ee44d f   libvcruntime:ehhelpers.obj
 0001:001ed472       ___FrameUnwindFilter       005ee472 f   libvcruntime:ehhelpers.obj
 0001:001ed4c8       ___current_exception       005ee4c8 f   libvcruntime:ehhelpers.obj
 0001:001ed4d1       ___current_exception_context 005ee4d1 f   libvcruntime:ehhelpers.obj
 0001:001ed4da       ___std_terminate           005ee4da f   libvcruntime:ehhelpers.obj
 0001:001ed4df       ?GetRangeOfTrysToCheck@__FrameHandler3@@SA?AU?$pair@Viterator@TryBlockMap@__FrameHandler3@@V123@@std@@AAVTryBlockMap@1@HPAXPBU_s_FuncInfo@@H@Z 005ee4df f   libvcruntime:trnsctrl.obj
 0001:001ed54e       ?_CallCatchBlock2@@YAPAXPAUEHRegistrationNode@@PBU_s_FuncInfo@@PAXHK@Z 005ee54e f   libvcruntime:trnsctrl.obj
 0001:001ed5ab       ?_CallSETranslator@@YAHPAUEHExceptionRecord@@PAUEHRegistrationNode@@PAX2PBU_s_FuncInfo@@H1@Z 005ee5ab f   libvcruntime:trnsctrl.obj
 0001:001ed69b       ?_JumpToContinuation@@YGXPAXPAUEHRegistrationNode@@@Z 005ee69b f   libvcruntime:trnsctrl.obj
 0001:001ed6cb       ?_UnwindNestedFrames@@YGXPAUEHRegistrationNode@@PAUEHExceptionRecord@@@Z 005ee6cb f   libvcruntime:trnsctrl.obj
 0001:001ed71e       __CatchGuardHandler        005ee71e f   libvcruntime:trnsctrl.obj
 0001:001ed74f       __CreateFrameInfo          005ee74f f   libvcruntime:trnsctrl.obj
 0001:001ed773       __FindAndUnlinkFrame       005ee773 f   libvcruntime:trnsctrl.obj
 0001:001ed7bb       __TranslatorGuardHandler   005ee7bb f   libvcruntime:trnsctrl.obj
 0001:001ed858       ___CxxFrameHandler3        005ee858 f   libvcruntime:trnsctrl.obj
 0001:001ed890       _memcpy                    005ee890 f   libvcruntime:memcpy.obj
 0001:001ed890       _memmove                   005ee890 f   libvcruntime:memmove.obj
 0001:001ede04       __get_purecall_handler     005eee04 f   libvcruntime:purevirt.obj
 0001:001ede0b       __purecall                 005eee0b f   libvcruntime:purevirt.obj
 0001:001ede30       _memset                    005eee30 f   libvcruntime:memset.obj
 0001:001edf90       __CxxThrowException@8      005eef90 f   libvcruntime:throw.obj
 0001:001ee000       _strstr                    005ef000 f   libvcruntime:strstr.obj
 0001:001ee26b       ??0__non_rtti_object@std@@QAE@ABV01@@Z 005ef26b f i libvcruntime:rtti.obj
 0001:001ee286       ??0bad_cast@std@@QAE@ABV01@@Z 005ef286 f i libvcruntime:rtti.obj
 0001:001ee2a1       ??0bad_typeid@std@@QAE@ABV01@@Z 005ef2a1 f i libvcruntime:rtti.obj
 0001:001ee659       ?__construct_from_string_literal@__non_rtti_object@std@@SA?AV12@QBD@Z 005ef659 f i libvcruntime:rtti.obj
 0001:001ee675       ?__construct_from_string_literal@bad_cast@std@@SA?AV12@QBD@Z 005ef675 f i libvcruntime:rtti.obj
 0001:001ee691       ___RTDynamicCast           005ef691 f   libvcruntime:rtti.obj
 0001:001ee790       _strchr                    005ef790 f   libvcruntime:strchr.obj
 0001:001ee7fe       ___from_strstr_to_strchr   005ef7fe     libvcruntime:strchr.obj
 0001:001ee8c0       _strrchr                   005ef8c0 f   libvcruntime:strrchr.obj
 0001:001ee9f7       ___std_exception_copy      005ef9f7 f   libvcruntime:std_exception.obj
 0001:001eea5a       ___std_exception_destroy   005efa5a f   libvcruntime:std_exception.obj
 0001:001eea80       _memchr                    005efa80 f   libvcruntime:memchr.obj
 0001:001eeb70       __except_handler4          005efb70 f   libvcruntime:chandler4.obj
 0001:001eecce       ___vcrt_initialize         005efcce f   libvcruntime:initialization.obj
 0001:001eeced       ___vcrt_uninitialize       005efced f   libvcruntime:initialization.obj
 0001:001eed04       ___std_type_info_compare   005efd04 f   libvcruntime:std_type_info.obj
 0001:001eed50       __except_handler3          005efd50 f   libvcruntime:exsup3.obj
 0001:001eee6b       ___vcrt_freefls@4          005efe6b f   libvcruntime:per_thread_data.obj
 0001:001eee87       ___vcrt_getptd             005efe87 f   libvcruntime:per_thread_data.obj
 0001:001eee95       ___vcrt_getptd_noexit      005efe95 f   libvcruntime:per_thread_data.obj
 0001:001eef27       ___vcrt_initialize_ptd     005eff27 f   libvcruntime:per_thread_data.obj
 0001:001eef5a       ___vcrt_uninitialize_ptd   005eff5a f   libvcruntime:per_thread_data.obj
 0001:001ef6a7       ??$TypeMatchHelper@V__FrameHandler3@@@@YAHPBU_s_HandlerType@@PBU_s_CatchableType@@PBU_s_ThrowInfo@@@Z 005f06a7 f i libvcruntime:frame.obj
 0001:001ef735       ??$__InternalCxxFrameHandler@V__FrameHandler3@@@@YA?AW4_EXCEPTION_DISPOSITION@@PAUEHExceptionRecord@@PAUEHRegistrationNode@@PAU_CONTEXT@@PAXPBU_s_FuncInfo@@H1E@Z 005f0735 f i libvcruntime:frame.obj
 0001:001ef837       ??$__InternalCxxFrameHandlerWrapper@V__FrameHandler3@@@@YA?AW4_EXCEPTION_DISPOSITION@@PAUEHExceptionRecord@@PAUEHRegistrationNode@@PAU_CONTEXT@@PAXPBU_s_FuncInfo@@H1E@Z 005f0837 f i libvcruntime:frame.obj
 0001:001ef840       ??0bad_exception@std@@QAE@ABV01@@Z 005f0840 f i libvcruntime:frame.obj
 0001:001ef85b       ??0bad_exception@std@@QAE@XZ 005f085b f i libvcruntime:frame.obj
 0001:001ef873       ??8type_info@@QBE_NABV0@@Z 005f0873 f i libvcruntime:frame.obj
 0001:001efaea       ?FrameUnwindToEmptyState@__FrameHandler3@@SAXPAUEHRegistrationNode@@PAXPBU_s_FuncInfo@@@Z 005f0aea f   libvcruntime:frame.obj
 0001:001efb02       ?FrameUnwindToState@__FrameHandler3@@SAXPAUEHRegistrationNode@@PAXPBU_s_FuncInfo@@H@Z 005f0b02 f   libvcruntime:frame.obj
 0001:001efc84       ?_CallMemberFunction1@@YGXQAX00@Z 005f0c84 f i libvcruntime:frame.obj
 0001:001efc94       ?_CallMemberFunction2@@YGXQAX00H@Z 005f0c94 f i libvcruntime:frame.obj
 0001:001efca7       ?getESTypes@__FrameHandler3@@SAPBU_s_ESTypeList@@PBU_s_FuncInfo@@@Z 005f0ca7 f i libvcruntime:frame.obj
 0001:001efcc0       __CallSettingFrame@12      005f0cc0 f   libvcruntime:lowhelpr.obj
 0001:001efce7       __NLG_Return               005f0ce7     libvcruntime:lowhelpr.obj
 0001:001efd0c       ___except_validate_context_record 005f0d0c f   libvcruntime:jbcxrval.obj
 0001:001efd40       __local_unwind4            005f0d40 f   libvcruntime:exsup4.obj
 0001:001efe30       @_EH4_CallFilterFunc@8     005f0e30 f   libvcruntime:exsup4.obj
 0001:001efe50       @_EH4_TransferToHandler@8  005f0e50 f   libvcruntime:exsup4.obj
 0001:001efe70       @_EH4_GlobalUnwind2@8      005f0e70 f   libvcruntime:exsup4.obj
 0001:001efe90       @_EH4_LocalUnwind@16       005f0e90 f   libvcruntime:exsup4.obj
 0001:001efea7       ___vcrt_initialize_locks   005f0ea7 f   libvcruntime:locks.obj
 0001:001efee3       ___vcrt_uninitialize_locks 005f0ee3 f   libvcruntime:locks.obj
 0001:001eff12       _CallDestructExceptionObject 005f0f12 f   libvcruntime:calldtor.obj
 0001:001eff60       __global_unwind2           005f0f60 f   libvcruntime:exsup.obj
 0001:001effe0       __local_unwind2            005f0fe0 f   libvcruntime:exsup.obj
 0001:001f0080       __NLG_Notify1              005f1080 f   libvcruntime:exsup.obj
 0001:001f0090       __NLG_Notify               005f1090 f   libvcruntime:exsup.obj
 0001:001f00a7       __NLG_Dispatch             005f10a7     libvcruntime:exsup.obj
 0001:001f00a7       __NLG_Dispatch2            005f10a7     libvcruntime:exsup.obj
 0001:001f00b0       __NLG_Call                 005f10b0 f   libvcruntime:exsup.obj
 0001:001f00b2       __NLG_Return2              005f10b2     libvcruntime:exsup.obj
 0001:001f0190       __ValidateEH3RN            005f1190 f   libvcruntime:eh3valid.obj
 0001:001f0628       ___vcrt_FlsAlloc           005f1628 f   libvcruntime:winapi_downlevel.obj
 0001:001f0663       ___vcrt_FlsFree            005f1663 f   libvcruntime:winapi_downlevel.obj
 0001:001f069e       ___vcrt_FlsGetValue        005f169e f   libvcruntime:winapi_downlevel.obj
 0001:001f06d9       ___vcrt_FlsSetValue        005f16d9 f   libvcruntime:winapi_downlevel.obj
 0001:001f0717       ___vcrt_InitializeCriticalSectionEx 005f1717 f   libvcruntime:winapi_downlevel.obj
 0001:001f075e       _unexpected                005f175e f   libvcruntime:unexpected.obj
 0001:001f077b       ?GetCurrentState@__FrameHandler3@@SAHPAUEHRegistrationNode@@PAXPBU_s_FuncInfo@@@Z 005f177b f   libvcruntime:ehstate.obj
 0001:001f0798       ?SetState@__FrameHandler3@@SAXPAUEHRegistrationNode@@PBU_s_FuncInfo@@H@Z 005f1798 f   libvcruntime:ehstate.obj
 0001:001f07b0       __libm_sse2_sqrt_precise   005f17b0 f   libucrt:sqrt_sse2_precise.obj
 0001:001f0a7f       ??$count@D@formatting_buffer@__crt_stdio_output@@QBEIXZ 005f1a7f f i libucrt:output.obj
 0001:001f0a97       ??$ensure_buffer_is_big_enough@D@formatting_buffer@__crt_stdio_output@@QAE_NIAAV__crt_cached_ptd_host@@@Z 005f1a97 f i libucrt:output.obj
 0001:001f0b18       ??$is_overflow_condition@K@__crt_strtox@@YA_NIK@Z 005f1b18 f i libucrt:output.obj
 0001:001f0b4c       ??$is_wide_character_specifier@D@__crt_stdio_output@@YA_N_KDW4length_modifier@0@@Z 005f1b4c f i libucrt:output.obj
 0001:001f0b7d       ??$make_c_string_character_source@DPAPAD@__crt_strtox@@YA?AV?$c_string_character_source@D@0@QBDQAPAD@Z 005f1b7d f i libucrt:output.obj
 0001:001f0b7d       ??$make_c_string_character_source@_WPAPA_W@__crt_strtox@@YA?AV?$c_string_character_source@_W@0@QB_WQAPA_W@Z 005f1b7d f i libucrt:output.obj
 0001:001f0b98       ??$parse_integer@KV?$c_string_character_source@D@__crt_strtox@@$0A@@__crt_strtox@@YAKAAV__crt_cached_ptd_host@@V?$c_string_character_source@D@0@H_N@Z 005f1b98 f i libucrt:output.obj
 0001:001f0da7       ??$scratch_data@D@formatting_buffer@__crt_stdio_output@@QAEPADXZ 005f1da7 f i libucrt:output.obj
 0001:001f0dc5       ??$type_case_integer@$07@?$output_processor@DV?$stream_output_adapter@D@__crt_stdio_output@@V?$standard_base@DV?$stream_output_adapter@D@__crt_stdio_output@@@2@@__crt_stdio_output@@AAE_N_N@Z 005f1dc5 f i libucrt:output.obj
 0001:001f0dc5       ??$type_case_integer@$07@?$output_processor@DV?$string_output_adapter@D@__crt_stdio_output@@V?$standard_base@DV?$string_output_adapter@D@__crt_stdio_output@@@2@@__crt_stdio_output@@AAE_N_N@Z 005f1dc5 f i libucrt:output.obj
 0001:001f0f52       ??$type_case_integer@$09@?$output_processor@DV?$stream_output_adapter@D@__crt_stdio_output@@V?$standard_base@DV?$stream_output_adapter@D@__crt_stdio_output@@@2@@__crt_stdio_output@@AAE_N_N@Z 005f1f52 f i libucrt:output.obj
 0001:001f0f52       ??$type_case_integer@$09@?$output_processor@DV?$string_output_adapter@D@__crt_stdio_output@@V?$standard_base@DV?$string_output_adapter@D@__crt_stdio_output@@@2@@__crt_stdio_output@@AAE_N_N@Z 005f1f52 f i libucrt:output.obj
 0001:001f10df       ??$type_case_integer@$0BA@@?$output_processor@DV?$stream_output_adapter@D@__crt_stdio_output@@V?$standard_base@DV?$stream_output_adapter@D@__crt_stdio_output@@@2@@__crt_stdio_output@@AAE_N_N@Z 005f20df f i libucrt:output.obj
 0001:001f10df       ??$type_case_integer@$0BA@@?$output_processor@DV?$string_output_adapter@D@__crt_stdio_output@@V?$standard_base@DV?$string_output_adapter@D@__crt_stdio_output@@@2@@__crt_stdio_output@@AAE_N_N@Z 005f20df f i libucrt:output.obj
 0001:001f126c       ??$type_case_integer_parse_into_buffer@I$07@?$output_processor@DV?$stream_output_adapter@D@__crt_stdio_output@@V?$standard_base@DV?$stream_output_adapter@D@__crt_stdio_output@@@2@@__crt_stdio_output@@AAEXI_N@Z 005f226c f i libucrt:output.obj
 0001:001f126c       ??$type_case_integer_parse_into_buffer@I$07@?$output_processor@DV?$string_output_adapter@D@__crt_stdio_output@@V?$standard_base@DV?$string_output_adapter@D@__crt_stdio_output@@@2@@__crt_stdio_output@@AAEXI_N@Z 005f226c f i libucrt:output.obj
 0001:001f12cf       ??$type_case_integer_parse_into_buffer@I$09@?$output_processor@DV?$stream_output_adapter@D@__crt_stdio_output@@V?$standard_base@DV?$stream_output_adapter@D@__crt_stdio_output@@@2@@__crt_stdio_output@@AAEXI_N@Z 005f22cf f i libucrt:output.obj
 0001:001f12cf       ??$type_case_integer_parse_into_buffer@I$09@?$output_processor@DV?$string_output_adapter@D@__crt_stdio_output@@V?$standard_base@DV?$string_output_adapter@D@__crt_stdio_output@@@2@@__crt_stdio_output@@AAEXI_N@Z 005f22cf f i libucrt:output.obj
 0001:001f1356       ??$type_case_integer_parse_into_buffer@I$0BA@@?$output_processor@DV?$stream_output_adapter@D@__crt_stdio_output@@V?$standard_base@DV?$stream_output_adapter@D@__crt_stdio_output@@@2@@__crt_stdio_output@@AAEXI_N@Z 005f2356 f i libucrt:output.obj
 0001:001f1356       ??$type_case_integer_parse_into_buffer@I$0BA@@?$output_processor@DV?$string_output_adapter@D@__crt_stdio_output@@V?$standard_base@DV?$string_output_adapter@D@__crt_stdio_output@@@2@@__crt_stdio_output@@AAEXI_N@Z 005f2356 f i libucrt:output.obj
 0001:001f13d3       ??$type_case_integer_parse_into_buffer@_K$07@?$output_processor@DV?$stream_output_adapter@D@__crt_stdio_output@@V?$standard_base@DV?$stream_output_adapter@D@__crt_stdio_output@@@2@@__crt_stdio_output@@AAEX_K_N@Z 005f23d3 f i libucrt:output.obj
 0001:001f13d3       ??$type_case_integer_parse_into_buffer@_K$07@?$output_processor@DV?$string_output_adapter@D@__crt_stdio_output@@V?$standard_base@DV?$string_output_adapter@D@__crt_stdio_output@@@2@@__crt_stdio_output@@AAEX_K_N@Z 005f23d3 f i libucrt:output.obj
 0001:001f144b       ??$type_case_integer_parse_into_buffer@_K$09@?$output_processor@DV?$stream_output_adapter@D@__crt_stdio_output@@V?$standard_base@DV?$stream_output_adapter@D@__crt_stdio_output@@@2@@__crt_stdio_output@@AAEX_K_N@Z 005f244b f i libucrt:output.obj
 0001:001f144b       ??$type_case_integer_parse_into_buffer@_K$09@?$output_processor@DV?$string_output_adapter@D@__crt_stdio_output@@V?$standard_base@DV?$string_output_adapter@D@__crt_stdio_output@@@2@@__crt_stdio_output@@AAEX_K_N@Z 005f244b f i libucrt:output.obj
 0001:001f14f2       ??$type_case_integer_parse_into_buffer@_K$0BA@@?$output_processor@DV?$stream_output_adapter@D@__crt_stdio_output@@V?$standard_base@DV?$stream_output_adapter@D@__crt_stdio_output@@@2@@__crt_stdio_output@@AAEX_K_N@Z 005f24f2 f i libucrt:output.obj
 0001:001f14f2       ??$type_case_integer_parse_into_buffer@_K$0BA@@?$output_processor@DV?$string_output_adapter@D@__crt_stdio_output@@V?$standard_base@DV?$string_output_adapter@D@__crt_stdio_output@@@2@@__crt_stdio_output@@AAEX_K_N@Z 005f24f2 f i libucrt:output.obj
 0001:001f157c       ??0?$output_adapter_data@DV?$stream_output_adapter@D@__crt_stdio_output@@@__crt_stdio_output@@IAE@ABV?$stream_output_adapter@D@1@_KQBDAAV__crt_cached_ptd_host@@QAD@Z 005f257c f i libucrt:output.obj
 0001:001f157c       ??0?$output_adapter_data@DV?$string_output_adapter@D@__crt_stdio_output@@@__crt_stdio_output@@IAE@ABV?$string_output_adapter@D@1@_KQBDAAV__crt_cached_ptd_host@@QAD@Z 005f257c f i libucrt:output.obj
 0001:001f15f0       ??0__crt_cached_ptd_host@@QAE@QAU__crt_locale_pointers@@@Z 005f25f0 f i libucrt:output.obj
 0001:001f1650       ??1__crt_cached_ptd_host@@QAE@XZ 005f2650 f i libucrt:output.obj
 0001:001f168c       ??1formatting_buffer@__crt_stdio_output@@QAE@XZ 005f268c f i libucrt:output.obj
 0001:001f16a6       ??4?$__crt_unique_heap_ptr@DU__crt_internal_free_policy@@@@QAEAAV0@$$QAV0@@Z 005f26a6 f i libucrt:output.obj
 0001:001f1766       ?crop_zeroes@__crt_stdio_output@@YAXPADQAU__crt_locale_pointers@@@Z 005f2766 f i libucrt:output.obj
 0001:001f17c6       ?find_next_state@?$output_processor@DV?$stream_output_adapter@D@__crt_stdio_output@@V?$standard_base@DV?$stream_output_adapter@D@__crt_stdio_output@@@2@@__crt_stdio_output@@ABE?AW4state@2@DW432@@Z 005f27c6 f i libucrt:output.obj
 0001:001f17c6       ?find_next_state@?$output_processor@DV?$string_output_adapter@D@__crt_stdio_output@@V?$standard_base@DV?$string_output_adapter@D@__crt_stdio_output@@@2@@__crt_stdio_output@@ABE?AW4state@2@DW432@@Z 005f27c6 f i libucrt:output.obj
 0001:001f1801       ?force_decimal_point@__crt_stdio_output@@YAXPADQAU__crt_locale_pointers@@@Z 005f2801 f i libucrt:output.obj
 0001:001f1860       ?force_synchronize_per_thread_data@__crt_cached_ptd_host@@AAEPAU__acrt_ptd@@XZ 005f2860 f i libucrt:output.obj
 0001:001f18b0       ?get_raw_ptd@__crt_cached_ptd_host@@QAEPAU__acrt_ptd@@XZ 005f28b0 f i libucrt:output.obj
 0001:001f190c       ?parse_int_from_format_string@?$output_processor@DV?$stream_output_adapter@D@__crt_stdio_output@@V?$standard_base@DV?$stream_output_adapter@D@__crt_stdio_output@@@2@@__crt_stdio_output@@AAE_NQAH@Z 005f290c f i libucrt:output.obj
 0001:001f190c       ?parse_int_from_format_string@?$output_processor@DV?$string_output_adapter@D@__crt_stdio_output@@V?$standard_base@DV?$string_output_adapter@D@__crt_stdio_output@@@2@@__crt_stdio_output@@AAE_NQAH@Z 005f290c f i libucrt:output.obj
 0001:001f1984       ?process@?$output_processor@DV?$stream_output_adapter@D@__crt_stdio_output@@V?$standard_base@DV?$stream_output_adapter@D@__crt_stdio_output@@@2@@__crt_stdio_output@@QAEHXZ 005f2984 f i libucrt:output.obj
 0001:001f1c34       ?process@?$output_processor@DV?$string_output_adapter@D@__crt_stdio_output@@V?$standard_base@DV?$string_output_adapter@D@__crt_stdio_output@@@2@@__crt_stdio_output@@QAEHXZ 005f2c34 f i libucrt:output.obj
 0001:001f1f08       ?state_case_size@?$output_processor@DV?$stream_output_adapter@D@__crt_stdio_output@@V?$standard_base@DV?$stream_output_adapter@D@__crt_stdio_output@@@2@@__crt_stdio_output@@AAE_NXZ 005f2f08 f i libucrt:output.obj
 0001:001f2061       ?state_case_size@?$output_processor@DV?$string_output_adapter@D@__crt_stdio_output@@V?$standard_base@DV?$string_output_adapter@D@__crt_stdio_output@@@2@@__crt_stdio_output@@AAE_NXZ 005f3061 f i libucrt:output.obj
 0001:001f21ba       ?state_case_type@?$output_processor@DV?$stream_output_adapter@D@__crt_stdio_output@@V?$standard_base@DV?$stream_output_adapter@D@__crt_stdio_output@@@2@@__crt_stdio_output@@AAE_NXZ 005f31ba f i libucrt:output.obj
 0001:001f24fc       ?state_case_type@?$output_processor@DV?$string_output_adapter@D@__crt_stdio_output@@V?$standard_base@DV?$string_output_adapter@D@__crt_stdio_output@@@2@@__crt_stdio_output@@AAE_NXZ 005f34fc f i libucrt:output.obj
 0001:001f285b       ?to_integer_size@__crt_stdio_output@@YAIW4length_modifier@1@@Z 005f385b f i libucrt:output.obj
 0001:001f28af       ?type_case_Z@?$output_processor@DV?$stream_output_adapter@D@__crt_stdio_output@@V?$standard_base@DV?$stream_output_adapter@D@__crt_stdio_output@@@2@@__crt_stdio_output@@AAE_NXZ 005f38af f i libucrt:output.obj
 0001:001f28af       ?type_case_Z@?$output_processor@DV?$string_output_adapter@D@__crt_stdio_output@@V?$standard_base@DV?$string_output_adapter@D@__crt_stdio_output@@@2@@__crt_stdio_output@@AAE_NXZ 005f38af f i libucrt:output.obj
 0001:001f2912       ?type_case_a@?$output_processor@DV?$stream_output_adapter@D@__crt_stdio_output@@V?$standard_base@DV?$stream_output_adapter@D@__crt_stdio_output@@@2@@__crt_stdio_output@@AAE_NXZ 005f3912 f i libucrt:output.obj
 0001:001f2912       ?type_case_a@?$output_processor@DV?$string_output_adapter@D@__crt_stdio_output@@V?$standard_base@DV?$string_output_adapter@D@__crt_stdio_output@@@2@@__crt_stdio_output@@AAE_NXZ 005f3912 f i libucrt:output.obj
 0001:001f2aa3       ?type_case_c_tchar@?$output_processor@DV?$stream_output_adapter@D@__crt_stdio_output@@V?$standard_base@DV?$stream_output_adapter@D@__crt_stdio_output@@@2@@__crt_stdio_output@@AAE_ND@Z 005f3aa3 f i libucrt:output.obj
 0001:001f2aa3       ?type_case_c_tchar@?$output_processor@DV?$string_output_adapter@D@__crt_stdio_output@@V?$standard_base@DV?$string_output_adapter@D@__crt_stdio_output@@@2@@__crt_stdio_output@@AAE_ND@Z 005f3aa3 f i libucrt:output.obj
 0001:001f2b38       ?type_case_n@?$output_processor@DV?$stream_output_adapter@D@__crt_stdio_output@@V?$standard_base@DV?$stream_output_adapter@D@__crt_stdio_output@@@2@@__crt_stdio_output@@AAE_NXZ 005f3b38 f i libucrt:output.obj
 0001:001f2b38       ?type_case_n@?$output_processor@DV?$string_output_adapter@D@__crt_stdio_output@@V?$standard_base@DV?$string_output_adapter@D@__crt_stdio_output@@@2@@__crt_stdio_output@@AAE_NXZ 005f3b38 f i libucrt:output.obj
 0001:001f2bbd       ?type_case_o@?$output_processor@DV?$stream_output_adapter@D@__crt_stdio_output@@V?$standard_base@DV?$stream_output_adapter@D@__crt_stdio_output@@@2@@__crt_stdio_output@@AAE_NXZ 005f3bbd f i libucrt:output.obj
 0001:001f2bbd       ?type_case_o@?$output_processor@DV?$string_output_adapter@D@__crt_stdio_output@@V?$standard_base@DV?$string_output_adapter@D@__crt_stdio_output@@@2@@__crt_stdio_output@@AAE_NXZ 005f3bbd f i libucrt:output.obj
 0001:001f2bda       ?type_case_p@?$output_processor@DV?$stream_output_adapter@D@__crt_stdio_output@@V?$standard_base@DV?$stream_output_adapter@D@__crt_stdio_output@@@2@@__crt_stdio_output@@AAE_NXZ 005f3bda f i libucrt:output.obj
 0001:001f2bda       ?type_case_p@?$output_processor@DV?$string_output_adapter@D@__crt_stdio_output@@V?$standard_base@DV?$string_output_adapter@D@__crt_stdio_output@@@2@@__crt_stdio_output@@AAE_NXZ 005f3bda f i libucrt:output.obj
 0001:001f2bf0       ?type_case_s@?$output_processor@DV?$stream_output_adapter@D@__crt_stdio_output@@V?$standard_base@DV?$stream_output_adapter@D@__crt_stdio_output@@@2@@__crt_stdio_output@@AAE_NXZ 005f3bf0 f i libucrt:output.obj
 0001:001f2bf0       ?type_case_s@?$output_processor@DV?$string_output_adapter@D@__crt_stdio_output@@V?$standard_base@DV?$string_output_adapter@D@__crt_stdio_output@@@2@@__crt_stdio_output@@AAE_NXZ 005f3bf0 f i libucrt:output.obj
 0001:001f2c62       ?unget@?$c_string_character_source@D@__crt_strtox@@QAEXD@Z 005f3c62 f i libucrt:output.obj
 0001:001f2c8b       ?unget@?$c_string_character_source@_W@__crt_strtox@@QAEX_W@Z 005f3c8b f i libucrt:output.obj
 0001:001f2cc0       ?update_locale_slow@__crt_cached_ptd_host@@AAEXXZ 005f3cc0 f i libucrt:output.obj
 0001:001f2d1b       ?validate@?$c_string_character_source@D@__crt_strtox@@QBE_NXZ 005f3d1b f i libucrt:output.obj
 0001:001f2d1b       ?validate@?$c_string_character_source@_W@__crt_strtox@@QBE_NXZ 005f3d1b f i libucrt:output.obj
 0001:001f2d36       ?validate@?$stream_output_adapter@D@__crt_stdio_output@@QBE_NAAV__crt_cached_ptd_host@@@Z 005f3d36 f i libucrt:output.obj
 0001:001f2d6e       ?validate@?$string_output_adapter@D@__crt_stdio_output@@QBE_NAAV__crt_cached_ptd_host@@@Z 005f3d6e f i libucrt:output.obj
 0001:001f2d9f       ?validate_stream_is_ansi_if_required@?$__acrt_stdio_char_traits@D@@SA_NQAU_iobuf@@@Z 005f3d9f f i libucrt:output.obj
 0001:001f2e26       ?write_character@?$output_adapter_common@DV?$stream_output_adapter@D@__crt_stdio_output@@@__crt_stdio_output@@QBEXDQAHAAV__crt_cached_ptd_host@@@Z 005f3e26 f i libucrt:output.obj
 0001:001f2e48       ?write_character_without_count_update@?$stream_output_adapter@D@__crt_stdio_output@@QBE_NDAAV__crt_cached_ptd_host@@@Z 005f3e48 f i libucrt:output.obj
 0001:001f2e82       ?write_string@?$stream_output_adapter@D@__crt_stdio_output@@QBEXQBDHQAHAAV__crt_cached_ptd_host@@@Z 005f3e82 f i libucrt:output.obj
 0001:001f2eae       ?write_string@?$string_output_adapter@D@__crt_stdio_output@@QBEXQBDHQAHAAV__crt_cached_ptd_host@@@Z 005f3eae f i libucrt:output.obj
 0001:001f2f15       ?write_string_impl@?$output_adapter_common@DV?$stream_output_adapter@D@__crt_stdio_output@@@__crt_stdio_output@@IBEXQBDHQAHAAV__crt_cached_ptd_host@@@Z 005f3f15 f i libucrt:output.obj
 0001:001f2f94       ___acrt_locale_get_ctype_array_value 005f3f94 f i libucrt:output.obj
 0001:001f2fb6       ___stdio_common_vfprintf   005f3fb6 f   libucrt:output.obj
 0001:001f305a       ___stdio_common_vsprintf   005f405a f   libucrt:output.obj
 0001:001f309b       ??$assemble_floating_point_snan@N@__crt_strtox@@YAX_NAAN@Z 005f409b f i libucrt:input.obj
 0001:001f30bc       ??$assemble_floating_point_value_t@M@__crt_strtox@@YA?AW4SLD_STATUS@@_NH_KAAM@Z 005f40bc f i libucrt:input.obj
 0001:001f30ec       ??$assemble_floating_point_value_t@N@__crt_strtox@@YA?AW4SLD_STATUS@@_NH_KAAN@Z 005f40ec f i libucrt:input.obj
 0001:001f31e2       ??$convert_decimal_string_to_floating_type@M@__crt_strtox@@YA?AW4SLD_STATUS@@ABUfloating_point_string@0@AAM@Z 005f41e2 f i libucrt:input.obj
 0001:001f3203       ??$convert_decimal_string_to_floating_type@N@__crt_strtox@@YA?AW4SLD_STATUS@@ABUfloating_point_string@0@AAN@Z 005f4203 f i libucrt:input.obj
 0001:001f3224       ??$convert_hexadecimal_string_to_floating_type@M@__crt_strtox@@YA?AW4SLD_STATUS@@ABUfloating_point_string@0@AAM@Z 005f4224 f i libucrt:input.obj
 0001:001f3245       ??$convert_hexadecimal_string_to_floating_type@N@__crt_strtox@@YA?AW4SLD_STATUS@@ABUfloating_point_string@0@AAN@Z 005f4245 f i libucrt:input.obj
 0001:001f3266       ??$is_overflow_condition@_K@__crt_strtox@@YA_NI_K@Z 005f4266 f i libucrt:input.obj
 0001:001f32a7       ??$make_input_adapter_character_source@V?$string_input_adapter@D@__crt_stdio_input@@@__crt_strtox@@YA?AV?$input_adapter_character_source@V?$string_input_adapter@D@__crt_stdio_input@@@0@QAV?$string_input_adapter@D@__crt_stdio_input@@_KQA_N@Z 005f42a7 f i libucrt:input.obj
 0001:001f32c5       ??$parse_floating_point@V?$input_adapter_character_source@V?$string_input_adapter@D@__crt_stdio_input@@@__crt_strtox@@M@__crt_strtox@@YA?AW4SLD_STATUS@@QAU__crt_locale_pointers@@V?$input_adapter_character_source@V?$string_input_adapter@D@__crt_stdio_input@@@0@QAM@Z 005f42c5 f i libucrt:input.obj
 0001:001f334f       ??$parse_floating_point@V?$input_adapter_character_source@V?$string_input_adapter@D@__crt_stdio_input@@@__crt_strtox@@N@__crt_strtox@@YA?AW4SLD_STATUS@@QAU__crt_locale_pointers@@V?$input_adapter_character_source@V?$string_input_adapter@D@__crt_stdio_input@@@0@QAN@Z 005f434f f i libucrt:input.obj
 0001:001f33d9       ??$parse_floating_point_from_source@V?$input_adapter_character_source@V?$string_input_adapter@D@__crt_stdio_input@@@__crt_strtox@@@__crt_strtox@@YA?AW4floating_point_parse_result@0@QAU__crt_locale_pointers@@AAV?$input_adapter_character_source@V?$string_input_adapter@D@__crt_stdio_input@@@0@AAUfloating_point_string@0@@Z 005f43d9 f i libucrt:input.obj
 0001:001f383b       ??$parse_floating_point_possible_infinity@DV?$input_adapter_character_source@V?$string_input_adapter@D@__crt_stdio_input@@@__crt_strtox@@_K@__crt_strtox@@YA?AW4floating_point_parse_result@0@AADAAV?$input_adapter_character_source@V?$string_input_adapter@D@__crt_stdio_input@@@0@_K@Z 005f483b f i libucrt:input.obj
 0001:001f38fa       ??$parse_floating_point_possible_nan@DV?$input_adapter_character_source@V?$string_input_adapter@D@__crt_stdio_input@@@__crt_strtox@@_K@__crt_strtox@@YA?AW4floating_point_parse_result@0@AADAAV?$input_adapter_character_source@V?$string_input_adapter@D@__crt_stdio_input@@@0@_K@Z 005f48fa f i libucrt:input.obj
 0001:001f3a02       ??$parse_floating_point_possible_nan_is_ind@DV?$input_adapter_character_source@V?$string_input_adapter@D@__crt_stdio_input@@@__crt_strtox@@@__crt_strtox@@YA_NAADAAV?$input_adapter_character_source@V?$string_input_adapter@D@__crt_stdio_input@@@0@@Z 005f4a02 f i libucrt:input.obj
 0001:001f3a3c       ??$parse_floating_point_possible_nan_is_snan@DV?$input_adapter_character_source@V?$string_input_adapter@D@__crt_stdio_input@@@__crt_strtox@@@__crt_strtox@@YA_NAADAAV?$input_adapter_character_source@V?$string_input_adapter@D@__crt_stdio_input@@@0@@Z 005f4a3c f i libucrt:input.obj
 0001:001f3a76       ??$parse_floating_point_write_result@M@__crt_strtox@@YA?AW4SLD_STATUS@@W4floating_point_parse_result@0@ABUfloating_point_string@0@QAM@Z 005f4a76 f i libucrt:input.obj
 0001:001f3be2       ??$parse_floating_point_write_result@N@__crt_strtox@@YA?AW4SLD_STATUS@@W4floating_point_parse_result@0@ABUfloating_point_string@0@QAN@Z 005f4be2 f i libucrt:input.obj
 0001:001f3d06       ??$parse_integer@_KV?$input_adapter_character_source@V?$string_input_adapter@D@__crt_stdio_input@@@__crt_strtox@@$00@__crt_strtox@@YA_KAAV__crt_cached_ptd_host@@V?$input_adapter_character_source@V?$string_input_adapter@D@__crt_stdio_input@@@0@H_N@Z 005f4d06 f i libucrt:input.obj
 0001:001f400a       ??$parse_integer@_KV?$input_adapter_character_source@V?$string_input_adapter@D@__crt_stdio_input@@@__crt_strtox@@@__crt_strtox@@YA_KQAU__crt_locale_pointers@@V?$input_adapter_character_source@V?$string_input_adapter@D@__crt_stdio_input@@@0@H_N@Z 005f500a f i libucrt:input.obj
 0001:001f4066       ??$process_floating_point_specifier_t@M@?$input_processor@DV?$string_input_adapter@D@__crt_stdio_input@@@__crt_stdio_input@@AAE_NXZ 005f5066 f i libucrt:input.obj
 0001:001f40cf       ??$process_floating_point_specifier_t@N@?$input_processor@DV?$string_input_adapter@D@__crt_stdio_input@@@__crt_stdio_input@@AAE_NXZ 005f50cf f i libucrt:input.obj
 0001:001f4138       ??$process_string_specifier_tchar@D@?$input_processor@DV?$string_input_adapter@D@__crt_stdio_input@@@__crt_stdio_input@@AAE_NW4conversion_mode@1@D@Z 005f5138 f i libucrt:input.obj
 0001:001f429a       ??$process_string_specifier_tchar@_W@?$input_processor@DV?$string_input_adapter@D@__crt_stdio_input@@@__crt_stdio_input@@AAE_NW4conversion_mode@1@_W@Z 005f529a f i libucrt:input.obj
 0001:001f4408       ??$skip_whitespace@Vstring_input_adapter@__crt_stdio_input@@D@__crt_stdio_input@@YAHAAV?$string_input_adapter@D@0@QAU__crt_locale_pointers@@@Z 005f5408 f i libucrt:input.obj
 0001:001f4437       ??$write_floating_point@M@?$input_processor@DV?$string_input_adapter@D@__crt_stdio_input@@@__crt_stdio_input@@AAE_NABM@Z 005f5437 f i libucrt:input.obj
 0001:001f446c       ??$write_floating_point@N@?$input_processor@DV?$string_input_adapter@D@__crt_stdio_input@@@__crt_stdio_input@@AAE_NABN@Z 005f546c f i libucrt:input.obj
 0001:001f44a7       ??0?$format_string_parser@D@__crt_stdio_input@@QAE@_KQBE@Z 005f54a7 f i libucrt:input.obj
 0001:001f44f1       ??0?$input_adapter_character_source@V?$string_input_adapter@D@__crt_stdio_input@@@__crt_strtox@@QAE@$$QAV01@@Z 005f54f1 f i libucrt:input.obj
 0001:001f452e       ??0?$input_adapter_character_source@V?$string_input_adapter@D@__crt_stdio_input@@@__crt_strtox@@QAE@QAV?$string_input_adapter@D@__crt_stdio_input@@_KQA_N@Z 005f552e f i libucrt:input.obj
 0001:001f455f       ??0?$input_processor@DV?$string_input_adapter@D@__crt_stdio_input@@@__crt_stdio_input@@QAE@ABV?$string_input_adapter@D@1@_KQBDQAU__crt_locale_pointers@@QAD@Z 005f555f f i libucrt:input.obj
 0001:001f45a3       ??0_LocaleUpdate@@QAE@QAU__crt_locale_pointers@@@Z 005f55a3 f i libucrt:input.obj
 0001:001f4625       ??R<lambda_644f8ab42ed3fd1d660977a2364b3a7d>@@QBE@XZ 005f5625 f i libucrt:input.obj
 0001:001f4625       ??R<lambda_f1fa4c266c18b246f3ed9c36247dab4f>@@QBE@XZ 005f5625 f i libucrt:input.obj
 0001:001f4625       ??R<lambda_f765c90ab33e8386abf09c0f079d37e9>@@QBE@XZ 005f5625 f i libucrt:input.obj
 0001:001f464f       ?advance@?$format_string_parser@D@__crt_stdio_input@@QAE_NXZ 005f564f f i libucrt:input.obj
 0001:001f4767       ?as_double@floating_point_value@__crt_strtox@@QBEAANXZ 005f5767 f i libucrt:input.obj
 0001:001f478c       ?as_float@floating_point_value@__crt_strtox@@QBEAAMXZ 005f578c f i libucrt:input.obj
 0001:001f47b1       ?assemble_floating_point_infinity@__crt_strtox@@YAX_NABVfloating_point_value@1@@Z 005f57b1 f i libucrt:input.obj
 0001:001f47f1       ?assemble_floating_point_value@__crt_strtox@@YA?AW4SLD_STATUS@@_KH_N1ABVfloating_point_value@1@@Z 005f57f1 f i libucrt:input.obj
 0001:001f4b4a       ?assemble_floating_point_value_from_big_integer@__crt_strtox@@YA?AW4SLD_STATUS@@ABUbig_integer@1@I_N1ABVfloating_point_value@1@@Z 005f5b4a f i libucrt:input.obj
 0001:001f4cdc       ?assemble_floating_point_zero@__crt_strtox@@YAX_NABVfloating_point_value@1@@Z 005f5cdc f i libucrt:input.obj
 0001:001f4d11       ?convert_decimal_string_to_floating_type_common@__crt_strtox@@YA?AW4SLD_STATUS@@ABUfloating_point_string@1@ABVfloating_point_value@1@@Z 005f5d11 f i libucrt:input.obj
 0001:001f6ab7       ?convert_hexadecimal_string_to_floating_type_common@__crt_strtox@@YA?AW4SLD_STATUS@@ABUfloating_point_string@1@ABVfloating_point_value@1@@Z 005f7ab7 f i libucrt:input.obj
 0001:001f6b5d       ?denormal_mantissa_mask@floating_point_value@__crt_strtox@@QBE_KXZ 005f7b5d f i libucrt:input.obj
 0001:001f6b80       ?divide@__crt_strtox@@YA_KAAUbig_integer@1@ABU21@@Z 005f7b80 f i libucrt:input.obj
 0001:001f702b       ?get@?$input_adapter_character_source@V?$string_input_adapter@D@__crt_stdio_input@@@__crt_strtox@@QAEDXZ 005f802b f i libucrt:input.obj
 0001:001f7062       ?get@?$string_input_adapter@D@__crt_stdio_input@@QAEHXZ 005f8062 f i libucrt:input.obj
 0001:001f7078       ?is_character_allowed_in_string@?$input_processor@DV?$string_input_adapter@D@__crt_stdio_input@@@__crt_stdio_input@@ABE_NW4conversion_mode@2@H@Z 005f8078 f i libucrt:input.obj
 0001:001f70c8       ?length@?$format_string_parser@D@__crt_stdio_input@@QBEIXZ 005f80c8 f i libucrt:input.obj
 0001:001f7116       ?normal_mantissa_mask@floating_point_value@__crt_strtox@@QBE_KXZ 005f8116 f i libucrt:input.obj
 0001:001f712d       ?process@?$input_processor@DV?$string_input_adapter@D@__crt_stdio_input@@@__crt_stdio_input@@QAEHXZ 005f812d f i libucrt:input.obj
 0001:001f71b1       ?process_character_count_specifier@?$input_processor@DV?$string_input_adapter@D@__crt_stdio_input@@@__crt_stdio_input@@AAE_NXZ 005f81b1 f i libucrt:input.obj
 0001:001f71c9       ?process_conversion_specifier@?$input_processor@DV?$string_input_adapter@D@__crt_stdio_input@@@__crt_stdio_input@@AAE_NXZ 005f81c9 f i libucrt:input.obj
 0001:001f723d       ?process_floating_point_specifier@?$input_processor@DV?$string_input_adapter@D@__crt_stdio_input@@@__crt_stdio_input@@AAE_NXZ 005f823d f i libucrt:input.obj
 0001:001f726d       ?process_integer_specifier@?$input_processor@DV?$string_input_adapter@D@__crt_stdio_input@@@__crt_stdio_input@@AAE_NI_N@Z 005f826d f i libucrt:input.obj
 0001:001f72d2       ?process_literal_character@?$input_processor@DV?$string_input_adapter@D@__crt_stdio_input@@@__crt_stdio_input@@AAE_NXZ 005f82d2 f i libucrt:input.obj
 0001:001f7308       ?process_literal_character_tchar@?$input_processor@DV?$string_input_adapter@D@__crt_stdio_input@@@__crt_stdio_input@@AAE_ND@Z 005f8308 f i libucrt:input.obj
 0001:001f7356       ?process_state@?$input_processor@DV?$string_input_adapter@D@__crt_stdio_input@@@__crt_stdio_input@@AAE_NXZ 005f8356 f i libucrt:input.obj
 0001:001f7398       ?process_string_specifier@?$input_processor@DV?$string_input_adapter@D@__crt_stdio_input@@@__crt_stdio_input@@AAE_NW4conversion_mode@2@@Z 005f8398 f i libucrt:input.obj
 0001:001f73e0       ?process_whitespace@?$input_processor@DV?$string_input_adapter@D@__crt_stdio_input@@@__crt_stdio_input@@AAE_NXZ 005f83e0 f i libucrt:input.obj
 0001:001f73fd       ?restore_state@?$input_adapter_character_source@V?$string_input_adapter@D@__crt_stdio_input@@@__crt_strtox@@QAE_N_K@Z 005f83fd f i libucrt:input.obj
 0001:001f7422       ?scan_conversion_specifier@?$format_string_parser@D@__crt_stdio_input@@AAE_NXZ 005f8422 f i libucrt:input.obj
 0001:001f759e       ?scan_optional_field_width@?$format_string_parser@D@__crt_stdio_input@@AAE_NXZ 005f859e f i libucrt:input.obj
 0001:001f7632       ?scan_optional_length_modifier@?$format_string_parser@D@__crt_stdio_input@@AAEXXZ 005f8632 f i libucrt:input.obj
 0001:001f7752       ?scan_optional_literal_character_trail_bytes_tchar@?$format_string_parser@D@__crt_stdio_input@@AAE_ND@Z 005f8752 f i libucrt:input.obj
 0001:001f77a4       ?scan_optional_wide_modifier@?$format_string_parser@D@__crt_stdio_input@@AAEXXZ 005f87a4 f i libucrt:input.obj
 0001:001f77c2       ?scan_scanset_range@?$format_string_parser@D@__crt_stdio_input@@AAE_NXZ 005f87c2 f i libucrt:input.obj
 0001:001f78fb       ?set@?$scanset_buffer@E@__crt_stdio_input@@QAEXE@Z 005f88fb f i libucrt:input.obj
 0001:001f7926       ?set_wide_for_c_s_or_scanset@?$format_string_parser@D@__crt_stdio_input@@AAEXXZ 005f8926 f i libucrt:input.obj
